
./output/asm_calculator.shakti:     file format elf32-littleriscv


Disassembly of section .text.init:

80000000 <_start>:
80000000:	4081                	li	ra,0
80000002:	4101                	li	sp,0
80000004:	4181                	li	gp,0
80000006:	4201                	li	tp,0
80000008:	4281                	li	t0,0
8000000a:	4301                	li	t1,0
8000000c:	4381                	li	t2,0
8000000e:	4401                	li	s0,0
80000010:	4481                	li	s1,0
80000012:	4501                	li	a0,0
80000014:	4581                	li	a1,0
80000016:	4601                	li	a2,0
80000018:	4681                	li	a3,0
8000001a:	4701                	li	a4,0
8000001c:	4781                	li	a5,0
8000001e:	4801                	li	a6,0
80000020:	4881                	li	a7,0
80000022:	4901                	li	s2,0
80000024:	4981                	li	s3,0
80000026:	4a01                	li	s4,0
80000028:	4a81                	li	s5,0
8000002a:	4b01                	li	s6,0
8000002c:	4b81                	li	s7,0
8000002e:	4c01                	li	s8,0
80000030:	4c81                	li	s9,0
80000032:	4d01                	li	s10,0
80000034:	4d81                	li	s11,0
80000036:	4e01                	li	t3,0
80000038:	4e81                	li	t4,0
8000003a:	4f01                	li	t5,0
8000003c:	4f81                	li	t6,0
8000003e:	62f9                	lui	t0,0x1e
80000040:	3002a073          	csrs	mstatus,t0
80000044:	4285                	li	t0,1
80000046:	02fe                	slli	t0,t0,0x1f
80000048:	0002c863          	bltz	t0,80000058 <_start+0x58>
8000004c:	4505                	li	a0,1
8000004e:	00001297          	auipc	t0,0x1
80000052:	faa2a923          	sw	a0,-78(t0) # 80001000 <tohost>
80000056:	bfdd                	j	8000004c <_start+0x4c>
80000058:	00000297          	auipc	t0,0x0
8000005c:	09028293          	addi	t0,t0,144 # 800000e8 <_start+0xe8>
80000060:	30529073          	csrw	mtvec,t0
80000064:	00301073          	fssr	zero
80000068:	f0000053          	fmv.w.x	ft0,zero
8000006c:	f00000d3          	fmv.w.x	ft1,zero
80000070:	f0000153          	fmv.w.x	ft2,zero
80000074:	f00001d3          	fmv.w.x	ft3,zero
80000078:	f0000253          	fmv.w.x	ft4,zero
8000007c:	f00002d3          	fmv.w.x	ft5,zero
80000080:	f0000353          	fmv.w.x	ft6,zero
80000084:	f00003d3          	fmv.w.x	ft7,zero
80000088:	f0000453          	fmv.w.x	fs0,zero
8000008c:	f00004d3          	fmv.w.x	fs1,zero
80000090:	f0000553          	fmv.w.x	fa0,zero
80000094:	f00005d3          	fmv.w.x	fa1,zero
80000098:	f0000653          	fmv.w.x	fa2,zero
8000009c:	f00006d3          	fmv.w.x	fa3,zero
800000a0:	f0000753          	fmv.w.x	fa4,zero
800000a4:	f00007d3          	fmv.w.x	fa5,zero
800000a8:	f0000853          	fmv.w.x	fa6,zero
800000ac:	f00008d3          	fmv.w.x	fa7,zero
800000b0:	f0000953          	fmv.w.x	fs2,zero
800000b4:	f00009d3          	fmv.w.x	fs3,zero
800000b8:	f0000a53          	fmv.w.x	fs4,zero
800000bc:	f0000ad3          	fmv.w.x	fs5,zero
800000c0:	f0000b53          	fmv.w.x	fs6,zero
800000c4:	f0000bd3          	fmv.w.x	fs7,zero
800000c8:	f0000c53          	fmv.w.x	fs8,zero
800000cc:	f0000cd3          	fmv.w.x	fs9,zero
800000d0:	f0000d53          	fmv.w.x	fs10,zero
800000d4:	f0000dd3          	fmv.w.x	fs11,zero
800000d8:	f0000e53          	fmv.w.x	ft8,zero
800000dc:	f0000ed3          	fmv.w.x	ft9,zero
800000e0:	f0000f53          	fmv.w.x	ft10,zero
800000e4:	f0000fd3          	fmv.w.x	ft11,zero
800000e8:	00000297          	auipc	t0,0x0
800000ec:	03828293          	addi	t0,t0,56 # 80000120 <trap_entry>
800000f0:	30529073          	csrw	mtvec,t0
800000f4:	00003197          	auipc	gp,0x3
800000f8:	2b018193          	addi	gp,gp,688 # 800033a4 <__global_pointer$>
800000fc:	84f18213          	addi	tp,gp,-1969 # 80002bf3 <_end+0x3f>
80000100:	fc027213          	andi	tp,tp,-64
80000104:	f1402573          	csrr	a0,mhartid
80000108:	4585                	li	a1,1
8000010a:	00b57063          	bgeu	a0,a1,8000010a <_start+0x10a>
8000010e:	00c51613          	slli	a2,a0,0xc
80000112:	9232                	add	tp,tp,a2
80000114:	00150113          	addi	sp,a0,1
80000118:	0132                	slli	sp,sp,0xc
8000011a:	9112                	add	sp,sp,tp
8000011c:	2ac0106f          	j	800013c8 <_init>

80000120 <trap_entry>:
80000120:	716d                	addi	sp,sp,-272
80000122:	c206                	sw	ra,4(sp)
80000124:	c40a                	sw	sp,8(sp)
80000126:	c60e                	sw	gp,12(sp)
80000128:	c812                	sw	tp,16(sp)
8000012a:	ca16                	sw	t0,20(sp)
8000012c:	cc1a                	sw	t1,24(sp)
8000012e:	ce1e                	sw	t2,28(sp)
80000130:	d022                	sw	s0,32(sp)
80000132:	d226                	sw	s1,36(sp)
80000134:	d42a                	sw	a0,40(sp)
80000136:	d62e                	sw	a1,44(sp)
80000138:	d832                	sw	a2,48(sp)
8000013a:	da36                	sw	a3,52(sp)
8000013c:	dc3a                	sw	a4,56(sp)
8000013e:	de3e                	sw	a5,60(sp)
80000140:	c0c2                	sw	a6,64(sp)
80000142:	c2c6                	sw	a7,68(sp)
80000144:	c4ca                	sw	s2,72(sp)
80000146:	c6ce                	sw	s3,76(sp)
80000148:	c8d2                	sw	s4,80(sp)
8000014a:	cad6                	sw	s5,84(sp)
8000014c:	ccda                	sw	s6,88(sp)
8000014e:	cede                	sw	s7,92(sp)
80000150:	d0e2                	sw	s8,96(sp)
80000152:	d2e6                	sw	s9,100(sp)
80000154:	d4ea                	sw	s10,104(sp)
80000156:	d6ee                	sw	s11,108(sp)
80000158:	d8f2                	sw	t3,112(sp)
8000015a:	daf6                	sw	t4,116(sp)
8000015c:	dcfa                	sw	t5,120(sp)
8000015e:	defe                	sw	t6,124(sp)
80000160:	34202573          	csrr	a0,mcause
80000164:	341025f3          	csrr	a1,mepc
80000168:	860a                	mv	a2,sp
8000016a:	1ae010ef          	jal	ra,80001318 <handle_trap>
8000016e:	34151073          	csrw	mepc,a0
80000172:	000022b7          	lui	t0,0x2
80000176:	80028293          	addi	t0,t0,-2048 # 1800 <_tbss_end+0x1800>
8000017a:	3002a073          	csrs	mstatus,t0
8000017e:	4092                	lw	ra,4(sp)
80000180:	4122                	lw	sp,8(sp)
80000182:	41b2                	lw	gp,12(sp)
80000184:	4242                	lw	tp,16(sp)
80000186:	42d2                	lw	t0,20(sp)
80000188:	4362                	lw	t1,24(sp)
8000018a:	43f2                	lw	t2,28(sp)
8000018c:	5402                	lw	s0,32(sp)
8000018e:	5492                	lw	s1,36(sp)
80000190:	5522                	lw	a0,40(sp)
80000192:	55b2                	lw	a1,44(sp)
80000194:	5642                	lw	a2,48(sp)
80000196:	56d2                	lw	a3,52(sp)
80000198:	5762                	lw	a4,56(sp)
8000019a:	57f2                	lw	a5,60(sp)
8000019c:	4806                	lw	a6,64(sp)
8000019e:	4896                	lw	a7,68(sp)
800001a0:	4926                	lw	s2,72(sp)
800001a2:	49b6                	lw	s3,76(sp)
800001a4:	4a46                	lw	s4,80(sp)
800001a6:	4ad6                	lw	s5,84(sp)
800001a8:	4b66                	lw	s6,88(sp)
800001aa:	4bf6                	lw	s7,92(sp)
800001ac:	5c06                	lw	s8,96(sp)
800001ae:	5c96                	lw	s9,100(sp)
800001b0:	5d26                	lw	s10,104(sp)
800001b2:	5db6                	lw	s11,108(sp)
800001b4:	5e46                	lw	t3,112(sp)
800001b6:	5ed6                	lw	t4,116(sp)
800001b8:	5f66                	lw	t5,120(sp)
800001ba:	5ff6                	lw	t6,124(sp)
800001bc:	6151                	addi	sp,sp,272
800001be:	30200073          	mret

Disassembly of section .tohost:

80001000 <tohost>:
	...

80001040 <fromhost>:
	...

Disassembly of section .text:

80001048 <getchar>:
80001048:	1141                	addi	sp,sp,-16
8000104a:	c622                	sw	s0,12(sp)
8000104c:	0800                	addi	s0,sp,16
8000104e:	4581                	li	a1,0
80001050:	00011337          	lui	t1,0x11
80001054:	30030313          	addi	t1,t1,768 # 11300 <_tbss_end+0x11300>

80001058 <uart_statusr>:
80001058:	00c30383          	lb	t2,12(t1)
8000105c:	0083f393          	andi	t2,t2,8
80001060:	fe038ce3          	beqz	t2,80001058 <uart_statusr>
80001064:	00830503          	lb	a0,8(t1)
80001068:	0ff57793          	andi	a5,a0,255
8000106c:	853e                	mv	a0,a5
8000106e:	4432                	lw	s0,12(sp)
80001070:	0141                	addi	sp,sp,16
80001072:	8082                	ret

80001074 <main>:
80001074:	7179                	addi	sp,sp,-48
80001076:	d606                	sw	ra,44(sp)
80001078:	d422                	sw	s0,40(sp)
8000107a:	d24a                	sw	s2,36(sp)
8000107c:	d04e                	sw	s3,32(sp)
8000107e:	ce52                	sw	s4,28(sp)
80001080:	cc56                	sw	s5,24(sp)
80001082:	1800                	addi	s0,sp,48
80001084:	00001517          	auipc	a0,0x1
80001088:	7c850513          	addi	a0,a0,1992 # 8000284c <__umoddi3+0x352>
8000108c:	569000ef          	jal	ra,80001df4 <printf>
80001090:	3f65                	jal	80001048 <getchar>
80001092:	87aa                	mv	a5,a0
80001094:	fd078793          	addi	a5,a5,-48
80001098:	fcf42e23          	sw	a5,-36(s0)
8000109c:	fdc42583          	lw	a1,-36(s0)
800010a0:	00001517          	auipc	a0,0x1
800010a4:	7c050513          	addi	a0,a0,1984 # 80002860 <__umoddi3+0x366>
800010a8:	54d000ef          	jal	ra,80001df4 <printf>
800010ac:	3f71                	jal	80001048 <getchar>
800010ae:	87aa                	mv	a5,a0
800010b0:	fd078793          	addi	a5,a5,-48
800010b4:	fcf42c23          	sw	a5,-40(s0)
800010b8:	fd842583          	lw	a1,-40(s0)
800010bc:	00001517          	auipc	a0,0x1
800010c0:	7b050513          	addi	a0,a0,1968 # 8000286c <__umoddi3+0x372>
800010c4:	531000ef          	jal	ra,80001df4 <printf>
800010c8:	00001517          	auipc	a0,0x1
800010cc:	7b050513          	addi	a0,a0,1968 # 80002878 <__umoddi3+0x37e>
800010d0:	525000ef          	jal	ra,80001df4 <printf>
800010d4:	3f95                	jal	80001048 <getchar>
800010d6:	87aa                	mv	a5,a0
800010d8:	fd078793          	addi	a5,a5,-48
800010dc:	fcf42a23          	sw	a5,-44(s0)
800010e0:	fd442583          	lw	a1,-44(s0)
800010e4:	00001517          	auipc	a0,0x1
800010e8:	7cc50513          	addi	a0,a0,1996 # 800028b0 <__umoddi3+0x3b6>
800010ec:	509000ef          	jal	ra,80001df4 <printf>
800010f0:	fdc42903          	lw	s2,-36(s0)
800010f4:	fd842983          	lw	s3,-40(s0)
800010f8:	fd442a03          	lw	s4,-44(s0)
800010fc:	4b05                	li	s6,1
800010fe:	4b89                	li	s7,2
80001100:	4c0d                	li	s8,3
80001102:	4c91                	li	s9,4
80001104:	016a0863          	beq	s4,s6,80001114 <addlabel>
80001108:	017a0963          	beq	s4,s7,8000111a <sublabel>
8000110c:	018a0a63          	beq	s4,s8,80001120 <mullabel>
80001110:	019a0b63          	beq	s4,s9,80001126 <divlabel>

80001114 <addlabel>:
80001114:	01390ab3          	add	s5,s2,s3
80001118:	a811                	j	8000112c <end>

8000111a <sublabel>:
8000111a:	41390ab3          	sub	s5,s2,s3
8000111e:	a039                	j	8000112c <end>

80001120 <mullabel>:
80001120:	03390ab3          	mul	s5,s2,s3
80001124:	a021                	j	8000112c <end>

80001126 <divlabel>:
80001126:	03394ab3          	div	s5,s2,s3
8000112a:	a009                	j	8000112c <end>

8000112c <end>:
8000112c:	87d6                	mv	a5,s5
8000112e:	85be                	mv	a1,a5
80001130:	00001517          	auipc	a0,0x1
80001134:	78c50513          	addi	a0,a0,1932 # 800028bc <__umoddi3+0x3c2>
80001138:	4bd000ef          	jal	ra,80001df4 <printf>
8000113c:	4781                	li	a5,0
8000113e:	853e                	mv	a0,a5
80001140:	50b2                	lw	ra,44(sp)
80001142:	5422                	lw	s0,40(sp)
80001144:	5912                	lw	s2,36(sp)
80001146:	5982                	lw	s3,32(sp)
80001148:	4a72                	lw	s4,28(sp)
8000114a:	4ae2                	lw	s5,24(sp)
8000114c:	6145                	addi	sp,sp,48
8000114e:	8082                	ret

80001150 <syscall>:
80001150:	7171                	addi	sp,sp,-176
80001152:	d722                	sw	s0,172(sp)
80001154:	1900                	addi	s0,sp,176
80001156:	f6a42623          	sw	a0,-148(s0)
8000115a:	f6b42023          	sw	a1,-160(s0)
8000115e:	f6c42223          	sw	a2,-156(s0)
80001162:	f4d42c23          	sw	a3,-168(s0)
80001166:	f4e42e23          	sw	a4,-164(s0)
8000116a:	f4f42823          	sw	a5,-176(s0)
8000116e:	f5042a23          	sw	a6,-172(s0)
80001172:	ff040793          	addi	a5,s0,-16
80001176:	f8078793          	addi	a5,a5,-128
8000117a:	03f78793          	addi	a5,a5,63
8000117e:	8399                	srli	a5,a5,0x6
80001180:	079a                	slli	a5,a5,0x6
80001182:	f6c42703          	lw	a4,-148(s0)
80001186:	8e3a                	mv	t3,a4
80001188:	4e81                	li	t4,0
8000118a:	01c7a023          	sw	t3,0(a5)
8000118e:	01d7a223          	sw	t4,4(a5)
80001192:	f6042683          	lw	a3,-160(s0)
80001196:	f6442703          	lw	a4,-156(s0)
8000119a:	c794                	sw	a3,8(a5)
8000119c:	c7d8                	sw	a4,12(a5)
8000119e:	f5842683          	lw	a3,-168(s0)
800011a2:	f5c42703          	lw	a4,-164(s0)
800011a6:	cb94                	sw	a3,16(a5)
800011a8:	cbd8                	sw	a4,20(a5)
800011aa:	f5042683          	lw	a3,-176(s0)
800011ae:	f5442703          	lw	a4,-172(s0)
800011b2:	cf94                	sw	a3,24(a5)
800011b4:	cfd8                	sw	a4,28(a5)
800011b6:	873e                	mv	a4,a5
800011b8:	833a                	mv	t1,a4
800011ba:	4381                	li	t2,0
800011bc:	00000717          	auipc	a4,0x0
800011c0:	e4470713          	addi	a4,a4,-444 # 80001000 <tohost>
800011c4:	00672023          	sw	t1,0(a4)
800011c8:	00772223          	sw	t2,4(a4)
800011cc:	0001                	nop
800011ce:	00000717          	auipc	a4,0x0
800011d2:	e7270713          	addi	a4,a4,-398 # 80001040 <fromhost>
800011d6:	4310                	lw	a2,0(a4)
800011d8:	4354                	lw	a3,4(a4)
800011da:	8732                	mv	a4,a2
800011dc:	8f55                	or	a4,a4,a3
800011de:	db65                	beqz	a4,800011ce <syscall+0x7e>
800011e0:	0047a803          	lw	a6,4(a5)
800011e4:	439c                	lw	a5,0(a5)
800011e6:	853e                	mv	a0,a5
800011e8:	543a                	lw	s0,172(sp)
800011ea:	614d                	addi	sp,sp,176
800011ec:	8082                	ret

800011ee <setStats>:
800011ee:	7139                	addi	sp,sp,-64
800011f0:	de22                	sw	s0,60(sp)
800011f2:	0080                	addi	s0,sp,64
800011f4:	fca42623          	sw	a0,-52(s0)
800011f8:	fe042223          	sw	zero,-28(s0)
800011fc:	fe442703          	lw	a4,-28(s0)
80001200:	4785                	li	a5,1
80001202:	fee7cde3          	blt	a5,a4,800011fc <setStats+0xe>
80001206:	b00027f3          	csrr	a5,mcycle
8000120a:	fef42023          	sw	a5,-32(s0)
8000120e:	fe042783          	lw	a5,-32(s0)
80001212:	fef42623          	sw	a5,-20(s0)
80001216:	fcc42783          	lw	a5,-52(s0)
8000121a:	ef8d                	bnez	a5,80001254 <setStats+0x66>
8000121c:	00002717          	auipc	a4,0x2
80001220:	98870713          	addi	a4,a4,-1656 # 80002ba4 <counters>
80001224:	fe442783          	lw	a5,-28(s0)
80001228:	078a                	slli	a5,a5,0x2
8000122a:	97ba                	add	a5,a5,a4
8000122c:	439c                	lw	a5,0(a5)
8000122e:	fec42703          	lw	a4,-20(s0)
80001232:	40f707b3          	sub	a5,a4,a5
80001236:	fef42623          	sw	a5,-20(s0)
8000123a:	00002717          	auipc	a4,0x2
8000123e:	97270713          	addi	a4,a4,-1678 # 80002bac <counter_names>
80001242:	fe442783          	lw	a5,-28(s0)
80001246:	078a                	slli	a5,a5,0x2
80001248:	97ba                	add	a5,a5,a4
8000124a:	00001717          	auipc	a4,0x1
8000124e:	68670713          	addi	a4,a4,1670 # 800028d0 <__umoddi3+0x3d6>
80001252:	c398                	sw	a4,0(a5)
80001254:	fe442783          	lw	a5,-28(s0)
80001258:	00178713          	addi	a4,a5,1
8000125c:	fee42223          	sw	a4,-28(s0)
80001260:	00002717          	auipc	a4,0x2
80001264:	94470713          	addi	a4,a4,-1724 # 80002ba4 <counters>
80001268:	078a                	slli	a5,a5,0x2
8000126a:	97ba                	add	a5,a5,a4
8000126c:	fec42703          	lw	a4,-20(s0)
80001270:	c398                	sw	a4,0(a5)
80001272:	fe442703          	lw	a4,-28(s0)
80001276:	4785                	li	a5,1
80001278:	fee7cde3          	blt	a5,a4,80001272 <setStats+0x84>
8000127c:	b02027f3          	csrr	a5,minstret
80001280:	fcf42e23          	sw	a5,-36(s0)
80001284:	fdc42783          	lw	a5,-36(s0)
80001288:	fef42423          	sw	a5,-24(s0)
8000128c:	fcc42783          	lw	a5,-52(s0)
80001290:	ef8d                	bnez	a5,800012ca <setStats+0xdc>
80001292:	00002717          	auipc	a4,0x2
80001296:	91270713          	addi	a4,a4,-1774 # 80002ba4 <counters>
8000129a:	fe442783          	lw	a5,-28(s0)
8000129e:	078a                	slli	a5,a5,0x2
800012a0:	97ba                	add	a5,a5,a4
800012a2:	439c                	lw	a5,0(a5)
800012a4:	fe842703          	lw	a4,-24(s0)
800012a8:	40f707b3          	sub	a5,a4,a5
800012ac:	fef42423          	sw	a5,-24(s0)
800012b0:	00002717          	auipc	a4,0x2
800012b4:	8fc70713          	addi	a4,a4,-1796 # 80002bac <counter_names>
800012b8:	fe442783          	lw	a5,-28(s0)
800012bc:	078a                	slli	a5,a5,0x2
800012be:	97ba                	add	a5,a5,a4
800012c0:	00001717          	auipc	a4,0x1
800012c4:	61870713          	addi	a4,a4,1560 # 800028d8 <__umoddi3+0x3de>
800012c8:	c398                	sw	a4,0(a5)
800012ca:	fe442783          	lw	a5,-28(s0)
800012ce:	00178713          	addi	a4,a5,1
800012d2:	fee42223          	sw	a4,-28(s0)
800012d6:	00002717          	auipc	a4,0x2
800012da:	8ce70713          	addi	a4,a4,-1842 # 80002ba4 <counters>
800012de:	078a                	slli	a5,a5,0x2
800012e0:	97ba                	add	a5,a5,a4
800012e2:	fe842703          	lw	a4,-24(s0)
800012e6:	c398                	sw	a4,0(a5)
800012e8:	0001                	nop
800012ea:	5472                	lw	s0,60(sp)
800012ec:	6121                	addi	sp,sp,64
800012ee:	8082                	ret

800012f0 <tohost_exit>:
800012f0:	1101                	addi	sp,sp,-32
800012f2:	ce22                	sw	s0,28(sp)
800012f4:	1000                	addi	s0,sp,32
800012f6:	fea42623          	sw	a0,-20(s0)
800012fa:	fec42703          	lw	a4,-20(s0)
800012fe:	0706                	slli	a4,a4,0x1
80001300:	00176713          	ori	a4,a4,1
80001304:	87ba                	mv	a5,a4
80001306:	4801                	li	a6,0
80001308:	00000717          	auipc	a4,0x0
8000130c:	cf870713          	addi	a4,a4,-776 # 80001000 <tohost>
80001310:	c31c                	sw	a5,0(a4)
80001312:	01072223          	sw	a6,4(a4)
80001316:	a001                	j	80001316 <tohost_exit+0x26>

80001318 <handle_trap>:
80001318:	1101                	addi	sp,sp,-32
8000131a:	ce06                	sw	ra,28(sp)
8000131c:	cc22                	sw	s0,24(sp)
8000131e:	1000                	addi	s0,sp,32
80001320:	fea42623          	sw	a0,-20(s0)
80001324:	feb42423          	sw	a1,-24(s0)
80001328:	fec42223          	sw	a2,-28(s0)
8000132c:	53900513          	li	a0,1337
80001330:	37c1                	jal	800012f0 <tohost_exit>

80001332 <exit>:
80001332:	1101                	addi	sp,sp,-32
80001334:	ce06                	sw	ra,28(sp)
80001336:	cc22                	sw	s0,24(sp)
80001338:	1000                	addi	s0,sp,32
8000133a:	fea42623          	sw	a0,-20(s0)
8000133e:	fec42783          	lw	a5,-20(s0)
80001342:	853e                	mv	a0,a5
80001344:	3775                	jal	800012f0 <tohost_exit>

80001346 <abort>:
80001346:	1141                	addi	sp,sp,-16
80001348:	c606                	sw	ra,12(sp)
8000134a:	c422                	sw	s0,8(sp)
8000134c:	0800                	addi	s0,sp,16
8000134e:	08600513          	li	a0,134
80001352:	37c5                	jal	80001332 <exit>

80001354 <printstr>:
80001354:	7179                	addi	sp,sp,-48
80001356:	d606                	sw	ra,44(sp)
80001358:	d422                	sw	s0,40(sp)
8000135a:	d24a                	sw	s2,36(sp)
8000135c:	d04e                	sw	s3,32(sp)
8000135e:	ce52                	sw	s4,28(sp)
80001360:	cc56                	sw	s5,24(sp)
80001362:	1800                	addi	s0,sp,48
80001364:	fca42e23          	sw	a0,-36(s0)
80001368:	fdc42783          	lw	a5,-36(s0)
8000136c:	893e                	mv	s2,a5
8000136e:	4981                	li	s3,0
80001370:	fdc42503          	lw	a0,-36(s0)
80001374:	3e1000ef          	jal	ra,80001f54 <strlen>
80001378:	87aa                	mv	a5,a0
8000137a:	8a3e                	mv	s4,a5
8000137c:	4a81                	li	s5,0
8000137e:	87d2                	mv	a5,s4
80001380:	8856                	mv	a6,s5
80001382:	86ca                	mv	a3,s2
80001384:	874e                	mv	a4,s3
80001386:	4585                	li	a1,1
80001388:	4601                	li	a2,0
8000138a:	04000513          	li	a0,64
8000138e:	33c9                	jal	80001150 <syscall>
80001390:	0001                	nop
80001392:	50b2                	lw	ra,44(sp)
80001394:	5422                	lw	s0,40(sp)
80001396:	5912                	lw	s2,36(sp)
80001398:	5982                	lw	s3,32(sp)
8000139a:	4a72                	lw	s4,28(sp)
8000139c:	4ae2                	lw	s5,24(sp)
8000139e:	6145                	addi	sp,sp,48
800013a0:	8082                	ret
800013a2:	1101                	addi	sp,sp,-32
800013a4:	ce06                	sw	ra,28(sp)
800013a6:	cc22                	sw	s0,24(sp)
800013a8:	1000                	addi	s0,sp,32
800013aa:	fea42623          	sw	a0,-20(s0)
800013ae:	feb42423          	sw	a1,-24(s0)
800013b2:	00001517          	auipc	a0,0x1
800013b6:	53250513          	addi	a0,a0,1330 # 800028e4 <__umoddi3+0x3ea>
800013ba:	3f69                	jal	80001354 <printstr>
800013bc:	57fd                	li	a5,-1
800013be:	853e                	mv	a0,a5
800013c0:	40f2                	lw	ra,28(sp)
800013c2:	4462                	lw	s0,24(sp)
800013c4:	6105                	addi	sp,sp,32
800013c6:	8082                	ret

800013c8 <_init>:
800013c8:	7171                	addi	sp,sp,-176
800013ca:	d706                	sw	ra,172(sp)
800013cc:	d522                	sw	s0,168(sp)
800013ce:	d326                	sw	s1,164(sp)
800013d0:	1900                	addi	s0,sp,176
800013d2:	f4a42e23          	sw	a0,-164(s0)
800013d6:	f4b42c23          	sw	a1,-168(s0)
800013da:	ff040793          	addi	a5,s0,-16
800013de:	f7078793          	addi	a5,a5,-144
800013e2:	03f78793          	addi	a5,a5,63
800013e6:	8399                	srli	a5,a5,0x6
800013e8:	00679493          	slli	s1,a5,0x6
800013ec:	4581                	li	a1,0
800013ee:	4501                	li	a0,0
800013f0:	3151                	jal	80001074 <main>
800013f2:	fea42423          	sw	a0,-24(s0)
800013f6:	fe942223          	sw	s1,-28(s0)
800013fa:	fe042623          	sw	zero,-20(s0)
800013fe:	a891                	j	80001452 <_init+0x8a>
80001400:	00001717          	auipc	a4,0x1
80001404:	7a470713          	addi	a4,a4,1956 # 80002ba4 <counters>
80001408:	fec42783          	lw	a5,-20(s0)
8000140c:	078a                	slli	a5,a5,0x2
8000140e:	97ba                	add	a5,a5,a4
80001410:	439c                	lw	a5,0(a5)
80001412:	cb9d                	beqz	a5,80001448 <_init+0x80>
80001414:	00001717          	auipc	a4,0x1
80001418:	79870713          	addi	a4,a4,1944 # 80002bac <counter_names>
8000141c:	fec42783          	lw	a5,-20(s0)
80001420:	078a                	slli	a5,a5,0x2
80001422:	97ba                	add	a5,a5,a4
80001424:	4394                	lw	a3,0(a5)
80001426:	00001717          	auipc	a4,0x1
8000142a:	77e70713          	addi	a4,a4,1918 # 80002ba4 <counters>
8000142e:	fec42783          	lw	a5,-20(s0)
80001432:	078a                	slli	a5,a5,0x2
80001434:	97ba                	add	a5,a5,a4
80001436:	439c                	lw	a5,0(a5)
80001438:	863e                	mv	a2,a5
8000143a:	85b6                	mv	a1,a3
8000143c:	00001517          	auipc	a0,0x1
80001440:	4c050513          	addi	a0,a0,1216 # 800028fc <__umoddi3+0x402>
80001444:	1b1000ef          	jal	ra,80001df4 <printf>
80001448:	fec42783          	lw	a5,-20(s0)
8000144c:	0785                	addi	a5,a5,1
8000144e:	fef42623          	sw	a5,-20(s0)
80001452:	fec42703          	lw	a4,-20(s0)
80001456:	4785                	li	a5,1
80001458:	fae7d4e3          	bge	a5,a4,80001400 <_init+0x38>
8000145c:	fe842503          	lw	a0,-24(s0)
80001460:	3dc9                	jal	80001332 <exit>

80001462 <printhex>:
80001462:	7139                	addi	sp,sp,-64
80001464:	de06                	sw	ra,60(sp)
80001466:	dc22                	sw	s0,56(sp)
80001468:	0080                	addi	s0,sp,64
8000146a:	fca42423          	sw	a0,-56(s0)
8000146e:	fcb42623          	sw	a1,-52(s0)
80001472:	fe042623          	sw	zero,-20(s0)
80001476:	a89d                	j	800014ec <printhex+0x8a>
80001478:	fc844703          	lbu	a4,-56(s0)
8000147c:	8b3d                	andi	a4,a4,15
8000147e:	0ff77693          	andi	a3,a4,255
80001482:	fc842703          	lw	a4,-56(s0)
80001486:	00f77793          	andi	a5,a4,15
8000148a:	fcc42703          	lw	a4,-52(s0)
8000148e:	00077813          	andi	a6,a4,0
80001492:	8742                	mv	a4,a6
80001494:	eb11                	bnez	a4,800014a8 <printhex+0x46>
80001496:	8742                	mv	a4,a6
80001498:	e709                	bnez	a4,800014a2 <printhex+0x40>
8000149a:	863e                	mv	a2,a5
8000149c:	4725                	li	a4,9
8000149e:	00c76563          	bltu	a4,a2,800014a8 <printhex+0x46>
800014a2:	03000713          	li	a4,48
800014a6:	a019                	j	800014ac <printhex+0x4a>
800014a8:	05700713          	li	a4,87
800014ac:	45bd                	li	a1,15
800014ae:	fec42603          	lw	a2,-20(s0)
800014b2:	40c58633          	sub	a2,a1,a2
800014b6:	9736                	add	a4,a4,a3
800014b8:	0ff77693          	andi	a3,a4,255
800014bc:	ff040713          	addi	a4,s0,-16
800014c0:	9732                	add	a4,a4,a2
800014c2:	fed70423          	sb	a3,-24(a4)
800014c6:	fcc42703          	lw	a4,-52(s0)
800014ca:	0772                	slli	a4,a4,0x1c
800014cc:	fc842683          	lw	a3,-56(s0)
800014d0:	8291                	srli	a3,a3,0x4
800014d2:	8f55                	or	a4,a4,a3
800014d4:	fce42423          	sw	a4,-56(s0)
800014d8:	fcc42703          	lw	a4,-52(s0)
800014dc:	8311                	srli	a4,a4,0x4
800014de:	fce42623          	sw	a4,-52(s0)
800014e2:	fec42703          	lw	a4,-20(s0)
800014e6:	0705                	addi	a4,a4,1
800014e8:	fee42623          	sw	a4,-20(s0)
800014ec:	fec42683          	lw	a3,-20(s0)
800014f0:	473d                	li	a4,15
800014f2:	f8d753e3          	bge	a4,a3,80001478 <printhex+0x16>
800014f6:	fe040423          	sb	zero,-24(s0)
800014fa:	fd840793          	addi	a5,s0,-40
800014fe:	853e                	mv	a0,a5
80001500:	3d91                	jal	80001354 <printstr>
80001502:	0001                	nop
80001504:	50f2                	lw	ra,60(sp)
80001506:	5462                	lw	s0,56(sp)
80001508:	6121                	addi	sp,sp,64
8000150a:	8082                	ret

8000150c <printnum>:
8000150c:	714d                	addi	sp,sp,-336
8000150e:	14112623          	sw	ra,332(sp)
80001512:	14812423          	sw	s0,328(sp)
80001516:	15212223          	sw	s2,324(sp)
8000151a:	15312023          	sw	s3,320(sp)
8000151e:	13412e23          	sw	s4,316(sp)
80001522:	13512c23          	sw	s5,312(sp)
80001526:	13612a23          	sw	s6,308(sp)
8000152a:	13712823          	sw	s7,304(sp)
8000152e:	0a80                	addi	s0,sp,336
80001530:	eca42623          	sw	a0,-308(s0)
80001534:	ecb42423          	sw	a1,-312(s0)
80001538:	ecc42023          	sw	a2,-320(s0)
8000153c:	ecd42223          	sw	a3,-316(s0)
80001540:	eae42e23          	sw	a4,-324(s0)
80001544:	eaf42c23          	sw	a5,-328(s0)
80001548:	eb042a23          	sw	a6,-332(s0)
8000154c:	fc042e23          	sw	zero,-36(s0)
80001550:	ebc42783          	lw	a5,-324(s0)
80001554:	8b3e                	mv	s6,a5
80001556:	4b81                	li	s7,0
80001558:	ec042783          	lw	a5,-320(s0)
8000155c:	ec442803          	lw	a6,-316(s0)
80001560:	865a                	mv	a2,s6
80001562:	86de                	mv	a3,s7
80001564:	853e                	mv	a0,a5
80001566:	85c2                	mv	a1,a6
80001568:	793000ef          	jal	ra,800024fa <__umoddi3>
8000156c:	87aa                	mv	a5,a0
8000156e:	882e                	mv	a6,a1
80001570:	863e                	mv	a2,a5
80001572:	86c2                	mv	a3,a6
80001574:	fdc42783          	lw	a5,-36(s0)
80001578:	00178713          	addi	a4,a5,1
8000157c:	fce42e23          	sw	a4,-36(s0)
80001580:	8732                	mv	a4,a2
80001582:	078a                	slli	a5,a5,0x2
80001584:	fe040693          	addi	a3,s0,-32
80001588:	97b6                	add	a5,a5,a3
8000158a:	eee7ae23          	sw	a4,-260(a5)
8000158e:	ebc42783          	lw	a5,-324(s0)
80001592:	893e                	mv	s2,a5
80001594:	4981                	li	s3,0
80001596:	ec442783          	lw	a5,-316(s0)
8000159a:	874e                	mv	a4,s3
8000159c:	02e7ef63          	bltu	a5,a4,800015da <printnum+0xce>
800015a0:	ec442783          	lw	a5,-316(s0)
800015a4:	874e                	mv	a4,s3
800015a6:	00e79763          	bne	a5,a4,800015b4 <printnum+0xa8>
800015aa:	ec042783          	lw	a5,-320(s0)
800015ae:	874a                	mv	a4,s2
800015b0:	02e7e563          	bltu	a5,a4,800015da <printnum+0xce>
800015b4:	ebc42783          	lw	a5,-324(s0)
800015b8:	8a3e                	mv	s4,a5
800015ba:	4a81                	li	s5,0
800015bc:	8652                	mv	a2,s4
800015be:	86d6                	mv	a3,s5
800015c0:	ec042503          	lw	a0,-320(s0)
800015c4:	ec442583          	lw	a1,-316(s0)
800015c8:	3d5000ef          	jal	ra,8000219c <__udivdi3>
800015cc:	87aa                	mv	a5,a0
800015ce:	882e                	mv	a6,a1
800015d0:	ecf42023          	sw	a5,-320(s0)
800015d4:	ed042223          	sw	a6,-316(s0)
800015d8:	bfa5                	j	80001550 <printnum+0x44>
800015da:	0001                	nop
800015dc:	a801                	j	800015ec <printnum+0xe0>
800015de:	ecc42783          	lw	a5,-308(s0)
800015e2:	ec842583          	lw	a1,-312(s0)
800015e6:	eb442503          	lw	a0,-332(s0)
800015ea:	9782                	jalr	a5
800015ec:	eb842783          	lw	a5,-328(s0)
800015f0:	fff78713          	addi	a4,a5,-1
800015f4:	eae42c23          	sw	a4,-328(s0)
800015f8:	fdc42703          	lw	a4,-36(s0)
800015fc:	fef741e3          	blt	a4,a5,800015de <printnum+0xd2>
80001600:	a081                	j	80001640 <printnum+0x134>
80001602:	fdc42783          	lw	a5,-36(s0)
80001606:	078a                	slli	a5,a5,0x2
80001608:	fe040713          	addi	a4,s0,-32
8000160c:	97ba                	add	a5,a5,a4
8000160e:	efc7a703          	lw	a4,-260(a5)
80001612:	fdc42783          	lw	a5,-36(s0)
80001616:	078a                	slli	a5,a5,0x2
80001618:	fe040693          	addi	a3,s0,-32
8000161c:	97b6                	add	a5,a5,a3
8000161e:	efc7a683          	lw	a3,-260(a5)
80001622:	47a5                	li	a5,9
80001624:	00d7f563          	bgeu	a5,a3,8000162e <printnum+0x122>
80001628:	05700793          	li	a5,87
8000162c:	a019                	j	80001632 <printnum+0x126>
8000162e:	03000793          	li	a5,48
80001632:	97ba                	add	a5,a5,a4
80001634:	ecc42703          	lw	a4,-308(s0)
80001638:	ec842583          	lw	a1,-312(s0)
8000163c:	853e                	mv	a0,a5
8000163e:	9702                	jalr	a4
80001640:	fdc42783          	lw	a5,-36(s0)
80001644:	fff78713          	addi	a4,a5,-1
80001648:	fce42e23          	sw	a4,-36(s0)
8000164c:	faf04be3          	bgtz	a5,80001602 <printnum+0xf6>
80001650:	0001                	nop
80001652:	14c12083          	lw	ra,332(sp)
80001656:	14812403          	lw	s0,328(sp)
8000165a:	14412903          	lw	s2,324(sp)
8000165e:	14012983          	lw	s3,320(sp)
80001662:	13c12a03          	lw	s4,316(sp)
80001666:	13812a83          	lw	s5,312(sp)
8000166a:	13412b03          	lw	s6,308(sp)
8000166e:	13012b83          	lw	s7,304(sp)
80001672:	6171                	addi	sp,sp,336
80001674:	8082                	ret

80001676 <getuint>:
80001676:	1101                	addi	sp,sp,-32
80001678:	ce22                	sw	s0,28(sp)
8000167a:	1000                	addi	s0,sp,32
8000167c:	fea42623          	sw	a0,-20(s0)
80001680:	feb42423          	sw	a1,-24(s0)
80001684:	fe842683          	lw	a3,-24(s0)
80001688:	4705                	li	a4,1
8000168a:	02d75063          	bge	a4,a3,800016aa <getuint+0x34>
8000168e:	fec42783          	lw	a5,-20(s0)
80001692:	439c                	lw	a5,0(a5)
80001694:	079d                	addi	a5,a5,7
80001696:	9be1                	andi	a5,a5,-8
80001698:	00878693          	addi	a3,a5,8
8000169c:	fec42703          	lw	a4,-20(s0)
800016a0:	c314                	sw	a3,0(a4)
800016a2:	0047a803          	lw	a6,4(a5)
800016a6:	439c                	lw	a5,0(a5)
800016a8:	a81d                	j	800016de <getuint+0x68>
800016aa:	fe842703          	lw	a4,-24(s0)
800016ae:	cf09                	beqz	a4,800016c8 <getuint+0x52>
800016b0:	fec42703          	lw	a4,-20(s0)
800016b4:	4318                	lw	a4,0(a4)
800016b6:	00470613          	addi	a2,a4,4
800016ba:	fec42683          	lw	a3,-20(s0)
800016be:	c290                	sw	a2,0(a3)
800016c0:	4318                	lw	a4,0(a4)
800016c2:	87ba                	mv	a5,a4
800016c4:	4801                	li	a6,0
800016c6:	a821                	j	800016de <getuint+0x68>
800016c8:	fec42703          	lw	a4,-20(s0)
800016cc:	4318                	lw	a4,0(a4)
800016ce:	00470613          	addi	a2,a4,4
800016d2:	fec42683          	lw	a3,-20(s0)
800016d6:	c290                	sw	a2,0(a3)
800016d8:	4318                	lw	a4,0(a4)
800016da:	87ba                	mv	a5,a4
800016dc:	4801                	li	a6,0
800016de:	853e                	mv	a0,a5
800016e0:	85c2                	mv	a1,a6
800016e2:	4472                	lw	s0,28(sp)
800016e4:	6105                	addi	sp,sp,32
800016e6:	8082                	ret

800016e8 <getint>:
800016e8:	1101                	addi	sp,sp,-32
800016ea:	ce22                	sw	s0,28(sp)
800016ec:	1000                	addi	s0,sp,32
800016ee:	fea42623          	sw	a0,-20(s0)
800016f2:	feb42423          	sw	a1,-24(s0)
800016f6:	fe842683          	lw	a3,-24(s0)
800016fa:	4705                	li	a4,1
800016fc:	02d75063          	bge	a4,a3,8000171c <getint+0x34>
80001700:	fec42783          	lw	a5,-20(s0)
80001704:	439c                	lw	a5,0(a5)
80001706:	079d                	addi	a5,a5,7
80001708:	9be1                	andi	a5,a5,-8
8000170a:	00878693          	addi	a3,a5,8
8000170e:	fec42703          	lw	a4,-20(s0)
80001712:	c314                	sw	a3,0(a4)
80001714:	0047a803          	lw	a6,4(a5)
80001718:	439c                	lw	a5,0(a5)
8000171a:	a82d                	j	80001754 <getint+0x6c>
8000171c:	fe842703          	lw	a4,-24(s0)
80001720:	cf11                	beqz	a4,8000173c <getint+0x54>
80001722:	fec42703          	lw	a4,-20(s0)
80001726:	4318                	lw	a4,0(a4)
80001728:	00470613          	addi	a2,a4,4
8000172c:	fec42683          	lw	a3,-20(s0)
80001730:	c290                	sw	a2,0(a3)
80001732:	4318                	lw	a4,0(a4)
80001734:	87ba                	mv	a5,a4
80001736:	877d                	srai	a4,a4,0x1f
80001738:	883a                	mv	a6,a4
8000173a:	a829                	j	80001754 <getint+0x6c>
8000173c:	fec42703          	lw	a4,-20(s0)
80001740:	4318                	lw	a4,0(a4)
80001742:	00470613          	addi	a2,a4,4
80001746:	fec42683          	lw	a3,-20(s0)
8000174a:	c290                	sw	a2,0(a3)
8000174c:	4318                	lw	a4,0(a4)
8000174e:	87ba                	mv	a5,a4
80001750:	877d                	srai	a4,a4,0x1f
80001752:	883a                	mv	a6,a4
80001754:	853e                	mv	a0,a5
80001756:	85c2                	mv	a1,a6
80001758:	4472                	lw	s0,28(sp)
8000175a:	6105                	addi	sp,sp,32
8000175c:	8082                	ret

8000175e <pow_10>:
8000175e:	7179                	addi	sp,sp,-48
80001760:	d622                	sw	s0,44(sp)
80001762:	1800                	addi	s0,sp,48
80001764:	fca42e23          	sw	a0,-36(s0)
80001768:	fe042423          	sw	zero,-24(s0)
8000176c:	a819                	j	80001782 <pow_10+0x24>
8000176e:	fec42783          	lw	a5,-20(s0)
80001772:	07a9                	addi	a5,a5,10
80001774:	fef42623          	sw	a5,-20(s0)
80001778:	fe842783          	lw	a5,-24(s0)
8000177c:	0785                	addi	a5,a5,1
8000177e:	fef42423          	sw	a5,-24(s0)
80001782:	fe842703          	lw	a4,-24(s0)
80001786:	fdc42783          	lw	a5,-36(s0)
8000178a:	fef762e3          	bltu	a4,a5,8000176e <pow_10+0x10>
8000178e:	fec42783          	lw	a5,-20(s0)
80001792:	d017f7d3          	fcvt.s.wu	fa5,a5
80001796:	e0078553          	fmv.x.w	a0,fa5
8000179a:	5432                	lw	s0,44(sp)
8000179c:	6145                	addi	sp,sp,48
8000179e:	8082                	ret

800017a0 <reverse>:
800017a0:	7179                	addi	sp,sp,-48
800017a2:	d622                	sw	s0,44(sp)
800017a4:	1800                	addi	s0,sp,48
800017a6:	fca42e23          	sw	a0,-36(s0)
800017aa:	fcb42c23          	sw	a1,-40(s0)
800017ae:	fe042623          	sw	zero,-20(s0)
800017b2:	fd842783          	lw	a5,-40(s0)
800017b6:	17fd                	addi	a5,a5,-1
800017b8:	fef42423          	sw	a5,-24(s0)
800017bc:	a8a9                	j	80001816 <reverse+0x76>
800017be:	fec42783          	lw	a5,-20(s0)
800017c2:	fdc42703          	lw	a4,-36(s0)
800017c6:	97ba                	add	a5,a5,a4
800017c8:	0007c783          	lbu	a5,0(a5)
800017cc:	fef42223          	sw	a5,-28(s0)
800017d0:	fe842783          	lw	a5,-24(s0)
800017d4:	fdc42703          	lw	a4,-36(s0)
800017d8:	973e                	add	a4,a4,a5
800017da:	fec42783          	lw	a5,-20(s0)
800017de:	fdc42683          	lw	a3,-36(s0)
800017e2:	97b6                	add	a5,a5,a3
800017e4:	00074703          	lbu	a4,0(a4)
800017e8:	00e78023          	sb	a4,0(a5)
800017ec:	fe842783          	lw	a5,-24(s0)
800017f0:	fdc42703          	lw	a4,-36(s0)
800017f4:	97ba                	add	a5,a5,a4
800017f6:	fe442703          	lw	a4,-28(s0)
800017fa:	0ff77713          	andi	a4,a4,255
800017fe:	00e78023          	sb	a4,0(a5)
80001802:	fec42783          	lw	a5,-20(s0)
80001806:	0785                	addi	a5,a5,1
80001808:	fef42623          	sw	a5,-20(s0)
8000180c:	fe842783          	lw	a5,-24(s0)
80001810:	17fd                	addi	a5,a5,-1
80001812:	fef42423          	sw	a5,-24(s0)
80001816:	fec42703          	lw	a4,-20(s0)
8000181a:	fe842783          	lw	a5,-24(s0)
8000181e:	faf740e3          	blt	a4,a5,800017be <reverse+0x1e>
80001822:	0001                	nop
80001824:	5432                	lw	s0,44(sp)
80001826:	6145                	addi	sp,sp,48
80001828:	8082                	ret

8000182a <intToStr>:
8000182a:	7179                	addi	sp,sp,-48
8000182c:	d606                	sw	ra,44(sp)
8000182e:	d422                	sw	s0,40(sp)
80001830:	1800                	addi	s0,sp,48
80001832:	fca42e23          	sw	a0,-36(s0)
80001836:	fcb42c23          	sw	a1,-40(s0)
8000183a:	fcc42a23          	sw	a2,-44(s0)
8000183e:	fe042623          	sw	zero,-20(s0)
80001842:	a83d                	j	80001880 <intToStr+0x56>
80001844:	fdc42703          	lw	a4,-36(s0)
80001848:	47a9                	li	a5,10
8000184a:	02f767b3          	rem	a5,a4,a5
8000184e:	0ff7f713          	andi	a4,a5,255
80001852:	fec42783          	lw	a5,-20(s0)
80001856:	00178693          	addi	a3,a5,1
8000185a:	fed42623          	sw	a3,-20(s0)
8000185e:	86be                	mv	a3,a5
80001860:	fd842783          	lw	a5,-40(s0)
80001864:	97b6                	add	a5,a5,a3
80001866:	03070713          	addi	a4,a4,48
8000186a:	0ff77713          	andi	a4,a4,255
8000186e:	00e78023          	sb	a4,0(a5)
80001872:	fdc42703          	lw	a4,-36(s0)
80001876:	47a9                	li	a5,10
80001878:	02f747b3          	div	a5,a4,a5
8000187c:	fcf42e23          	sw	a5,-36(s0)
80001880:	fdc42783          	lw	a5,-36(s0)
80001884:	f3e1                	bnez	a5,80001844 <intToStr+0x1a>
80001886:	a839                	j	800018a4 <intToStr+0x7a>
80001888:	fec42783          	lw	a5,-20(s0)
8000188c:	00178713          	addi	a4,a5,1
80001890:	fee42623          	sw	a4,-20(s0)
80001894:	873e                	mv	a4,a5
80001896:	fd842783          	lw	a5,-40(s0)
8000189a:	97ba                	add	a5,a5,a4
8000189c:	03000713          	li	a4,48
800018a0:	00e78023          	sb	a4,0(a5)
800018a4:	fec42703          	lw	a4,-20(s0)
800018a8:	fd442783          	lw	a5,-44(s0)
800018ac:	fcf74ee3          	blt	a4,a5,80001888 <intToStr+0x5e>
800018b0:	fec42583          	lw	a1,-20(s0)
800018b4:	fd842503          	lw	a0,-40(s0)
800018b8:	35e5                	jal	800017a0 <reverse>
800018ba:	fec42783          	lw	a5,-20(s0)
800018be:	fd842703          	lw	a4,-40(s0)
800018c2:	97ba                	add	a5,a5,a4
800018c4:	00078023          	sb	zero,0(a5)
800018c8:	fec42783          	lw	a5,-20(s0)
800018cc:	853e                	mv	a0,a5
800018ce:	50b2                	lw	ra,44(sp)
800018d0:	5422                	lw	s0,40(sp)
800018d2:	6145                	addi	sp,sp,48
800018d4:	8082                	ret

800018d6 <ftoa>:
800018d6:	715d                	addi	sp,sp,-80
800018d8:	c686                	sw	ra,76(sp)
800018da:	c4a2                	sw	s0,72(sp)
800018dc:	0880                	addi	s0,sp,80
800018de:	faa42e23          	sw	a0,-68(s0)
800018e2:	fab42c23          	sw	a1,-72(s0)
800018e6:	fac42a23          	sw	a2,-76(s0)
800018ea:	fe042623          	sw	zero,-20(s0)
800018ee:	fc042023          	sw	zero,-64(s0)
800018f2:	fc042223          	sw	zero,-60(s0)
800018f6:	fc042423          	sw	zero,-56(s0)
800018fa:	fc042623          	sw	zero,-52(s0)
800018fe:	fc042823          	sw	zero,-48(s0)
80001902:	fc042a23          	sw	zero,-44(s0)
80001906:	fc042c23          	sw	zero,-40(s0)
8000190a:	fc041e23          	sh	zero,-36(s0)
8000190e:	fbc42787          	flw	fa5,-68(s0)
80001912:	c00797d3          	fcvt.w.s	a5,fa5,rtz
80001916:	fef42423          	sw	a5,-24(s0)
8000191a:	fe842783          	lw	a5,-24(s0)
8000191e:	d007f7d3          	fcvt.s.w	fa5,a5
80001922:	fbc42707          	flw	fa4,-68(s0)
80001926:	08f777d3          	fsub.s	fa5,fa4,fa5
8000192a:	fef42227          	fsw	fa5,-28(s0)
8000192e:	fe042023          	sw	zero,-32(s0)
80001932:	fbc42787          	flw	fa5,-68(s0)
80001936:	f0000753          	fmv.w.x	fa4,zero
8000193a:	a0e797d3          	flt.s	a5,fa5,fa4
8000193e:	cf89                	beqz	a5,80001958 <ftoa+0x82>
80001940:	fe042783          	lw	a5,-32(s0)
80001944:	fb842703          	lw	a4,-72(s0)
80001948:	97ba                	add	a5,a5,a4
8000194a:	02d00713          	li	a4,45
8000194e:	00e78023          	sb	a4,0(a5)
80001952:	4785                	li	a5,1
80001954:	fef42023          	sw	a5,-32(s0)
80001958:	fe842783          	lw	a5,-24(s0)
8000195c:	e385                	bnez	a5,8000197c <ftoa+0xa6>
8000195e:	fe042783          	lw	a5,-32(s0)
80001962:	fb842703          	lw	a4,-72(s0)
80001966:	97ba                	add	a5,a5,a4
80001968:	03000713          	li	a4,48
8000196c:	00e78023          	sb	a4,0(a5)
80001970:	fe042783          	lw	a5,-32(s0)
80001974:	0785                	addi	a5,a5,1
80001976:	fef42023          	sw	a5,-32(s0)
8000197a:	a835                	j	800019b6 <ftoa+0xe0>
8000197c:	fe842783          	lw	a5,-24(s0)
80001980:	0007d863          	bgez	a5,80001990 <ftoa+0xba>
80001984:	fe842783          	lw	a5,-24(s0)
80001988:	40f007b3          	neg	a5,a5
8000198c:	fef42423          	sw	a5,-24(s0)
80001990:	fc040793          	addi	a5,s0,-64
80001994:	4601                	li	a2,0
80001996:	85be                	mv	a1,a5
80001998:	fe842503          	lw	a0,-24(s0)
8000199c:	3579                	jal	8000182a <intToStr>
8000199e:	fea42623          	sw	a0,-20(s0)
800019a2:	fe042783          	lw	a5,-32(s0)
800019a6:	fb842703          	lw	a4,-72(s0)
800019aa:	97ba                	add	a5,a5,a4
800019ac:	fc040713          	addi	a4,s0,-64
800019b0:	85ba                	mv	a1,a4
800019b2:	853e                	mv	a0,a5
800019b4:	2559                	jal	8000203a <strcpy>
800019b6:	fec42703          	lw	a4,-20(s0)
800019ba:	fe042783          	lw	a5,-32(s0)
800019be:	97ba                	add	a5,a5,a4
800019c0:	fef42623          	sw	a5,-20(s0)
800019c4:	fb442783          	lw	a5,-76(s0)
800019c8:	c3b5                	beqz	a5,80001a2c <ftoa+0x156>
800019ca:	fec42783          	lw	a5,-20(s0)
800019ce:	fb842703          	lw	a4,-72(s0)
800019d2:	97ba                	add	a5,a5,a4
800019d4:	02e00713          	li	a4,46
800019d8:	00e78023          	sb	a4,0(a5)
800019dc:	fe442787          	flw	fa5,-28(s0)
800019e0:	f0000753          	fmv.w.x	fa4,zero
800019e4:	a0e797d3          	flt.s	a5,fa5,fa4
800019e8:	c799                	beqz	a5,800019f6 <ftoa+0x120>
800019ea:	fe442787          	flw	fa5,-28(s0)
800019ee:	20f797d3          	fneg.s	fa5,fa5
800019f2:	fef42227          	fsw	fa5,-28(s0)
800019f6:	fb442783          	lw	a5,-76(s0)
800019fa:	853e                	mv	a0,a5
800019fc:	338d                	jal	8000175e <pow_10>
800019fe:	f0050753          	fmv.w.x	fa4,a0
80001a02:	fe442787          	flw	fa5,-28(s0)
80001a06:	10e7f7d3          	fmul.s	fa5,fa5,fa4
80001a0a:	fef42227          	fsw	fa5,-28(s0)
80001a0e:	fe442787          	flw	fa5,-28(s0)
80001a12:	c00796d3          	fcvt.w.s	a3,fa5,rtz
80001a16:	fec42783          	lw	a5,-20(s0)
80001a1a:	0785                	addi	a5,a5,1
80001a1c:	fb842703          	lw	a4,-72(s0)
80001a20:	97ba                	add	a5,a5,a4
80001a22:	fb442603          	lw	a2,-76(s0)
80001a26:	85be                	mv	a1,a5
80001a28:	8536                	mv	a0,a3
80001a2a:	3501                	jal	8000182a <intToStr>
80001a2c:	0001                	nop
80001a2e:	40b6                	lw	ra,76(sp)
80001a30:	4426                	lw	s0,72(sp)
80001a32:	6161                	addi	sp,sp,80
80001a34:	8082                	ret

80001a36 <vprintfmt>:
80001a36:	7159                	addi	sp,sp,-112
80001a38:	d686                	sw	ra,108(sp)
80001a3a:	d4a2                	sw	s0,104(sp)
80001a3c:	d2a6                	sw	s1,100(sp)
80001a3e:	d0ca                	sw	s2,96(sp)
80001a40:	1880                	addi	s0,sp,112
80001a42:	f8a42e23          	sw	a0,-100(s0)
80001a46:	f8b42c23          	sw	a1,-104(s0)
80001a4a:	f8c42a23          	sw	a2,-108(s0)
80001a4e:	f8d42823          	sw	a3,-112(s0)
80001a52:	fc042623          	sw	zero,-52(s0)
80001a56:	fa042223          	sw	zero,-92(s0)
80001a5a:	fa042423          	sw	zero,-88(s0)
80001a5e:	fa042623          	sw	zero,-84(s0)
80001a62:	fa042823          	sw	zero,-80(s0)
80001a66:	fa042a23          	sw	zero,-76(s0)
80001a6a:	fa042c23          	sw	zero,-72(s0)
80001a6e:	fa042e23          	sw	zero,-68(s0)
80001a72:	fc041023          	sh	zero,-64(s0)
80001a76:	a831                	j	80001a92 <vprintfmt+0x5c>
80001a78:	36048763          	beqz	s1,80001de6 <vprintfmt+0x3b0>
80001a7c:	f9442783          	lw	a5,-108(s0)
80001a80:	0785                	addi	a5,a5,1
80001a82:	f8f42a23          	sw	a5,-108(s0)
80001a86:	f9c42783          	lw	a5,-100(s0)
80001a8a:	f9842583          	lw	a1,-104(s0)
80001a8e:	8526                	mv	a0,s1
80001a90:	9782                	jalr	a5
80001a92:	f9442783          	lw	a5,-108(s0)
80001a96:	0007c783          	lbu	a5,0(a5)
80001a9a:	84be                	mv	s1,a5
80001a9c:	02500793          	li	a5,37
80001aa0:	fcf49ce3          	bne	s1,a5,80001a78 <vprintfmt+0x42>
80001aa4:	f9442783          	lw	a5,-108(s0)
80001aa8:	0785                	addi	a5,a5,1
80001aaa:	f8f42a23          	sw	a5,-108(s0)
80001aae:	f9442783          	lw	a5,-108(s0)
80001ab2:	fcf42423          	sw	a5,-56(s0)
80001ab6:	02000793          	li	a5,32
80001aba:	fcf409a3          	sb	a5,-45(s0)
80001abe:	57fd                	li	a5,-1
80001ac0:	fcf42e23          	sw	a5,-36(s0)
80001ac4:	57fd                	li	a5,-1
80001ac6:	fcf42c23          	sw	a5,-40(s0)
80001aca:	fe042023          	sw	zero,-32(s0)
80001ace:	fc042223          	sw	zero,-60(s0)
80001ad2:	f9442783          	lw	a5,-108(s0)
80001ad6:	00178713          	addi	a4,a5,1
80001ada:	f8e42a23          	sw	a4,-108(s0)
80001ade:	0007c783          	lbu	a5,0(a5)
80001ae2:	84be                	mv	s1,a5
80001ae4:	fdd48793          	addi	a5,s1,-35
80001ae8:	05500713          	li	a4,85
80001aec:	2ef76063          	bltu	a4,a5,80001dcc <vprintfmt+0x396>
80001af0:	00279713          	slli	a4,a5,0x2
80001af4:	00001797          	auipc	a5,0x1
80001af8:	e1c78793          	addi	a5,a5,-484 # 80002910 <__umoddi3+0x416>
80001afc:	97ba                	add	a5,a5,a4
80001afe:	4398                	lw	a4,0(a5)
80001b00:	00001797          	auipc	a5,0x1
80001b04:	e1078793          	addi	a5,a5,-496 # 80002910 <__umoddi3+0x416>
80001b08:	97ba                	add	a5,a5,a4
80001b0a:	8782                	jr	a5
80001b0c:	02d00793          	li	a5,45
80001b10:	fcf409a3          	sb	a5,-45(s0)
80001b14:	bf7d                	j	80001ad2 <vprintfmt+0x9c>
80001b16:	03000793          	li	a5,48
80001b1a:	fcf409a3          	sb	a5,-45(s0)
80001b1e:	bf55                	j	80001ad2 <vprintfmt+0x9c>
80001b20:	fc042c23          	sw	zero,-40(s0)
80001b24:	fd842703          	lw	a4,-40(s0)
80001b28:	87ba                	mv	a5,a4
80001b2a:	078a                	slli	a5,a5,0x2
80001b2c:	97ba                	add	a5,a5,a4
80001b2e:	0786                	slli	a5,a5,0x1
80001b30:	97a6                	add	a5,a5,s1
80001b32:	fd078793          	addi	a5,a5,-48
80001b36:	fcf42c23          	sw	a5,-40(s0)
80001b3a:	f9442783          	lw	a5,-108(s0)
80001b3e:	0007c783          	lbu	a5,0(a5)
80001b42:	84be                	mv	s1,a5
80001b44:	02f00793          	li	a5,47
80001b48:	0497d163          	bge	a5,s1,80001b8a <vprintfmt+0x154>
80001b4c:	03900793          	li	a5,57
80001b50:	0297cd63          	blt	a5,s1,80001b8a <vprintfmt+0x154>
80001b54:	f9442783          	lw	a5,-108(s0)
80001b58:	0785                	addi	a5,a5,1
80001b5a:	f8f42a23          	sw	a5,-108(s0)
80001b5e:	b7d9                	j	80001b24 <vprintfmt+0xee>
80001b60:	f9042783          	lw	a5,-112(s0)
80001b64:	00478713          	addi	a4,a5,4
80001b68:	f8e42823          	sw	a4,-112(s0)
80001b6c:	439c                	lw	a5,0(a5)
80001b6e:	fcf42c23          	sw	a5,-40(s0)
80001b72:	a829                	j	80001b8c <vprintfmt+0x156>
80001b74:	fdc42783          	lw	a5,-36(s0)
80001b78:	f407dde3          	bgez	a5,80001ad2 <vprintfmt+0x9c>
80001b7c:	fc042e23          	sw	zero,-36(s0)
80001b80:	bf89                	j	80001ad2 <vprintfmt+0x9c>
80001b82:	4785                	li	a5,1
80001b84:	fcf42223          	sw	a5,-60(s0)
80001b88:	b7a9                	j	80001ad2 <vprintfmt+0x9c>
80001b8a:	0001                	nop
80001b8c:	fdc42783          	lw	a5,-36(s0)
80001b90:	f407d1e3          	bgez	a5,80001ad2 <vprintfmt+0x9c>
80001b94:	fd842783          	lw	a5,-40(s0)
80001b98:	fcf42e23          	sw	a5,-36(s0)
80001b9c:	57fd                	li	a5,-1
80001b9e:	fcf42c23          	sw	a5,-40(s0)
80001ba2:	bf05                	j	80001ad2 <vprintfmt+0x9c>
80001ba4:	fe042783          	lw	a5,-32(s0)
80001ba8:	0785                	addi	a5,a5,1
80001baa:	fef42023          	sw	a5,-32(s0)
80001bae:	b715                	j	80001ad2 <vprintfmt+0x9c>
80001bb0:	f9042783          	lw	a5,-112(s0)
80001bb4:	00478713          	addi	a4,a5,4
80001bb8:	f8e42823          	sw	a4,-112(s0)
80001bbc:	439c                	lw	a5,0(a5)
80001bbe:	f9c42703          	lw	a4,-100(s0)
80001bc2:	f9842583          	lw	a1,-104(s0)
80001bc6:	853e                	mv	a0,a5
80001bc8:	9702                	jalr	a4
80001bca:	ac29                	j	80001de4 <vprintfmt+0x3ae>
80001bcc:	f9042783          	lw	a5,-112(s0)
80001bd0:	00478713          	addi	a4,a5,4
80001bd4:	f8e42823          	sw	a4,-112(s0)
80001bd8:	0007a903          	lw	s2,0(a5)
80001bdc:	00091663          	bnez	s2,80001be8 <vprintfmt+0x1b2>
80001be0:	00001917          	auipc	s2,0x1
80001be4:	d2890913          	addi	s2,s2,-728 # 80002908 <__umoddi3+0x40e>
80001be8:	fdc42783          	lw	a5,-36(s0)
80001bec:	06f05263          	blez	a5,80001c50 <vprintfmt+0x21a>
80001bf0:	fd344703          	lbu	a4,-45(s0)
80001bf4:	02d00793          	li	a5,45
80001bf8:	04f70c63          	beq	a4,a5,80001c50 <vprintfmt+0x21a>
80001bfc:	fd842783          	lw	a5,-40(s0)
80001c00:	85be                	mv	a1,a5
80001c02:	854a                	mv	a0,s2
80001c04:	2671                	jal	80001f90 <strnlen>
80001c06:	872a                	mv	a4,a0
80001c08:	fdc42783          	lw	a5,-36(s0)
80001c0c:	8f99                	sub	a5,a5,a4
80001c0e:	fcf42e23          	sw	a5,-36(s0)
80001c12:	a831                	j	80001c2e <vprintfmt+0x1f8>
80001c14:	fd344783          	lbu	a5,-45(s0)
80001c18:	f9c42703          	lw	a4,-100(s0)
80001c1c:	f9842583          	lw	a1,-104(s0)
80001c20:	853e                	mv	a0,a5
80001c22:	9702                	jalr	a4
80001c24:	fdc42783          	lw	a5,-36(s0)
80001c28:	17fd                	addi	a5,a5,-1
80001c2a:	fcf42e23          	sw	a5,-36(s0)
80001c2e:	fdc42783          	lw	a5,-36(s0)
80001c32:	fef041e3          	bgtz	a5,80001c14 <vprintfmt+0x1de>
80001c36:	a829                	j	80001c50 <vprintfmt+0x21a>
80001c38:	f9c42783          	lw	a5,-100(s0)
80001c3c:	f9842583          	lw	a1,-104(s0)
80001c40:	8526                	mv	a0,s1
80001c42:	9782                	jalr	a5
80001c44:	0905                	addi	s2,s2,1
80001c46:	fdc42783          	lw	a5,-36(s0)
80001c4a:	17fd                	addi	a5,a5,-1
80001c4c:	fcf42e23          	sw	a5,-36(s0)
80001c50:	00094783          	lbu	a5,0(s2)
80001c54:	84be                	mv	s1,a5
80001c56:	c89d                	beqz	s1,80001c8c <vprintfmt+0x256>
80001c58:	fd842783          	lw	a5,-40(s0)
80001c5c:	fc07cee3          	bltz	a5,80001c38 <vprintfmt+0x202>
80001c60:	fd842783          	lw	a5,-40(s0)
80001c64:	17fd                	addi	a5,a5,-1
80001c66:	fcf42c23          	sw	a5,-40(s0)
80001c6a:	fd842783          	lw	a5,-40(s0)
80001c6e:	fc07d5e3          	bgez	a5,80001c38 <vprintfmt+0x202>
80001c72:	a829                	j	80001c8c <vprintfmt+0x256>
80001c74:	f9c42783          	lw	a5,-100(s0)
80001c78:	f9842583          	lw	a1,-104(s0)
80001c7c:	02000513          	li	a0,32
80001c80:	9782                	jalr	a5
80001c82:	fdc42783          	lw	a5,-36(s0)
80001c86:	17fd                	addi	a5,a5,-1
80001c88:	fcf42e23          	sw	a5,-36(s0)
80001c8c:	fdc42783          	lw	a5,-36(s0)
80001c90:	fef042e3          	bgtz	a5,80001c74 <vprintfmt+0x23e>
80001c94:	aa81                	j	80001de4 <vprintfmt+0x3ae>
80001c96:	f9040793          	addi	a5,s0,-112
80001c9a:	fe042583          	lw	a1,-32(s0)
80001c9e:	853e                	mv	a0,a5
80001ca0:	34a1                	jal	800016e8 <getint>
80001ca2:	87aa                	mv	a5,a0
80001ca4:	882e                	mv	a6,a1
80001ca6:	fef42423          	sw	a5,-24(s0)
80001caa:	ff042623          	sw	a6,-20(s0)
80001cae:	fe842783          	lw	a5,-24(s0)
80001cb2:	fec42803          	lw	a6,-20(s0)
80001cb6:	87c2                	mv	a5,a6
80001cb8:	0207df63          	bgez	a5,80001cf6 <vprintfmt+0x2c0>
80001cbc:	f9c42783          	lw	a5,-100(s0)
80001cc0:	f9842583          	lw	a1,-104(s0)
80001cc4:	02d00513          	li	a0,45
80001cc8:	9782                	jalr	a5
80001cca:	fe842583          	lw	a1,-24(s0)
80001cce:	fec42603          	lw	a2,-20(s0)
80001cd2:	4781                	li	a5,0
80001cd4:	4801                	li	a6,0
80001cd6:	40b786b3          	sub	a3,a5,a1
80001cda:	8536                	mv	a0,a3
80001cdc:	00a7b533          	sltu	a0,a5,a0
80001ce0:	40c80733          	sub	a4,a6,a2
80001ce4:	40a707b3          	sub	a5,a4,a0
80001ce8:	873e                	mv	a4,a5
80001cea:	87b6                	mv	a5,a3
80001cec:	883a                	mv	a6,a4
80001cee:	fef42423          	sw	a5,-24(s0)
80001cf2:	ff042623          	sw	a6,-20(s0)
80001cf6:	47a9                	li	a5,10
80001cf8:	fef42223          	sw	a5,-28(s0)
80001cfc:	a879                	j	80001d9a <vprintfmt+0x364>
80001cfe:	f9042783          	lw	a5,-112(s0)
80001d02:	079d                	addi	a5,a5,7
80001d04:	9be1                	andi	a5,a5,-8
80001d06:	00878713          	addi	a4,a5,8
80001d0a:	f8e42823          	sw	a4,-112(s0)
80001d0e:	239c                	fld	fa5,0(a5)
80001d10:	4017f7d3          	fcvt.s.d	fa5,fa5
80001d14:	fcf42627          	fsw	fa5,-52(s0)
80001d18:	fa440793          	addi	a5,s0,-92
80001d1c:	4619                	li	a2,6
80001d1e:	85be                	mv	a1,a5
80001d20:	fcc42503          	lw	a0,-52(s0)
80001d24:	3e4d                	jal	800018d6 <ftoa>
80001d26:	fc042a23          	sw	zero,-44(s0)
80001d2a:	a805                	j	80001d5a <vprintfmt+0x324>
80001d2c:	fd442783          	lw	a5,-44(s0)
80001d30:	ff040713          	addi	a4,s0,-16
80001d34:	97ba                	add	a5,a5,a4
80001d36:	fb47c783          	lbu	a5,-76(a5)
80001d3a:	f9c42703          	lw	a4,-100(s0)
80001d3e:	f9842583          	lw	a1,-104(s0)
80001d42:	853e                	mv	a0,a5
80001d44:	9702                	jalr	a4
80001d46:	fd442703          	lw	a4,-44(s0)
80001d4a:	47f5                	li	a5,29
80001d4c:	02e7c063          	blt	a5,a4,80001d6c <vprintfmt+0x336>
80001d50:	fd442783          	lw	a5,-44(s0)
80001d54:	0785                	addi	a5,a5,1
80001d56:	fcf42a23          	sw	a5,-44(s0)
80001d5a:	fd442783          	lw	a5,-44(s0)
80001d5e:	ff040713          	addi	a4,s0,-16
80001d62:	97ba                	add	a5,a5,a4
80001d64:	fb47c783          	lbu	a5,-76(a5)
80001d68:	f3f1                	bnez	a5,80001d2c <vprintfmt+0x2f6>
80001d6a:	a8ad                	j	80001de4 <vprintfmt+0x3ae>
80001d6c:	0001                	nop
80001d6e:	a89d                	j	80001de4 <vprintfmt+0x3ae>
80001d70:	47a9                	li	a5,10
80001d72:	fef42223          	sw	a5,-28(s0)
80001d76:	a801                	j	80001d86 <vprintfmt+0x350>
80001d78:	47a1                	li	a5,8
80001d7a:	fef42223          	sw	a5,-28(s0)
80001d7e:	a021                	j	80001d86 <vprintfmt+0x350>
80001d80:	47c1                	li	a5,16
80001d82:	fef42223          	sw	a5,-28(s0)
80001d86:	f9040793          	addi	a5,s0,-112
80001d8a:	fe042583          	lw	a1,-32(s0)
80001d8e:	853e                	mv	a0,a5
80001d90:	30dd                	jal	80001676 <getuint>
80001d92:	fea42423          	sw	a0,-24(s0)
80001d96:	feb42623          	sw	a1,-20(s0)
80001d9a:	fe442703          	lw	a4,-28(s0)
80001d9e:	fd344783          	lbu	a5,-45(s0)
80001da2:	883e                	mv	a6,a5
80001da4:	fdc42783          	lw	a5,-36(s0)
80001da8:	fe842603          	lw	a2,-24(s0)
80001dac:	fec42683          	lw	a3,-20(s0)
80001db0:	f9842583          	lw	a1,-104(s0)
80001db4:	f9c42503          	lw	a0,-100(s0)
80001db8:	f54ff0ef          	jal	ra,8000150c <printnum>
80001dbc:	a025                	j	80001de4 <vprintfmt+0x3ae>
80001dbe:	f9c42783          	lw	a5,-100(s0)
80001dc2:	f9842583          	lw	a1,-104(s0)
80001dc6:	8526                	mv	a0,s1
80001dc8:	9782                	jalr	a5
80001dca:	a829                	j	80001de4 <vprintfmt+0x3ae>
80001dcc:	f9c42783          	lw	a5,-100(s0)
80001dd0:	f9842583          	lw	a1,-104(s0)
80001dd4:	02500513          	li	a0,37
80001dd8:	9782                	jalr	a5
80001dda:	fc842783          	lw	a5,-56(s0)
80001dde:	f8f42a23          	sw	a5,-108(s0)
80001de2:	0001                	nop
80001de4:	b17d                	j	80001a92 <vprintfmt+0x5c>
80001de6:	0001                	nop
80001de8:	50b6                	lw	ra,108(sp)
80001dea:	5426                	lw	s0,104(sp)
80001dec:	5496                	lw	s1,100(sp)
80001dee:	5906                	lw	s2,96(sp)
80001df0:	6165                	addi	sp,sp,112
80001df2:	8082                	ret

80001df4 <printf>:
80001df4:	715d                	addi	sp,sp,-80
80001df6:	d606                	sw	ra,44(sp)
80001df8:	d422                	sw	s0,40(sp)
80001dfa:	1800                	addi	s0,sp,48
80001dfc:	fca42e23          	sw	a0,-36(s0)
80001e00:	c04c                	sw	a1,4(s0)
80001e02:	c410                	sw	a2,8(s0)
80001e04:	c454                	sw	a3,12(s0)
80001e06:	c818                	sw	a4,16(s0)
80001e08:	c85c                	sw	a5,20(s0)
80001e0a:	01042c23          	sw	a6,24(s0)
80001e0e:	01142e23          	sw	a7,28(s0)
80001e12:	02040793          	addi	a5,s0,32
80001e16:	1791                	addi	a5,a5,-28
80001e18:	fef42623          	sw	a5,-20(s0)
80001e1c:	fec42783          	lw	a5,-20(s0)
80001e20:	86be                	mv	a3,a5
80001e22:	fdc42603          	lw	a2,-36(s0)
80001e26:	4581                	li	a1,0
80001e28:	00000517          	auipc	a0,0x0
80001e2c:	32250513          	addi	a0,a0,802 # 8000214a <putchar>
80001e30:	3119                	jal	80001a36 <vprintfmt>
80001e32:	4781                	li	a5,0
80001e34:	853e                	mv	a0,a5
80001e36:	50b2                	lw	ra,44(sp)
80001e38:	5422                	lw	s0,40(sp)
80001e3a:	6161                	addi	sp,sp,80
80001e3c:	8082                	ret

80001e3e <sprintf_putch.3066>:
80001e3e:	7179                	addi	sp,sp,-48
80001e40:	d622                	sw	s0,44(sp)
80001e42:	1800                	addi	s0,sp,48
80001e44:	fca42e23          	sw	a0,-36(s0)
80001e48:	fcb42c23          	sw	a1,-40(s0)
80001e4c:	fc742a23          	sw	t2,-44(s0)
80001e50:	fd842783          	lw	a5,-40(s0)
80001e54:	fef42623          	sw	a5,-20(s0)
80001e58:	fec42783          	lw	a5,-20(s0)
80001e5c:	439c                	lw	a5,0(a5)
80001e5e:	fdc42703          	lw	a4,-36(s0)
80001e62:	0ff77713          	andi	a4,a4,255
80001e66:	00e78023          	sb	a4,0(a5)
80001e6a:	fec42783          	lw	a5,-20(s0)
80001e6e:	439c                	lw	a5,0(a5)
80001e70:	00178713          	addi	a4,a5,1
80001e74:	fec42783          	lw	a5,-20(s0)
80001e78:	c398                	sw	a4,0(a5)
80001e7a:	0001                	nop
80001e7c:	5432                	lw	s0,44(sp)
80001e7e:	6145                	addi	sp,sp,48
80001e80:	8082                	ret

80001e82 <sprintf>:
80001e82:	711d                	addi	sp,sp,-96
80001e84:	de06                	sw	ra,60(sp)
80001e86:	dc22                	sw	s0,56(sp)
80001e88:	0080                	addi	s0,sp,64
80001e8a:	fca42623          	sw	a0,-52(s0)
80001e8e:	fcb42423          	sw	a1,-56(s0)
80001e92:	c410                	sw	a2,8(s0)
80001e94:	c454                	sw	a3,12(s0)
80001e96:	c818                	sw	a4,16(s0)
80001e98:	c85c                	sw	a5,20(s0)
80001e9a:	01042c23          	sw	a6,24(s0)
80001e9e:	01142e23          	sw	a7,28(s0)
80001ea2:	02040793          	addi	a5,s0,32
80001ea6:	fef42223          	sw	a5,-28(s0)
80001eaa:	fd440793          	addi	a5,s0,-44
80001eae:	fd440593          	addi	a1,s0,-44
80001eb2:	00000617          	auipc	a2,0x0
80001eb6:	f8c60613          	addi	a2,a2,-116 # 80001e3e <sprintf_putch.3066>
80001eba:	777d                	lui	a4,0xfffff
80001ebc:	fff74693          	not	a3,a4
80001ec0:	6505                	lui	a0,0x1
80001ec2:	80050513          	addi	a0,a0,-2048 # 800 <_tbss_end+0x800>
80001ec6:	00a58833          	add	a6,a1,a0
80001eca:	00e87833          	and	a6,a6,a4
80001ece:	3b786813          	ori	a6,a6,951
80001ed2:	0107a023          	sw	a6,0(a5)
80001ed6:	9532                	add	a0,a0,a2
80001ed8:	8f69                	and	a4,a4,a0
80001eda:	33776713          	ori	a4,a4,823
80001ede:	c3d8                	sw	a4,4(a5)
80001ee0:	00d5f733          	and	a4,a1,a3
80001ee4:	01471593          	slli	a1,a4,0x14
80001ee8:	00038737          	lui	a4,0x38
80001eec:	39370713          	addi	a4,a4,915 # 38393 <_tbss_end+0x38393>
80001ef0:	8f4d                	or	a4,a4,a1
80001ef2:	c798                	sw	a4,8(a5)
80001ef4:	00d67733          	and	a4,a2,a3
80001ef8:	01471693          	slli	a3,a4,0x14
80001efc:	00030737          	lui	a4,0x30
80001f00:	06770713          	addi	a4,a4,103 # 30067 <_tbss_end+0x30067>
80001f04:	8f55                	or	a4,a4,a3
80001f06:	c7d8                	sw	a4,12(a5)
80001f08:	0000100f          	fence.i
80001f0c:	fcc42783          	lw	a5,-52(s0)
80001f10:	fef42623          	sw	a5,-20(s0)
80001f14:	02040793          	addi	a5,s0,32
80001f18:	17a1                	addi	a5,a5,-24
80001f1a:	fef42423          	sw	a5,-24(s0)
80001f1e:	fe842703          	lw	a4,-24(s0)
80001f22:	fd440793          	addi	a5,s0,-44
80001f26:	853e                	mv	a0,a5
80001f28:	fcc40793          	addi	a5,s0,-52
80001f2c:	86ba                	mv	a3,a4
80001f2e:	fc842603          	lw	a2,-56(s0)
80001f32:	85be                	mv	a1,a5
80001f34:	3609                	jal	80001a36 <vprintfmt>
80001f36:	fcc42783          	lw	a5,-52(s0)
80001f3a:	00078023          	sb	zero,0(a5)
80001f3e:	fcc42703          	lw	a4,-52(s0)
80001f42:	fec42783          	lw	a5,-20(s0)
80001f46:	40f707b3          	sub	a5,a4,a5
80001f4a:	853e                	mv	a0,a5
80001f4c:	50f2                	lw	ra,60(sp)
80001f4e:	5462                	lw	s0,56(sp)
80001f50:	6125                	addi	sp,sp,96
80001f52:	8082                	ret

80001f54 <strlen>:
80001f54:	7179                	addi	sp,sp,-48
80001f56:	d622                	sw	s0,44(sp)
80001f58:	1800                	addi	s0,sp,48
80001f5a:	fca42e23          	sw	a0,-36(s0)
80001f5e:	fdc42783          	lw	a5,-36(s0)
80001f62:	fef42623          	sw	a5,-20(s0)
80001f66:	a031                	j	80001f72 <strlen+0x1e>
80001f68:	fec42783          	lw	a5,-20(s0)
80001f6c:	0785                	addi	a5,a5,1
80001f6e:	fef42623          	sw	a5,-20(s0)
80001f72:	fec42783          	lw	a5,-20(s0)
80001f76:	0007c783          	lbu	a5,0(a5)
80001f7a:	f7fd                	bnez	a5,80001f68 <strlen+0x14>
80001f7c:	fec42703          	lw	a4,-20(s0)
80001f80:	fdc42783          	lw	a5,-36(s0)
80001f84:	40f707b3          	sub	a5,a4,a5
80001f88:	853e                	mv	a0,a5
80001f8a:	5432                	lw	s0,44(sp)
80001f8c:	6145                	addi	sp,sp,48
80001f8e:	8082                	ret

80001f90 <strnlen>:
80001f90:	7179                	addi	sp,sp,-48
80001f92:	d622                	sw	s0,44(sp)
80001f94:	1800                	addi	s0,sp,48
80001f96:	fca42e23          	sw	a0,-36(s0)
80001f9a:	fcb42c23          	sw	a1,-40(s0)
80001f9e:	fdc42783          	lw	a5,-36(s0)
80001fa2:	fef42623          	sw	a5,-20(s0)
80001fa6:	a031                	j	80001fb2 <strnlen+0x22>
80001fa8:	fec42783          	lw	a5,-20(s0)
80001fac:	0785                	addi	a5,a5,1
80001fae:	fef42623          	sw	a5,-20(s0)
80001fb2:	fd842783          	lw	a5,-40(s0)
80001fb6:	fff78713          	addi	a4,a5,-1
80001fba:	fce42c23          	sw	a4,-40(s0)
80001fbe:	c791                	beqz	a5,80001fca <strnlen+0x3a>
80001fc0:	fec42783          	lw	a5,-20(s0)
80001fc4:	0007c783          	lbu	a5,0(a5)
80001fc8:	f3e5                	bnez	a5,80001fa8 <strnlen+0x18>
80001fca:	fec42703          	lw	a4,-20(s0)
80001fce:	fdc42783          	lw	a5,-36(s0)
80001fd2:	40f707b3          	sub	a5,a4,a5
80001fd6:	853e                	mv	a0,a5
80001fd8:	5432                	lw	s0,44(sp)
80001fda:	6145                	addi	sp,sp,48
80001fdc:	8082                	ret

80001fde <strcmp>:
80001fde:	7179                	addi	sp,sp,-48
80001fe0:	d622                	sw	s0,44(sp)
80001fe2:	1800                	addi	s0,sp,48
80001fe4:	fca42e23          	sw	a0,-36(s0)
80001fe8:	fcb42c23          	sw	a1,-40(s0)
80001fec:	fdc42783          	lw	a5,-36(s0)
80001ff0:	00178713          	addi	a4,a5,1
80001ff4:	fce42e23          	sw	a4,-36(s0)
80001ff8:	0007c783          	lbu	a5,0(a5)
80001ffc:	fef407a3          	sb	a5,-17(s0)
80002000:	fd842783          	lw	a5,-40(s0)
80002004:	00178713          	addi	a4,a5,1
80002008:	fce42c23          	sw	a4,-40(s0)
8000200c:	0007c783          	lbu	a5,0(a5)
80002010:	fef40723          	sb	a5,-18(s0)
80002014:	fef44783          	lbu	a5,-17(s0)
80002018:	c799                	beqz	a5,80002026 <strcmp+0x48>
8000201a:	fef44703          	lbu	a4,-17(s0)
8000201e:	fee44783          	lbu	a5,-18(s0)
80002022:	fcf705e3          	beq	a4,a5,80001fec <strcmp+0xe>
80002026:	fef44703          	lbu	a4,-17(s0)
8000202a:	fee44783          	lbu	a5,-18(s0)
8000202e:	40f707b3          	sub	a5,a4,a5
80002032:	853e                	mv	a0,a5
80002034:	5432                	lw	s0,44(sp)
80002036:	6145                	addi	sp,sp,48
80002038:	8082                	ret

8000203a <strcpy>:
8000203a:	7179                	addi	sp,sp,-48
8000203c:	d622                	sw	s0,44(sp)
8000203e:	1800                	addi	s0,sp,48
80002040:	fca42e23          	sw	a0,-36(s0)
80002044:	fcb42c23          	sw	a1,-40(s0)
80002048:	fdc42783          	lw	a5,-36(s0)
8000204c:	fef42623          	sw	a5,-20(s0)
80002050:	0001                	nop
80002052:	fd842703          	lw	a4,-40(s0)
80002056:	00170793          	addi	a5,a4,1
8000205a:	fcf42c23          	sw	a5,-40(s0)
8000205e:	fec42783          	lw	a5,-20(s0)
80002062:	00178693          	addi	a3,a5,1
80002066:	fed42623          	sw	a3,-20(s0)
8000206a:	00074703          	lbu	a4,0(a4)
8000206e:	00e78023          	sb	a4,0(a5)
80002072:	0007c783          	lbu	a5,0(a5)
80002076:	fff1                	bnez	a5,80002052 <strcpy+0x18>
80002078:	fdc42783          	lw	a5,-36(s0)
8000207c:	853e                	mv	a0,a5
8000207e:	5432                	lw	s0,44(sp)
80002080:	6145                	addi	sp,sp,48
80002082:	8082                	ret

80002084 <atol>:
80002084:	7179                	addi	sp,sp,-48
80002086:	d622                	sw	s0,44(sp)
80002088:	1800                	addi	s0,sp,48
8000208a:	fca42e23          	sw	a0,-36(s0)
8000208e:	fe042623          	sw	zero,-20(s0)
80002092:	fe042423          	sw	zero,-24(s0)
80002096:	a031                	j	800020a2 <atol+0x1e>
80002098:	fdc42783          	lw	a5,-36(s0)
8000209c:	0785                	addi	a5,a5,1
8000209e:	fcf42e23          	sw	a5,-36(s0)
800020a2:	fdc42783          	lw	a5,-36(s0)
800020a6:	0007c703          	lbu	a4,0(a5)
800020aa:	02000793          	li	a5,32
800020ae:	fef705e3          	beq	a4,a5,80002098 <atol+0x14>
800020b2:	fdc42783          	lw	a5,-36(s0)
800020b6:	0007c703          	lbu	a4,0(a5)
800020ba:	02d00793          	li	a5,45
800020be:	00f70a63          	beq	a4,a5,800020d2 <atol+0x4e>
800020c2:	fdc42783          	lw	a5,-36(s0)
800020c6:	0007c703          	lbu	a4,0(a5)
800020ca:	02b00793          	li	a5,43
800020ce:	04f71b63          	bne	a4,a5,80002124 <atol+0xa0>
800020d2:	fdc42783          	lw	a5,-36(s0)
800020d6:	0007c783          	lbu	a5,0(a5)
800020da:	fd378793          	addi	a5,a5,-45
800020de:	0017b793          	seqz	a5,a5
800020e2:	0ff7f793          	andi	a5,a5,255
800020e6:	fef42423          	sw	a5,-24(s0)
800020ea:	fdc42783          	lw	a5,-36(s0)
800020ee:	0785                	addi	a5,a5,1
800020f0:	fcf42e23          	sw	a5,-36(s0)
800020f4:	a805                	j	80002124 <atol+0xa0>
800020f6:	fec42703          	lw	a4,-20(s0)
800020fa:	87ba                	mv	a5,a4
800020fc:	078a                	slli	a5,a5,0x2
800020fe:	97ba                	add	a5,a5,a4
80002100:	0786                	slli	a5,a5,0x1
80002102:	fef42623          	sw	a5,-20(s0)
80002106:	fdc42783          	lw	a5,-36(s0)
8000210a:	00178713          	addi	a4,a5,1
8000210e:	fce42e23          	sw	a4,-36(s0)
80002112:	0007c783          	lbu	a5,0(a5)
80002116:	fd078793          	addi	a5,a5,-48
8000211a:	fec42703          	lw	a4,-20(s0)
8000211e:	97ba                	add	a5,a5,a4
80002120:	fef42623          	sw	a5,-20(s0)
80002124:	fdc42783          	lw	a5,-36(s0)
80002128:	0007c783          	lbu	a5,0(a5)
8000212c:	f7e9                	bnez	a5,800020f6 <atol+0x72>
8000212e:	fe842783          	lw	a5,-24(s0)
80002132:	c791                	beqz	a5,8000213e <atol+0xba>
80002134:	fec42783          	lw	a5,-20(s0)
80002138:	40f007b3          	neg	a5,a5
8000213c:	a019                	j	80002142 <atol+0xbe>
8000213e:	fec42783          	lw	a5,-20(s0)
80002142:	853e                	mv	a0,a5
80002144:	5432                	lw	s0,44(sp)
80002146:	6145                	addi	sp,sp,48
80002148:	8082                	ret

8000214a <putchar>:
8000214a:	1101                	addi	sp,sp,-32
8000214c:	ce22                	sw	s0,28(sp)
8000214e:	1000                	addi	s0,sp,32
80002150:	fea42623          	sw	a0,-20(s0)
80002154:	fec42783          	lw	a5,-20(s0)
80002158:	0ff7f793          	andi	a5,a5,255
8000215c:	853e                	mv	a0,a5
8000215e:	00011337          	lui	t1,0x11
80002162:	30030313          	addi	t1,t1,768 # 11300 <_tbss_end+0x11300>

80002166 <uart_status_simple>:
80002166:	00c30583          	lb	a1,12(t1)
8000216a:	8989                	andi	a1,a1,2
8000216c:	dded                	beqz	a1,80002166 <uart_status_simple>
8000216e:	00a30223          	sb	a0,4(t1)
80002172:	4781                	li	a5,0
80002174:	853e                	mv	a0,a5
80002176:	4472                	lw	s0,28(sp)
80002178:	6105                	addi	sp,sp,32
8000217a:	8082                	ret

8000217c <is_empty>:
8000217c:	1141                	addi	sp,sp,-16
8000217e:	c622                	sw	s0,12(sp)
80002180:	0800                	addi	s0,sp,16

80002182 <uart_end>:
80002182:	00011337          	lui	t1,0x11
80002186:	30030313          	addi	t1,t1,768 # 11300 <_tbss_end+0x11300>
8000218a:	00c30503          	lb	a0,12(t1)
8000218e:	8905                	andi	a0,a0,1
80002190:	d96d                	beqz	a0,80002182 <uart_end>
80002192:	4781                	li	a5,0
80002194:	853e                	mv	a0,a5
80002196:	4432                	lw	s0,12(sp)
80002198:	0141                	addi	sp,sp,16
8000219a:	8082                	ret

8000219c <__udivdi3>:
8000219c:	87ae                	mv	a5,a1
8000219e:	8832                	mv	a6,a2
800021a0:	88b6                	mv	a7,a3
800021a2:	832a                	mv	t1,a0
800021a4:	20069663          	bnez	a3,800023b0 <__udivdi3+0x214>
800021a8:	80003737          	lui	a4,0x80003
800021ac:	a6870713          	addi	a4,a4,-1432 # 80002a68 <__global_pointer$+0xfffff6c4>
800021b0:	0ac5fe63          	bgeu	a1,a2,8000226c <__udivdi3+0xd0>
800021b4:	66c1                	lui	a3,0x10
800021b6:	0ad67463          	bgeu	a2,a3,8000225e <__udivdi3+0xc2>
800021ba:	0ff00693          	li	a3,255
800021be:	00c6b6b3          	sltu	a3,a3,a2
800021c2:	068e                	slli	a3,a3,0x3
800021c4:	00d658b3          	srl	a7,a2,a3
800021c8:	9746                	add	a4,a4,a7
800021ca:	00074703          	lbu	a4,0(a4)
800021ce:	96ba                	add	a3,a3,a4
800021d0:	02000713          	li	a4,32
800021d4:	8f15                	sub	a4,a4,a3
800021d6:	cb19                	beqz	a4,800021ec <__udivdi3+0x50>
800021d8:	00e797b3          	sll	a5,a5,a4
800021dc:	00d556b3          	srl	a3,a0,a3
800021e0:	00e61833          	sll	a6,a2,a4
800021e4:	00f6e5b3          	or	a1,a3,a5
800021e8:	00e51333          	sll	t1,a0,a4
800021ec:	01085513          	srli	a0,a6,0x10
800021f0:	02a5f733          	remu	a4,a1,a0
800021f4:	01081613          	slli	a2,a6,0x10
800021f8:	8241                	srli	a2,a2,0x10
800021fa:	01035693          	srli	a3,t1,0x10
800021fe:	02a5d5b3          	divu	a1,a1,a0
80002202:	0742                	slli	a4,a4,0x10
80002204:	8ed9                	or	a3,a3,a4
80002206:	02b607b3          	mul	a5,a2,a1
8000220a:	872e                	mv	a4,a1
8000220c:	00f6fc63          	bgeu	a3,a5,80002224 <__udivdi3+0x88>
80002210:	96c2                	add	a3,a3,a6
80002212:	fff58713          	addi	a4,a1,-1
80002216:	0106e763          	bltu	a3,a6,80002224 <__udivdi3+0x88>
8000221a:	00f6f563          	bgeu	a3,a5,80002224 <__udivdi3+0x88>
8000221e:	ffe58713          	addi	a4,a1,-2
80002222:	96c2                	add	a3,a3,a6
80002224:	8e9d                	sub	a3,a3,a5
80002226:	02a6f7b3          	remu	a5,a3,a0
8000222a:	0342                	slli	t1,t1,0x10
8000222c:	01035313          	srli	t1,t1,0x10
80002230:	02a6d6b3          	divu	a3,a3,a0
80002234:	07c2                	slli	a5,a5,0x10
80002236:	0067e333          	or	t1,a5,t1
8000223a:	02d605b3          	mul	a1,a2,a3
8000223e:	8536                	mv	a0,a3
80002240:	00b37b63          	bgeu	t1,a1,80002256 <__udivdi3+0xba>
80002244:	9342                	add	t1,t1,a6
80002246:	fff68513          	addi	a0,a3,-1 # ffff <_tbss_end+0xffff>
8000224a:	01036663          	bltu	t1,a6,80002256 <__udivdi3+0xba>
8000224e:	00b37463          	bgeu	t1,a1,80002256 <__udivdi3+0xba>
80002252:	ffe68513          	addi	a0,a3,-2
80002256:	0742                	slli	a4,a4,0x10
80002258:	8f49                	or	a4,a4,a0
8000225a:	4581                	li	a1,0
8000225c:	a84d                	j	8000230e <__udivdi3+0x172>
8000225e:	010008b7          	lui	a7,0x1000
80002262:	46c1                	li	a3,16
80002264:	f71660e3          	bltu	a2,a7,800021c4 <__udivdi3+0x28>
80002268:	46e1                	li	a3,24
8000226a:	bfa9                	j	800021c4 <__udivdi3+0x28>
8000226c:	e601                	bnez	a2,80002274 <__udivdi3+0xd8>
8000226e:	4685                	li	a3,1
80002270:	02c6d833          	divu	a6,a3,a2
80002274:	66c1                	lui	a3,0x10
80002276:	08d87e63          	bgeu	a6,a3,80002312 <__udivdi3+0x176>
8000227a:	0ff00693          	li	a3,255
8000227e:	0106f363          	bgeu	a3,a6,80002284 <__udivdi3+0xe8>
80002282:	48a1                	li	a7,8
80002284:	011856b3          	srl	a3,a6,a7
80002288:	9736                	add	a4,a4,a3
8000228a:	00074683          	lbu	a3,0(a4)
8000228e:	02000713          	li	a4,32
80002292:	96c6                	add	a3,a3,a7
80002294:	8f15                	sub	a4,a4,a3
80002296:	e749                	bnez	a4,80002320 <__udivdi3+0x184>
80002298:	410787b3          	sub	a5,a5,a6
8000229c:	4585                	li	a1,1
8000229e:	01085613          	srli	a2,a6,0x10
800022a2:	01081893          	slli	a7,a6,0x10
800022a6:	0108d893          	srli	a7,a7,0x10
800022aa:	01035693          	srli	a3,t1,0x10
800022ae:	02c7f733          	remu	a4,a5,a2
800022b2:	02c7d7b3          	divu	a5,a5,a2
800022b6:	0742                	slli	a4,a4,0x10
800022b8:	8ed9                	or	a3,a3,a4
800022ba:	02f88533          	mul	a0,a7,a5
800022be:	873e                	mv	a4,a5
800022c0:	00a6fc63          	bgeu	a3,a0,800022d8 <__udivdi3+0x13c>
800022c4:	96c2                	add	a3,a3,a6
800022c6:	fff78713          	addi	a4,a5,-1
800022ca:	0106e763          	bltu	a3,a6,800022d8 <__udivdi3+0x13c>
800022ce:	00a6f563          	bgeu	a3,a0,800022d8 <__udivdi3+0x13c>
800022d2:	ffe78713          	addi	a4,a5,-2
800022d6:	96c2                	add	a3,a3,a6
800022d8:	8e89                	sub	a3,a3,a0
800022da:	02c6f7b3          	remu	a5,a3,a2
800022de:	0342                	slli	t1,t1,0x10
800022e0:	01035313          	srli	t1,t1,0x10
800022e4:	02c6d6b3          	divu	a3,a3,a2
800022e8:	07c2                	slli	a5,a5,0x10
800022ea:	0067e333          	or	t1,a5,t1
800022ee:	02d888b3          	mul	a7,a7,a3
800022f2:	8536                	mv	a0,a3
800022f4:	01137b63          	bgeu	t1,a7,8000230a <__udivdi3+0x16e>
800022f8:	9342                	add	t1,t1,a6
800022fa:	fff68513          	addi	a0,a3,-1 # ffff <_tbss_end+0xffff>
800022fe:	01036663          	bltu	t1,a6,8000230a <__udivdi3+0x16e>
80002302:	01137463          	bgeu	t1,a7,8000230a <__udivdi3+0x16e>
80002306:	ffe68513          	addi	a0,a3,-2
8000230a:	0742                	slli	a4,a4,0x10
8000230c:	8f49                	or	a4,a4,a0
8000230e:	853a                	mv	a0,a4
80002310:	8082                	ret
80002312:	010006b7          	lui	a3,0x1000
80002316:	48c1                	li	a7,16
80002318:	f6d866e3          	bltu	a6,a3,80002284 <__udivdi3+0xe8>
8000231c:	48e1                	li	a7,24
8000231e:	b79d                	j	80002284 <__udivdi3+0xe8>
80002320:	00e81833          	sll	a6,a6,a4
80002324:	00d7d5b3          	srl	a1,a5,a3
80002328:	00e51333          	sll	t1,a0,a4
8000232c:	00d556b3          	srl	a3,a0,a3
80002330:	01085513          	srli	a0,a6,0x10
80002334:	00e797b3          	sll	a5,a5,a4
80002338:	02a5f733          	remu	a4,a1,a0
8000233c:	00f6e8b3          	or	a7,a3,a5
80002340:	01081793          	slli	a5,a6,0x10
80002344:	83c1                	srli	a5,a5,0x10
80002346:	0108d613          	srli	a2,a7,0x10
8000234a:	02a5d5b3          	divu	a1,a1,a0
8000234e:	0742                	slli	a4,a4,0x10
80002350:	8f51                	or	a4,a4,a2
80002352:	02b786b3          	mul	a3,a5,a1
80002356:	862e                	mv	a2,a1
80002358:	00d77c63          	bgeu	a4,a3,80002370 <__udivdi3+0x1d4>
8000235c:	9742                	add	a4,a4,a6
8000235e:	fff58613          	addi	a2,a1,-1
80002362:	01076763          	bltu	a4,a6,80002370 <__udivdi3+0x1d4>
80002366:	00d77563          	bgeu	a4,a3,80002370 <__udivdi3+0x1d4>
8000236a:	ffe58613          	addi	a2,a1,-2
8000236e:	9742                	add	a4,a4,a6
80002370:	40d706b3          	sub	a3,a4,a3
80002374:	02a6f733          	remu	a4,a3,a0
80002378:	08c2                	slli	a7,a7,0x10
8000237a:	0108d893          	srli	a7,a7,0x10
8000237e:	02a6d6b3          	divu	a3,a3,a0
80002382:	0742                	slli	a4,a4,0x10
80002384:	02d785b3          	mul	a1,a5,a3
80002388:	011767b3          	or	a5,a4,a7
8000238c:	8736                	mv	a4,a3
8000238e:	00b7fc63          	bgeu	a5,a1,800023a6 <__udivdi3+0x20a>
80002392:	97c2                	add	a5,a5,a6
80002394:	fff68713          	addi	a4,a3,-1 # ffffff <_tbss_end+0xffffff>
80002398:	0107e763          	bltu	a5,a6,800023a6 <__udivdi3+0x20a>
8000239c:	00b7f563          	bgeu	a5,a1,800023a6 <__udivdi3+0x20a>
800023a0:	ffe68713          	addi	a4,a3,-2
800023a4:	97c2                	add	a5,a5,a6
800023a6:	8f8d                	sub	a5,a5,a1
800023a8:	01061593          	slli	a1,a2,0x10
800023ac:	8dd9                	or	a1,a1,a4
800023ae:	bdc5                	j	8000229e <__udivdi3+0x102>
800023b0:	14d5e263          	bltu	a1,a3,800024f4 <__udivdi3+0x358>
800023b4:	6741                	lui	a4,0x10
800023b6:	02e6fe63          	bgeu	a3,a4,800023f2 <__udivdi3+0x256>
800023ba:	0ff00813          	li	a6,255
800023be:	00d83733          	sltu	a4,a6,a3
800023c2:	070e                	slli	a4,a4,0x3
800023c4:	80003837          	lui	a6,0x80003
800023c8:	a6880813          	addi	a6,a6,-1432 # 80002a68 <__global_pointer$+0xfffff6c4>
800023cc:	00e6d5b3          	srl	a1,a3,a4
800023d0:	95c2                	add	a1,a1,a6
800023d2:	0005c803          	lbu	a6,0(a1)
800023d6:	02000593          	li	a1,32
800023da:	983a                	add	a6,a6,a4
800023dc:	410585b3          	sub	a1,a1,a6
800023e0:	e185                	bnez	a1,80002400 <__udivdi3+0x264>
800023e2:	4705                	li	a4,1
800023e4:	f2f6e5e3          	bltu	a3,a5,8000230e <__udivdi3+0x172>
800023e8:	00c53533          	sltu	a0,a0,a2
800023ec:	00154713          	xori	a4,a0,1
800023f0:	bf39                	j	8000230e <__udivdi3+0x172>
800023f2:	010005b7          	lui	a1,0x1000
800023f6:	4741                	li	a4,16
800023f8:	fcb6e6e3          	bltu	a3,a1,800023c4 <__udivdi3+0x228>
800023fc:	4761                	li	a4,24
800023fe:	b7d9                	j	800023c4 <__udivdi3+0x228>
80002400:	01065733          	srl	a4,a2,a6
80002404:	00b696b3          	sll	a3,a3,a1
80002408:	8ed9                	or	a3,a3,a4
8000240a:	0106de93          	srli	t4,a3,0x10
8000240e:	0107d733          	srl	a4,a5,a6
80002412:	03d778b3          	remu	a7,a4,t4
80002416:	00b797b3          	sll	a5,a5,a1
8000241a:	01055833          	srl	a6,a0,a6
8000241e:	00f86333          	or	t1,a6,a5
80002422:	01069793          	slli	a5,a3,0x10
80002426:	83c1                	srli	a5,a5,0x10
80002428:	01035813          	srli	a6,t1,0x10
8000242c:	00b61633          	sll	a2,a2,a1
80002430:	03d75733          	divu	a4,a4,t4
80002434:	08c2                	slli	a7,a7,0x10
80002436:	0108e833          	or	a6,a7,a6
8000243a:	02e78f33          	mul	t5,a5,a4
8000243e:	8e3a                	mv	t3,a4
80002440:	01e87c63          	bgeu	a6,t5,80002458 <__udivdi3+0x2bc>
80002444:	9836                	add	a6,a6,a3
80002446:	fff70e13          	addi	t3,a4,-1 # ffff <_tbss_end+0xffff>
8000244a:	00d86763          	bltu	a6,a3,80002458 <__udivdi3+0x2bc>
8000244e:	01e87563          	bgeu	a6,t5,80002458 <__udivdi3+0x2bc>
80002452:	ffe70e13          	addi	t3,a4,-2
80002456:	9836                	add	a6,a6,a3
80002458:	41e80833          	sub	a6,a6,t5
8000245c:	03d878b3          	remu	a7,a6,t4
80002460:	03d85833          	divu	a6,a6,t4
80002464:	08c2                	slli	a7,a7,0x10
80002466:	03078eb3          	mul	t4,a5,a6
8000246a:	01031793          	slli	a5,t1,0x10
8000246e:	83c1                	srli	a5,a5,0x10
80002470:	00f8e7b3          	or	a5,a7,a5
80002474:	8742                	mv	a4,a6
80002476:	01d7fc63          	bgeu	a5,t4,8000248e <__udivdi3+0x2f2>
8000247a:	97b6                	add	a5,a5,a3
8000247c:	fff80713          	addi	a4,a6,-1
80002480:	00d7e763          	bltu	a5,a3,8000248e <__udivdi3+0x2f2>
80002484:	01d7f563          	bgeu	a5,t4,8000248e <__udivdi3+0x2f2>
80002488:	ffe80713          	addi	a4,a6,-2
8000248c:	97b6                	add	a5,a5,a3
8000248e:	0e42                	slli	t3,t3,0x10
80002490:	41d787b3          	sub	a5,a5,t4
80002494:	6ec1                	lui	t4,0x10
80002496:	00ee6733          	or	a4,t3,a4
8000249a:	fffe8813          	addi	a6,t4,-1 # ffff <_tbss_end+0xffff>
8000249e:	01077333          	and	t1,a4,a6
800024a2:	01075893          	srli	a7,a4,0x10
800024a6:	01067833          	and	a6,a2,a6
800024aa:	8241                	srli	a2,a2,0x10
800024ac:	03030e33          	mul	t3,t1,a6
800024b0:	03088833          	mul	a6,a7,a6
800024b4:	010e5693          	srli	a3,t3,0x10
800024b8:	02c30333          	mul	t1,t1,a2
800024bc:	9342                	add	t1,t1,a6
800024be:	969a                	add	a3,a3,t1
800024c0:	02c888b3          	mul	a7,a7,a2
800024c4:	0106f363          	bgeu	a3,a6,800024ca <__udivdi3+0x32e>
800024c8:	98f6                	add	a7,a7,t4
800024ca:	0106d613          	srli	a2,a3,0x10
800024ce:	98b2                	add	a7,a7,a2
800024d0:	0317e063          	bltu	a5,a7,800024f0 <__udivdi3+0x354>
800024d4:	d91793e3          	bne	a5,a7,8000225a <__udivdi3+0xbe>
800024d8:	67c1                	lui	a5,0x10
800024da:	17fd                	addi	a5,a5,-1
800024dc:	8efd                	and	a3,a3,a5
800024de:	06c2                	slli	a3,a3,0x10
800024e0:	00fe7e33          	and	t3,t3,a5
800024e4:	00b51533          	sll	a0,a0,a1
800024e8:	96f2                	add	a3,a3,t3
800024ea:	4581                	li	a1,0
800024ec:	e2d571e3          	bgeu	a0,a3,8000230e <__udivdi3+0x172>
800024f0:	177d                	addi	a4,a4,-1
800024f2:	b3a5                	j	8000225a <__udivdi3+0xbe>
800024f4:	4581                	li	a1,0
800024f6:	4701                	li	a4,0
800024f8:	bd19                	j	8000230e <__udivdi3+0x172>

800024fa <__umoddi3>:
800024fa:	88b2                	mv	a7,a2
800024fc:	8736                	mv	a4,a3
800024fe:	87aa                	mv	a5,a0
80002500:	882e                	mv	a6,a1
80002502:	1c069863          	bnez	a3,800026d2 <__umoddi3+0x1d8>
80002506:	800036b7          	lui	a3,0x80003
8000250a:	a6868693          	addi	a3,a3,-1432 # 80002a68 <__global_pointer$+0xfffff6c4>
8000250e:	0ac5f863          	bgeu	a1,a2,800025be <__umoddi3+0xc4>
80002512:	6341                	lui	t1,0x10
80002514:	08667e63          	bgeu	a2,t1,800025b0 <__umoddi3+0xb6>
80002518:	0ff00313          	li	t1,255
8000251c:	00c37363          	bgeu	t1,a2,80002522 <__umoddi3+0x28>
80002520:	4721                	li	a4,8
80002522:	00e65333          	srl	t1,a2,a4
80002526:	969a                	add	a3,a3,t1
80002528:	0006ce03          	lbu	t3,0(a3)
8000252c:	02000313          	li	t1,32
80002530:	9e3a                	add	t3,t3,a4
80002532:	41c30333          	sub	t1,t1,t3
80002536:	00030c63          	beqz	t1,8000254e <__umoddi3+0x54>
8000253a:	006595b3          	sll	a1,a1,t1
8000253e:	01c55e33          	srl	t3,a0,t3
80002542:	006618b3          	sll	a7,a2,t1
80002546:	00be6833          	or	a6,t3,a1
8000254a:	006517b3          	sll	a5,a0,t1
8000254e:	0108d613          	srli	a2,a7,0x10
80002552:	02c87733          	remu	a4,a6,a2
80002556:	01089513          	slli	a0,a7,0x10
8000255a:	8141                	srli	a0,a0,0x10
8000255c:	0107d693          	srli	a3,a5,0x10
80002560:	02c85833          	divu	a6,a6,a2
80002564:	0742                	slli	a4,a4,0x10
80002566:	8ed9                	or	a3,a3,a4
80002568:	03050833          	mul	a6,a0,a6
8000256c:	0106f863          	bgeu	a3,a6,8000257c <__umoddi3+0x82>
80002570:	96c6                	add	a3,a3,a7
80002572:	0116e563          	bltu	a3,a7,8000257c <__umoddi3+0x82>
80002576:	0106f363          	bgeu	a3,a6,8000257c <__umoddi3+0x82>
8000257a:	96c6                	add	a3,a3,a7
8000257c:	410686b3          	sub	a3,a3,a6
80002580:	02c6f733          	remu	a4,a3,a2
80002584:	07c2                	slli	a5,a5,0x10
80002586:	83c1                	srli	a5,a5,0x10
80002588:	02c6d6b3          	divu	a3,a3,a2
8000258c:	02d506b3          	mul	a3,a0,a3
80002590:	01071513          	slli	a0,a4,0x10
80002594:	8fc9                	or	a5,a5,a0
80002596:	00d7f863          	bgeu	a5,a3,800025a6 <__umoddi3+0xac>
8000259a:	97c6                	add	a5,a5,a7
8000259c:	0117e563          	bltu	a5,a7,800025a6 <__umoddi3+0xac>
800025a0:	00d7f363          	bgeu	a5,a3,800025a6 <__umoddi3+0xac>
800025a4:	97c6                	add	a5,a5,a7
800025a6:	8f95                	sub	a5,a5,a3
800025a8:	0067d533          	srl	a0,a5,t1
800025ac:	4581                	li	a1,0
800025ae:	8082                	ret
800025b0:	01000337          	lui	t1,0x1000
800025b4:	4741                	li	a4,16
800025b6:	f66666e3          	bltu	a2,t1,80002522 <__umoddi3+0x28>
800025ba:	4761                	li	a4,24
800025bc:	b79d                	j	80002522 <__umoddi3+0x28>
800025be:	e601                	bnez	a2,800025c6 <__umoddi3+0xcc>
800025c0:	4605                	li	a2,1
800025c2:	031658b3          	divu	a7,a2,a7
800025c6:	6641                	lui	a2,0x10
800025c8:	08c8f363          	bgeu	a7,a2,8000264e <__umoddi3+0x154>
800025cc:	0ff00613          	li	a2,255
800025d0:	01167363          	bgeu	a2,a7,800025d6 <__umoddi3+0xdc>
800025d4:	4721                	li	a4,8
800025d6:	00e8d633          	srl	a2,a7,a4
800025da:	96b2                	add	a3,a3,a2
800025dc:	0006ce03          	lbu	t3,0(a3)
800025e0:	02000313          	li	t1,32
800025e4:	9e3a                	add	t3,t3,a4
800025e6:	41c30333          	sub	t1,t1,t3
800025ea:	06031963          	bnez	t1,8000265c <__umoddi3+0x162>
800025ee:	411585b3          	sub	a1,a1,a7
800025f2:	0108d713          	srli	a4,a7,0x10
800025f6:	01089513          	slli	a0,a7,0x10
800025fa:	8141                	srli	a0,a0,0x10
800025fc:	0107d613          	srli	a2,a5,0x10
80002600:	02e5f6b3          	remu	a3,a1,a4
80002604:	02e5d5b3          	divu	a1,a1,a4
80002608:	06c2                	slli	a3,a3,0x10
8000260a:	8ed1                	or	a3,a3,a2
8000260c:	02b505b3          	mul	a1,a0,a1
80002610:	00b6f863          	bgeu	a3,a1,80002620 <__umoddi3+0x126>
80002614:	96c6                	add	a3,a3,a7
80002616:	0116e563          	bltu	a3,a7,80002620 <__umoddi3+0x126>
8000261a:	00b6f363          	bgeu	a3,a1,80002620 <__umoddi3+0x126>
8000261e:	96c6                	add	a3,a3,a7
80002620:	40b685b3          	sub	a1,a3,a1
80002624:	02e5f6b3          	remu	a3,a1,a4
80002628:	07c2                	slli	a5,a5,0x10
8000262a:	83c1                	srli	a5,a5,0x10
8000262c:	02e5d5b3          	divu	a1,a1,a4
80002630:	02b505b3          	mul	a1,a0,a1
80002634:	01069513          	slli	a0,a3,0x10
80002638:	8fc9                	or	a5,a5,a0
8000263a:	00b7f863          	bgeu	a5,a1,8000264a <__umoddi3+0x150>
8000263e:	97c6                	add	a5,a5,a7
80002640:	0117e563          	bltu	a5,a7,8000264a <__umoddi3+0x150>
80002644:	00b7f363          	bgeu	a5,a1,8000264a <__umoddi3+0x150>
80002648:	97c6                	add	a5,a5,a7
8000264a:	8f8d                	sub	a5,a5,a1
8000264c:	bfb1                	j	800025a8 <__umoddi3+0xae>
8000264e:	01000637          	lui	a2,0x1000
80002652:	4741                	li	a4,16
80002654:	f8c8e1e3          	bltu	a7,a2,800025d6 <__umoddi3+0xdc>
80002658:	4761                	li	a4,24
8000265a:	bfb5                	j	800025d6 <__umoddi3+0xdc>
8000265c:	006898b3          	sll	a7,a7,t1
80002660:	01c5d733          	srl	a4,a1,t3
80002664:	006517b3          	sll	a5,a0,t1
80002668:	01c55e33          	srl	t3,a0,t3
8000266c:	0108d513          	srli	a0,a7,0x10
80002670:	02a776b3          	remu	a3,a4,a0
80002674:	006595b3          	sll	a1,a1,t1
80002678:	00be6e33          	or	t3,t3,a1
8000267c:	01089593          	slli	a1,a7,0x10
80002680:	81c1                	srli	a1,a1,0x10
80002682:	010e5613          	srli	a2,t3,0x10
80002686:	02a75733          	divu	a4,a4,a0
8000268a:	06c2                	slli	a3,a3,0x10
8000268c:	8ed1                	or	a3,a3,a2
8000268e:	02e58733          	mul	a4,a1,a4
80002692:	00e6f863          	bgeu	a3,a4,800026a2 <__umoddi3+0x1a8>
80002696:	96c6                	add	a3,a3,a7
80002698:	0116e563          	bltu	a3,a7,800026a2 <__umoddi3+0x1a8>
8000269c:	00e6f363          	bgeu	a3,a4,800026a2 <__umoddi3+0x1a8>
800026a0:	96c6                	add	a3,a3,a7
800026a2:	40e68633          	sub	a2,a3,a4
800026a6:	02a676b3          	remu	a3,a2,a0
800026aa:	0e42                	slli	t3,t3,0x10
800026ac:	010e5e13          	srli	t3,t3,0x10
800026b0:	02a65633          	divu	a2,a2,a0
800026b4:	06c2                	slli	a3,a3,0x10
800026b6:	02c58633          	mul	a2,a1,a2
800026ba:	01c6e5b3          	or	a1,a3,t3
800026be:	00c5f863          	bgeu	a1,a2,800026ce <__umoddi3+0x1d4>
800026c2:	95c6                	add	a1,a1,a7
800026c4:	0115e563          	bltu	a1,a7,800026ce <__umoddi3+0x1d4>
800026c8:	00c5f363          	bgeu	a1,a2,800026ce <__umoddi3+0x1d4>
800026cc:	95c6                	add	a1,a1,a7
800026ce:	8d91                	sub	a1,a1,a2
800026d0:	b70d                	j	800025f2 <__umoddi3+0xf8>
800026d2:	ecd5eee3          	bltu	a1,a3,800025ae <__umoddi3+0xb4>
800026d6:	6741                	lui	a4,0x10
800026d8:	04e6f563          	bgeu	a3,a4,80002722 <__umoddi3+0x228>
800026dc:	0ff00e93          	li	t4,255
800026e0:	00deb733          	sltu	a4,t4,a3
800026e4:	070e                	slli	a4,a4,0x3
800026e6:	80003337          	lui	t1,0x80003
800026ea:	00e6d8b3          	srl	a7,a3,a4
800026ee:	a6830313          	addi	t1,t1,-1432 # 80002a68 <__global_pointer$+0xfffff6c4>
800026f2:	989a                	add	a7,a7,t1
800026f4:	0008ce83          	lbu	t4,0(a7) # 1000000 <_tbss_end+0x1000000>
800026f8:	02000e13          	li	t3,32
800026fc:	9eba                	add	t4,t4,a4
800026fe:	41de0e33          	sub	t3,t3,t4
80002702:	020e1763          	bnez	t3,80002730 <__umoddi3+0x236>
80002706:	00b6e463          	bltu	a3,a1,8000270e <__umoddi3+0x214>
8000270a:	00c56963          	bltu	a0,a2,8000271c <__umoddi3+0x222>
8000270e:	40c507b3          	sub	a5,a0,a2
80002712:	8d95                	sub	a1,a1,a3
80002714:	00f53533          	sltu	a0,a0,a5
80002718:	40a58833          	sub	a6,a1,a0
8000271c:	853e                	mv	a0,a5
8000271e:	85c2                	mv	a1,a6
80002720:	b579                	j	800025ae <__umoddi3+0xb4>
80002722:	010008b7          	lui	a7,0x1000
80002726:	4741                	li	a4,16
80002728:	fb16efe3          	bltu	a3,a7,800026e6 <__umoddi3+0x1ec>
8000272c:	4761                	li	a4,24
8000272e:	bf65                	j	800026e6 <__umoddi3+0x1ec>
80002730:	01d65733          	srl	a4,a2,t4
80002734:	01c696b3          	sll	a3,a3,t3
80002738:	8ed9                	or	a3,a3,a4
8000273a:	0106d813          	srli	a6,a3,0x10
8000273e:	01d5d733          	srl	a4,a1,t4
80002742:	03077333          	remu	t1,a4,a6
80002746:	01c595b3          	sll	a1,a1,t3
8000274a:	01d557b3          	srl	a5,a0,t4
8000274e:	8fcd                	or	a5,a5,a1
80002750:	01069593          	slli	a1,a3,0x10
80002754:	81c1                	srli	a1,a1,0x10
80002756:	0107d893          	srli	a7,a5,0x10
8000275a:	01c61633          	sll	a2,a2,t3
8000275e:	01c51533          	sll	a0,a0,t3
80002762:	03075733          	divu	a4,a4,a6
80002766:	0342                	slli	t1,t1,0x10
80002768:	011368b3          	or	a7,t1,a7
8000276c:	02e58f33          	mul	t5,a1,a4
80002770:	833a                	mv	t1,a4
80002772:	01e8fc63          	bgeu	a7,t5,8000278a <__umoddi3+0x290>
80002776:	98b6                	add	a7,a7,a3
80002778:	fff70313          	addi	t1,a4,-1 # ffff <_tbss_end+0xffff>
8000277c:	00d8e763          	bltu	a7,a3,8000278a <__umoddi3+0x290>
80002780:	01e8f563          	bgeu	a7,t5,8000278a <__umoddi3+0x290>
80002784:	ffe70313          	addi	t1,a4,-2
80002788:	98b6                	add	a7,a7,a3
8000278a:	41e888b3          	sub	a7,a7,t5
8000278e:	0308ff33          	remu	t5,a7,a6
80002792:	0308d8b3          	divu	a7,a7,a6
80002796:	0f42                	slli	t5,t5,0x10
80002798:	03158833          	mul	a6,a1,a7
8000279c:	01079593          	slli	a1,a5,0x10
800027a0:	81c1                	srli	a1,a1,0x10
800027a2:	00bf65b3          	or	a1,t5,a1
800027a6:	87c6                	mv	a5,a7
800027a8:	0105fc63          	bgeu	a1,a6,800027c0 <__umoddi3+0x2c6>
800027ac:	95b6                	add	a1,a1,a3
800027ae:	fff88793          	addi	a5,a7,-1 # ffffff <_tbss_end+0xffffff>
800027b2:	00d5e763          	bltu	a1,a3,800027c0 <__umoddi3+0x2c6>
800027b6:	0105f563          	bgeu	a1,a6,800027c0 <__umoddi3+0x2c6>
800027ba:	ffe88793          	addi	a5,a7,-2
800027be:	95b6                	add	a1,a1,a3
800027c0:	0342                	slli	t1,t1,0x10
800027c2:	6f41                	lui	t5,0x10
800027c4:	00f36333          	or	t1,t1,a5
800027c8:	ffff0793          	addi	a5,t5,-1 # ffff <_tbss_end+0xffff>
800027cc:	00f378b3          	and	a7,t1,a5
800027d0:	410585b3          	sub	a1,a1,a6
800027d4:	01035313          	srli	t1,t1,0x10
800027d8:	01065813          	srli	a6,a2,0x10
800027dc:	8ff1                	and	a5,a5,a2
800027de:	02f88733          	mul	a4,a7,a5
800027e2:	02f307b3          	mul	a5,t1,a5
800027e6:	030888b3          	mul	a7,a7,a6
800027ea:	03030333          	mul	t1,t1,a6
800027ee:	98be                	add	a7,a7,a5
800027f0:	01075813          	srli	a6,a4,0x10
800027f4:	9846                	add	a6,a6,a7
800027f6:	00f87363          	bgeu	a6,a5,800027fc <__umoddi3+0x302>
800027fa:	937a                	add	t1,t1,t5
800027fc:	01085793          	srli	a5,a6,0x10
80002800:	933e                	add	t1,t1,a5
80002802:	67c1                	lui	a5,0x10
80002804:	17fd                	addi	a5,a5,-1
80002806:	00f87833          	and	a6,a6,a5
8000280a:	0842                	slli	a6,a6,0x10
8000280c:	8f7d                	and	a4,a4,a5
8000280e:	9742                	add	a4,a4,a6
80002810:	0065e663          	bltu	a1,t1,8000281c <__umoddi3+0x322>
80002814:	00659c63          	bne	a1,t1,8000282c <__umoddi3+0x332>
80002818:	00e57a63          	bgeu	a0,a4,8000282c <__umoddi3+0x332>
8000281c:	40c70633          	sub	a2,a4,a2
80002820:	00c73733          	sltu	a4,a4,a2
80002824:	9736                	add	a4,a4,a3
80002826:	40e30333          	sub	t1,t1,a4
8000282a:	8732                	mv	a4,a2
8000282c:	40e50733          	sub	a4,a0,a4
80002830:	00e53533          	sltu	a0,a0,a4
80002834:	406585b3          	sub	a1,a1,t1
80002838:	8d89                	sub	a1,a1,a0
8000283a:	01d597b3          	sll	a5,a1,t4
8000283e:	01c75733          	srl	a4,a4,t3
80002842:	00e7e533          	or	a0,a5,a4
80002846:	01c5d5b3          	srl	a1,a1,t3
8000284a:	b395                	j	800025ae <__umoddi3+0xb4>

Disassembly of section .rodata:

8000284c <__clz_tab-0x21c>:
8000284c:	6e45                	lui	t3,0x11
8000284e:	6574                	flw	fa3,76(a0)
80002850:	2072                	fld	ft0,280(sp)
80002852:	2032                	fld	ft0,264(sp)
80002854:	756e                	flw	fa0,248(sp)
80002856:	626d                	lui	tp,0x1b
80002858:	7265                	lui	tp,0xffff9
8000285a:	00000a73          	0xa73
8000285e:	0000                	unimp
80002860:	6120                	flw	fs0,64(a0)
80002862:	3d20                	fld	fs0,120(a0)
80002864:	2020                	fld	fs0,64(s0)
80002866:	6425                	lui	s0,0x9
80002868:	0000                	unimp
8000286a:	0000                	unimp
8000286c:	6220                	flw	fs0,64(a2)
8000286e:	3d20                	fld	fs0,120(a0)
80002870:	2020                	fld	fs0,64(s0)
80002872:	6425                	lui	s0,0x9
80002874:	0000                	unimp
80002876:	0000                	unimp
80002878:	6e45                	lui	t3,0x11
8000287a:	6574                	flw	fa3,76(a0)
8000287c:	2072                	fld	ft0,280(sp)
8000287e:	7265706f          	j	80059fa4 <__global_pointer$+0x56c00>
80002882:	7461                	lui	s0,0xffff8
80002884:	6f69                	lui	t5,0x1a
80002886:	206e                	fld	ft0,216(sp)
80002888:	2e31                	jal	80002ba4 <counters>
8000288a:	6441                	lui	s0,0x10
8000288c:	2064                	fld	fs1,192(s0)
8000288e:	2e32                	fld	ft8,264(sp)
80002890:	74627553          	0x74627553
80002894:	6172                	flw	ft2,28(sp)
80002896:	33207463          	bgeu	zero,s2,80002bbe <_end+0xa>
8000289a:	4d2e                	lw	s10,200(sp)
8000289c:	6c75                	lui	s8,0x1d
8000289e:	6974                	flw	fa3,84(a0)
800028a0:	6c70                	flw	fa2,92(s0)
800028a2:	2079                	jal	80002930 <__umoddi3+0x436>
800028a4:	2e34                	fld	fa3,88(a2)
800028a6:	6944                	flw	fs1,20(a0)
800028a8:	6976                	flw	fs2,92(sp)
800028aa:	6564                	flw	fs1,76(a0)
800028ac:	000a                	c.slli	zero,0x2
800028ae:	0000                	unimp
800028b0:	6320                	flw	fs0,64(a4)
800028b2:	3d20                	fld	fs0,120(a0)
800028b4:	2020                	fld	fs0,64(s0)
800028b6:	6425                	lui	s0,0x9
800028b8:	0000                	unimp
800028ba:	0000                	unimp
800028bc:	540a                	lw	s0,160(sp)
800028be:	6568                	flw	fa0,76(a0)
800028c0:	7220                	flw	fs0,96(a2)
800028c2:	7365                	lui	t1,0xffff9
800028c4:	6c75                	lui	s8,0x1d
800028c6:	2074                	fld	fa3,192(s0)
800028c8:	7369                	lui	t1,0xffffa
800028ca:	2520                	fld	fs0,72(a0)
800028cc:	0064                	addi	s1,sp,12
800028ce:	0000                	unimp
800028d0:	636d                	lui	t1,0x1b
800028d2:	6379                	lui	t1,0x1e
800028d4:	656c                	flw	fa1,76(a0)
800028d6:	0000                	unimp
800028d8:	696d                	lui	s2,0x1b
800028da:	736e                	flw	ft6,248(sp)
800028dc:	7274                	flw	fa3,100(a2)
800028de:	7465                	lui	s0,0xffff9
800028e0:	0000                	unimp
800028e2:	0000                	unimp
800028e4:	6d49                	lui	s10,0x12
800028e6:	6c70                	flw	fa2,92(s0)
800028e8:	6d65                	lui	s10,0x19
800028ea:	6e65                	lui	t3,0x19
800028ec:	2074                	fld	fa3,192(s0)
800028ee:	616d                	addi	sp,sp,240
800028f0:	6e69                	lui	t3,0x1a
800028f2:	2928                	fld	fa0,80(a0)
800028f4:	202c                	fld	fa1,64(s0)
800028f6:	6f66                	flw	ft10,88(sp)
800028f8:	000a216f          	jal	sp,800a48f8 <__global_pointer$+0xa1554>
800028fc:	7325                	lui	t1,0xfffe9
800028fe:	3d20                	fld	fs0,120(a0)
80002900:	2520                	fld	fs0,72(a0)
80002902:	0a64                	addi	s1,sp,284
80002904:	0000                	unimp
80002906:	0000                	unimp
80002908:	6e28                	flw	fa0,88(a2)
8000290a:	6c75                	lui	s8,0x1d
8000290c:	296c                	fld	fa1,208(a0)
8000290e:	0000                	unimp
80002910:	f272                	fsw	ft8,36(sp)
80002912:	ffff                	0xffff
80002914:	f4bc                	fsw	fa5,104(s1)
80002916:	ffff                	0xffff
80002918:	f4ae                	fsw	fa1,104(sp)
8000291a:	ffff                	0xffff
8000291c:	f4bc                	fsw	fa5,104(s1)
8000291e:	ffff                	0xffff
80002920:	f4bc                	fsw	fa5,104(s1)
80002922:	ffff                	0xffff
80002924:	f4bc                	fsw	fa5,104(s1)
80002926:	ffff                	0xffff
80002928:	f4bc                	fsw	fa5,104(s1)
8000292a:	ffff                	0xffff
8000292c:	f250                	fsw	fa2,36(a2)
8000292e:	ffff                	0xffff
80002930:	f4bc                	fsw	fa5,104(s1)
80002932:	ffff                	0xffff
80002934:	f4bc                	fsw	fa5,104(s1)
80002936:	ffff                	0xffff
80002938:	f1fc                	fsw	fa5,100(a1)
8000293a:	ffff                	0xffff
8000293c:	f264                	fsw	fs1,100(a2)
8000293e:	ffff                	0xffff
80002940:	f4bc                	fsw	fa5,104(s1)
80002942:	ffff                	0xffff
80002944:	f206                	fsw	ft1,36(sp)
80002946:	ffff                	0xffff
80002948:	f210                	fsw	fa2,32(a2)
8000294a:	ffff                	0xffff
8000294c:	f210                	fsw	fa2,32(a2)
8000294e:	ffff                	0xffff
80002950:	f210                	fsw	fa2,32(a2)
80002952:	ffff                	0xffff
80002954:	f210                	fsw	fa2,32(a2)
80002956:	ffff                	0xffff
80002958:	f210                	fsw	fa2,32(a2)
8000295a:	ffff                	0xffff
8000295c:	f210                	fsw	fa2,32(a2)
8000295e:	ffff                	0xffff
80002960:	f210                	fsw	fa2,32(a2)
80002962:	ffff                	0xffff
80002964:	f210                	fsw	fa2,32(a2)
80002966:	ffff                	0xffff
80002968:	f210                	fsw	fa2,32(a2)
8000296a:	ffff                	0xffff
8000296c:	f4bc                	fsw	fa5,104(s1)
8000296e:	ffff                	0xffff
80002970:	f4bc                	fsw	fa5,104(s1)
80002972:	ffff                	0xffff
80002974:	f4bc                	fsw	fa5,104(s1)
80002976:	ffff                	0xffff
80002978:	f4bc                	fsw	fa5,104(s1)
8000297a:	ffff                	0xffff
8000297c:	f4bc                	fsw	fa5,104(s1)
8000297e:	ffff                	0xffff
80002980:	f4bc                	fsw	fa5,104(s1)
80002982:	ffff                	0xffff
80002984:	f4bc                	fsw	fa5,104(s1)
80002986:	ffff                	0xffff
80002988:	f4bc                	fsw	fa5,104(s1)
8000298a:	ffff                	0xffff
8000298c:	f4bc                	fsw	fa5,104(s1)
8000298e:	ffff                	0xffff
80002990:	f4bc                	fsw	fa5,104(s1)
80002992:	ffff                	0xffff
80002994:	f4bc                	fsw	fa5,104(s1)
80002996:	ffff                	0xffff
80002998:	f4bc                	fsw	fa5,104(s1)
8000299a:	ffff                	0xffff
8000299c:	f4bc                	fsw	fa5,104(s1)
8000299e:	ffff                	0xffff
800029a0:	f4bc                	fsw	fa5,104(s1)
800029a2:	ffff                	0xffff
800029a4:	f4bc                	fsw	fa5,104(s1)
800029a6:	ffff                	0xffff
800029a8:	f4bc                	fsw	fa5,104(s1)
800029aa:	ffff                	0xffff
800029ac:	f4bc                	fsw	fa5,104(s1)
800029ae:	ffff                	0xffff
800029b0:	f4bc                	fsw	fa5,104(s1)
800029b2:	ffff                	0xffff
800029b4:	f4bc                	fsw	fa5,104(s1)
800029b6:	ffff                	0xffff
800029b8:	f4bc                	fsw	fa5,104(s1)
800029ba:	ffff                	0xffff
800029bc:	f4bc                	fsw	fa5,104(s1)
800029be:	ffff                	0xffff
800029c0:	f4bc                	fsw	fa5,104(s1)
800029c2:	ffff                	0xffff
800029c4:	f4bc                	fsw	fa5,104(s1)
800029c6:	ffff                	0xffff
800029c8:	f4bc                	fsw	fa5,104(s1)
800029ca:	ffff                	0xffff
800029cc:	f4bc                	fsw	fa5,104(s1)
800029ce:	ffff                	0xffff
800029d0:	f4bc                	fsw	fa5,104(s1)
800029d2:	ffff                	0xffff
800029d4:	f4bc                	fsw	fa5,104(s1)
800029d6:	ffff                	0xffff
800029d8:	f4bc                	fsw	fa5,104(s1)
800029da:	ffff                	0xffff
800029dc:	f4bc                	fsw	fa5,104(s1)
800029de:	ffff                	0xffff
800029e0:	f4bc                	fsw	fa5,104(s1)
800029e2:	ffff                	0xffff
800029e4:	f4bc                	fsw	fa5,104(s1)
800029e6:	ffff                	0xffff
800029e8:	f4bc                	fsw	fa5,104(s1)
800029ea:	ffff                	0xffff
800029ec:	f4bc                	fsw	fa5,104(s1)
800029ee:	ffff                	0xffff
800029f0:	f4bc                	fsw	fa5,104(s1)
800029f2:	ffff                	0xffff
800029f4:	f4bc                	fsw	fa5,104(s1)
800029f6:	ffff                	0xffff
800029f8:	f4bc                	fsw	fa5,104(s1)
800029fa:	ffff                	0xffff
800029fc:	f4bc                	fsw	fa5,104(s1)
800029fe:	ffff                	0xffff
80002a00:	f4bc                	fsw	fa5,104(s1)
80002a02:	ffff                	0xffff
80002a04:	f4bc                	fsw	fa5,104(s1)
80002a06:	ffff                	0xffff
80002a08:	f4bc                	fsw	fa5,104(s1)
80002a0a:	ffff                	0xffff
80002a0c:	f4bc                	fsw	fa5,104(s1)
80002a0e:	ffff                	0xffff
80002a10:	f2a0                	fsw	fs0,96(a3)
80002a12:	ffff                	0xffff
80002a14:	f386                	fsw	ft1,228(sp)
80002a16:	ffff                	0xffff
80002a18:	f4bc                	fsw	fa5,104(s1)
80002a1a:	ffff                	0xffff
80002a1c:	f3ee                	fsw	fs11,228(sp)
80002a1e:	ffff                	0xffff
80002a20:	f4bc                	fsw	fa5,104(s1)
80002a22:	ffff                	0xffff
80002a24:	f4bc                	fsw	fa5,104(s1)
80002a26:	ffff                	0xffff
80002a28:	f4bc                	fsw	fa5,104(s1)
80002a2a:	ffff                	0xffff
80002a2c:	f4bc                	fsw	fa5,104(s1)
80002a2e:	ffff                	0xffff
80002a30:	f4bc                	fsw	fa5,104(s1)
80002a32:	ffff                	0xffff
80002a34:	f294                	fsw	fa3,32(a3)
80002a36:	ffff                	0xffff
80002a38:	f4bc                	fsw	fa5,104(s1)
80002a3a:	ffff                	0xffff
80002a3c:	f4bc                	fsw	fa5,104(s1)
80002a3e:	ffff                	0xffff
80002a40:	f468                	fsw	fa0,108(s0)
80002a42:	ffff                	0xffff
80002a44:	f4bc                	fsw	fa5,104(s1)
80002a46:	ffff                	0xffff
80002a48:	f4bc                	fsw	fa5,104(s1)
80002a4a:	ffff                	0xffff
80002a4c:	f4bc                	fsw	fa5,104(s1)
80002a4e:	ffff                	0xffff
80002a50:	f2bc                	fsw	fa5,96(a3)
80002a52:	ffff                	0xffff
80002a54:	f4bc                	fsw	fa5,104(s1)
80002a56:	ffff                	0xffff
80002a58:	f460                	fsw	fs0,108(s0)
80002a5a:	ffff                	0xffff
80002a5c:	f4bc                	fsw	fa5,104(s1)
80002a5e:	ffff                	0xffff
80002a60:	f4bc                	fsw	fa5,104(s1)
80002a62:	ffff                	0xffff
80002a64:	f470                	fsw	fa2,108(s0)
80002a66:	ffff                	0xffff

80002a68 <__clz_tab>:
80002a68:	0100                	addi	s0,sp,128
80002a6a:	0202                	c.slli64	tp
80002a6c:	03030303          	lb	t1,48(t1) # fffe9030 <__global_pointer$+0x7ffe5c8c>
80002a70:	0404                	addi	s1,sp,512
80002a72:	0404                	addi	s1,sp,512
80002a74:	0404                	addi	s1,sp,512
80002a76:	0404                	addi	s1,sp,512
80002a78:	0505                	addi	a0,a0,1
80002a7a:	0505                	addi	a0,a0,1
80002a7c:	0505                	addi	a0,a0,1
80002a7e:	0505                	addi	a0,a0,1
80002a80:	0505                	addi	a0,a0,1
80002a82:	0505                	addi	a0,a0,1
80002a84:	0505                	addi	a0,a0,1
80002a86:	0505                	addi	a0,a0,1
80002a88:	0606                	slli	a2,a2,0x1
80002a8a:	0606                	slli	a2,a2,0x1
80002a8c:	0606                	slli	a2,a2,0x1
80002a8e:	0606                	slli	a2,a2,0x1
80002a90:	0606                	slli	a2,a2,0x1
80002a92:	0606                	slli	a2,a2,0x1
80002a94:	0606                	slli	a2,a2,0x1
80002a96:	0606                	slli	a2,a2,0x1
80002a98:	0606                	slli	a2,a2,0x1
80002a9a:	0606                	slli	a2,a2,0x1
80002a9c:	0606                	slli	a2,a2,0x1
80002a9e:	0606                	slli	a2,a2,0x1
80002aa0:	0606                	slli	a2,a2,0x1
80002aa2:	0606                	slli	a2,a2,0x1
80002aa4:	0606                	slli	a2,a2,0x1
80002aa6:	0606                	slli	a2,a2,0x1
80002aa8:	07070707          	0x7070707
80002aac:	07070707          	0x7070707
80002ab0:	07070707          	0x7070707
80002ab4:	07070707          	0x7070707
80002ab8:	07070707          	0x7070707
80002abc:	07070707          	0x7070707
80002ac0:	07070707          	0x7070707
80002ac4:	07070707          	0x7070707
80002ac8:	07070707          	0x7070707
80002acc:	07070707          	0x7070707
80002ad0:	07070707          	0x7070707
80002ad4:	07070707          	0x7070707
80002ad8:	07070707          	0x7070707
80002adc:	07070707          	0x7070707
80002ae0:	07070707          	0x7070707
80002ae4:	07070707          	0x7070707
80002ae8:	0808                	addi	a0,sp,16
80002aea:	0808                	addi	a0,sp,16
80002aec:	0808                	addi	a0,sp,16
80002aee:	0808                	addi	a0,sp,16
80002af0:	0808                	addi	a0,sp,16
80002af2:	0808                	addi	a0,sp,16
80002af4:	0808                	addi	a0,sp,16
80002af6:	0808                	addi	a0,sp,16
80002af8:	0808                	addi	a0,sp,16
80002afa:	0808                	addi	a0,sp,16
80002afc:	0808                	addi	a0,sp,16
80002afe:	0808                	addi	a0,sp,16
80002b00:	0808                	addi	a0,sp,16
80002b02:	0808                	addi	a0,sp,16
80002b04:	0808                	addi	a0,sp,16
80002b06:	0808                	addi	a0,sp,16
80002b08:	0808                	addi	a0,sp,16
80002b0a:	0808                	addi	a0,sp,16
80002b0c:	0808                	addi	a0,sp,16
80002b0e:	0808                	addi	a0,sp,16
80002b10:	0808                	addi	a0,sp,16
80002b12:	0808                	addi	a0,sp,16
80002b14:	0808                	addi	a0,sp,16
80002b16:	0808                	addi	a0,sp,16
80002b18:	0808                	addi	a0,sp,16
80002b1a:	0808                	addi	a0,sp,16
80002b1c:	0808                	addi	a0,sp,16
80002b1e:	0808                	addi	a0,sp,16
80002b20:	0808                	addi	a0,sp,16
80002b22:	0808                	addi	a0,sp,16
80002b24:	0808                	addi	a0,sp,16
80002b26:	0808                	addi	a0,sp,16
80002b28:	0808                	addi	a0,sp,16
80002b2a:	0808                	addi	a0,sp,16
80002b2c:	0808                	addi	a0,sp,16
80002b2e:	0808                	addi	a0,sp,16
80002b30:	0808                	addi	a0,sp,16
80002b32:	0808                	addi	a0,sp,16
80002b34:	0808                	addi	a0,sp,16
80002b36:	0808                	addi	a0,sp,16
80002b38:	0808                	addi	a0,sp,16
80002b3a:	0808                	addi	a0,sp,16
80002b3c:	0808                	addi	a0,sp,16
80002b3e:	0808                	addi	a0,sp,16
80002b40:	0808                	addi	a0,sp,16
80002b42:	0808                	addi	a0,sp,16
80002b44:	0808                	addi	a0,sp,16
80002b46:	0808                	addi	a0,sp,16
80002b48:	0808                	addi	a0,sp,16
80002b4a:	0808                	addi	a0,sp,16
80002b4c:	0808                	addi	a0,sp,16
80002b4e:	0808                	addi	a0,sp,16
80002b50:	0808                	addi	a0,sp,16
80002b52:	0808                	addi	a0,sp,16
80002b54:	0808                	addi	a0,sp,16
80002b56:	0808                	addi	a0,sp,16
80002b58:	0808                	addi	a0,sp,16
80002b5a:	0808                	addi	a0,sp,16
80002b5c:	0808                	addi	a0,sp,16
80002b5e:	0808                	addi	a0,sp,16
80002b60:	0808                	addi	a0,sp,16
80002b62:	0808                	addi	a0,sp,16
80002b64:	0808                	addi	a0,sp,16
80002b66:	0808                	addi	a0,sp,16

Disassembly of section .eh_frame:

80002b68 <__global_pointer$-0x83c>:
80002b68:	0010                	0x10
80002b6a:	0000                	unimp
80002b6c:	0000                	unimp
80002b6e:	0000                	unimp
80002b70:	7a01                	lui	s4,0xfffe0
80002b72:	0052                	c.slli	zero,0x14
80002b74:	7c01                	lui	s8,0xfffe0
80002b76:	0101                	addi	sp,sp,0
80002b78:	00020d1b          	0x20d1b
80002b7c:	0010                	0x10
80002b7e:	0000                	unimp
80002b80:	0018                	0x18
80002b82:	0000                	unimp
80002b84:	f618                	fsw	fa4,40(a2)
80002b86:	ffff                	0xffff
80002b88:	035e                	slli	t1,t1,0x17
80002b8a:	0000                	unimp
80002b8c:	0000                	unimp
80002b8e:	0000                	unimp
80002b90:	0010                	0x10
80002b92:	0000                	unimp
80002b94:	002c                	addi	a1,sp,8
80002b96:	0000                	unimp
80002b98:	f962                	fsw	fs8,176(sp)
80002b9a:	ffff                	0xffff
80002b9c:	0352                	slli	t1,t1,0x14
80002b9e:	0000                	unimp
80002ba0:	0000                	unimp
	...

Disassembly of section .bss:

80002ba4 <counters>:
	...

80002bac <counter_names>:
	...

Disassembly of section .comment:

00000000 <.comment>:
   0:	3a434347          	fmsub.d	ft6,ft6,ft4,ft7,rmm
   4:	2820                	fld	fs0,80(s0)
   6:	29554e47          	fmsub.s	ft8,fa0,fs5,ft5,rmm
   a:	3820                	fld	fs0,112(s0)
   c:	322e                	fld	ft4,232(sp)
   e:	302e                	fld	ft0,232(sp)
	...

Disassembly of section .riscv.attributes:

00000000 <.riscv.attributes>:
   0:	3241                	jal	fffff980 <__global_pointer$+0x7fffc5dc>
   2:	0000                	unimp
   4:	7200                	flw	fs0,32(a2)
   6:	7369                	lui	t1,0xffffa
   8:	01007663          	bgeu	zero,a6,14 <_tbss_end+0x14>
   c:	0028                	addi	a0,sp,8
   e:	0000                	unimp
  10:	7205                	lui	tp,0xfffe1
  12:	3376                	fld	ft6,376(sp)
  14:	6932                	flw	fs2,12(sp)
  16:	7032                	flw	ft0,44(sp)
  18:	5f30                	lw	a2,120(a4)
  1a:	326d                	jal	fffff9c4 <__global_pointer$+0x7fffc620>
  1c:	3070                	fld	fa2,224(s0)
  1e:	615f 7032 5f30      	0x5f307032615f
  24:	3266                	fld	ft4,120(sp)
  26:	3070                	fld	fa2,224(s0)
  28:	645f 7032 5f30      	0x5f307032645f
  2e:	30703263          	0x30703263
	...

Disassembly of section .debug_info:

00000000 <.debug_info>:
       0:	1216                	slli	tp,tp,0x25
       2:	0000                	unimp
       4:	0004                	0x4
       6:	0000                	unimp
       8:	0000                	unimp
       a:	0104                	addi	s1,sp,128
       c:	0048                	addi	a0,sp,4
       e:	0000                	unimp
      10:	100c                	addi	a1,sp,32
      12:	0005                	c.nop	1
      14:	4100                	lw	s0,0(a0)
      16:	9c000003          	lb	zero,-1600(zero) # fffff9c0 <__global_pointer$+0x7fffc61c>
      1a:	0021                	c.nop	8
      1c:	5e80                	lw	s0,56(a3)
      1e:	00000003          	lb	zero,0(zero) # 0 <_tbss_end>
      22:	0000                	unimp
      24:	0200                	addi	s0,sp,256
      26:	0708                	addi	a0,sp,896
      28:	0304                	addi	s1,sp,384
      2a:	0000                	unimp
      2c:	0402                	c.slli64	s0
      2e:	00030e07          	0x30e07
      32:	0300                	addi	s0,sp,384
      34:	0504                	addi	s1,sp,640
      36:	6e69                	lui	t3,0x1a
      38:	0074                	addi	a3,sp,12
      3a:	0802                	c.slli64	a6
      3c:	1105                	addi	sp,sp,-31
      3e:	0002                	c.slli64	zero
      40:	0200                	addi	s0,sp,256
      42:	0410                	addi	a2,sp,512
      44:	0155                	addi	sp,sp,21
      46:	0000                	unimp
      48:	0102                	c.slli64	sp
      4a:	8006                	c.mv	zero,ra
      4c:	0006                	c.slli	zero,0x1
      4e:	0200                	addi	s0,sp,256
      50:	0801                	addi	a6,a6,0
      52:	067e                	slli	a2,a2,0x1f
      54:	0000                	unimp
      56:	0202                	c.slli64	tp
      58:	0005                	c.nop	1
      5a:	0000                	unimp
      5c:	0200                	addi	s0,sp,256
      5e:	0702                	c.slli64	a4
      60:	032e                	slli	t1,t1,0xb
      62:	0000                	unimp
      64:	0402                	c.slli64	s0
      66:	1605                	addi	a2,a2,-31
      68:	0002                	c.slli64	zero
      6a:	0200                	addi	s0,sp,256
      6c:	0704                	addi	s1,sp,896
      6e:	0309                	addi	t1,t1,2
      70:	0000                	unimp
      72:	f804                	fsw	fs1,48(s0)
      74:	0004                	0x4
      76:	0200                	addi	s0,sp,256
      78:	0d0c                	addi	a1,sp,656
      7a:	00000033          	add	zero,zero,zero
      7e:	c804                	sw	s1,16(s0)
      80:	0004                	0x4
      82:	0300                	addi	s0,sp,384
      84:	0e2c                	addi	a1,sp,792
      86:	0064                	addi	s1,sp,12
      88:	0000                	unimp
      8a:	1104                	addi	s1,sp,160
      8c:	0006                	c.slli	zero,0x1
      8e:	0300                	addi	s0,sp,384
      90:	0e72                	slli	t3,t3,0x1c
      92:	0064                	addi	s1,sp,12
      94:	0000                	unimp
      96:	e804                	fsw	fs1,16(s0)
      98:	0006                	c.slli	zero,0x1
      9a:	0300                	addi	s0,sp,384
      9c:	1791                	addi	a5,a5,-28
      9e:	00000033          	add	zero,zero,zero
      a2:	fb05                	bnez	a4,ffffffd2 <__global_pointer$+0x7fffcc2e>
      a4:	04000003          	lb	zero,64(zero) # 40 <_tbss_end+0x40>
      a8:	0165                	addi	sp,sp,25
      aa:	00002c17          	auipc	s8,0x2
      ae:	0600                	addi	s0,sp,768
      b0:	0304                	addi	s1,sp,384
      b2:	03a6                	slli	t2,t2,0x9
      b4:	00d1                	addi	ra,ra,20
      b6:	0000                	unimp
      b8:	0003e207          	0x3e207
      bc:	0300                	addi	s0,sp,384
      be:	0ca8                	addi	a0,sp,600
      c0:	00a2                	slli	ra,ra,0x8
      c2:	0000                	unimp
      c4:	0002d607          	0x2d607
      c8:	0300                	addi	s0,sp,384
      ca:	13a9                	addi	t2,t2,-22
      cc:	00d1                	addi	ra,ra,20
      ce:	0000                	unimp
      d0:	0800                	addi	s0,sp,16
      d2:	0000004f          	fnmadd.s	ft0,ft0,ft0,ft0,rne
      d6:	00e1                	addi	ra,ra,24
      d8:	0000                	unimp
      da:	2c09                	jal	2ec <_tbss_end+0x2ec>
      dc:	0000                	unimp
      de:	0300                	addi	s0,sp,384
      e0:	0a00                	addi	s0,sp,272
      e2:	0308                	addi	a0,sp,384
      e4:	010509a3          	sb	a6,19(a0)
      e8:	0000                	unimp
      ea:	00044c0b          	0x44c0b
      ee:	0300                	addi	s0,sp,384
      f0:	07a5                	addi	a5,a5,9
      f2:	00000033          	add	zero,zero,zero
      f6:	0b00                	addi	s0,sp,400
      f8:	00000603          	lb	a2,0(zero) # 0 <_tbss_end>
      fc:	af05aa03          	lw	s4,-1296(a1) # fffaf0 <_tbss_end+0xfffaf0>
     100:	0000                	unimp
     102:	0400                	addi	s0,sp,512
     104:	0400                	addi	s0,sp,512
     106:	04ed                	addi	s1,s1,27
     108:	0000                	unimp
     10a:	e103ab03          	lw	s6,-496(t2)
     10e:	0000                	unimp
     110:	0400                	addi	s0,sp,512
     112:	056e                	slli	a0,a0,0x1b
     114:	0000                	unimp
     116:	721baf03          	lw	t5,1825(s7)
     11a:	0000                	unimp
     11c:	0c00                	addi	s0,sp,528
     11e:	0404                	addi	s1,sp,512
     120:	0691                	addi	a3,a3,4
     122:	0000                	unimp
     124:	1605                	addi	a2,a2,-31
     126:	6b19                	lui	s6,0x6
     128:	0000                	unimp
     12a:	0d00                	addi	s0,sp,656
     12c:	0485                	addi	s1,s1,1
     12e:	0000                	unimp
     130:	0518                	addi	a4,sp,640
     132:	0185082f          	0x185082f
     136:	0000                	unimp
     138:	0007a80b          	0x7a80b
     13c:	0500                	addi	s0,sp,640
     13e:	1331                	addi	t1,t1,-20
     140:	0185                	addi	gp,gp,1
     142:	0000                	unimp
     144:	0e00                	addi	s0,sp,784
     146:	6b5f 0500 0732      	0x73205006b5f
     14c:	00000033          	add	zero,zero,zero
     150:	0b04                	addi	s1,sp,400
     152:	05e0                	addi	s0,sp,716
     154:	0000                	unimp
     156:	3205                	jal	fffffa76 <__global_pointer$+0x7fffc6d2>
     158:	0000330b          	0x330b
     15c:	0800                	addi	s0,sp,16
     15e:	00026d0b          	0x26d0b
     162:	0500                	addi	s0,sp,640
     164:	1432                	slli	s0,s0,0x2c
     166:	00000033          	add	zero,zero,zero
     16a:	0b0c                	addi	a1,sp,400
     16c:	000001f3          	0x1f3
     170:	3205                	jal	fffffa90 <__global_pointer$+0x7fffc6ec>
     172:	0000331b          	0x331b
     176:	1000                	addi	s0,sp,32
     178:	5f0e                	lw	t5,224(sp)
     17a:	0078                	addi	a4,sp,12
     17c:	3305                	jal	fffffe9c <__global_pointer$+0x7fffcaf8>
     17e:	00018b0b          	0x18b0b
     182:	1400                	addi	s0,sp,544
     184:	0f00                	addi	s0,sp,912
     186:	2b04                	fld	fs1,16(a4)
     188:	0001                	nop
     18a:	0800                	addi	s0,sp,16
     18c:	011f 0000 019b      	0x19b0000011f
     192:	0000                	unimp
     194:	2c09                	jal	3a6 <_tbss_end+0x3a6>
     196:	0000                	unimp
     198:	0000                	unimp
     19a:	0d00                	addi	s0,sp,656
     19c:	02b9                	addi	t0,t0,14
     19e:	0000                	unimp
     1a0:	0524                	addi	s1,sp,648
     1a2:	021e0837          	lui	a6,0x21e0
     1a6:	0000                	unimp
     1a8:	00018d0b          	0x18d0b
     1ac:	0500                	addi	s0,sp,640
     1ae:	0939                	addi	s2,s2,14
     1b0:	00000033          	add	zero,zero,zero
     1b4:	0b00                	addi	s0,sp,400
     1b6:	0746                	slli	a4,a4,0x11
     1b8:	0000                	unimp
     1ba:	3a05                	jal	fffffaea <__global_pointer$+0x7fffc746>
     1bc:	3309                	jal	fffffebe <__global_pointer$+0x7fffcb1a>
     1be:	0000                	unimp
     1c0:	0400                	addi	s0,sp,512
     1c2:	0001a90b          	0x1a90b
     1c6:	0500                	addi	s0,sp,640
     1c8:	0033093b          	0x33093b
     1cc:	0000                	unimp
     1ce:	0b08                	addi	a0,sp,400
     1d0:	0799                	addi	a5,a5,6
     1d2:	0000                	unimp
     1d4:	3c05                	jal	fffffc04 <__global_pointer$+0x7fffc860>
     1d6:	3309                	jal	fffffed8 <__global_pointer$+0x7fffcb34>
     1d8:	0000                	unimp
     1da:	0c00                	addi	s0,sp,528
     1dc:	0004a20b          	0x4a20b
     1e0:	0500                	addi	s0,sp,640
     1e2:	093d                	addi	s2,s2,15
     1e4:	00000033          	add	zero,zero,zero
     1e8:	0b10                	addi	a2,sp,400
     1ea:	0442                	slli	s0,s0,0x10
     1ec:	0000                	unimp
     1ee:	3e05                	jal	fffffd1e <__global_pointer$+0x7fffc97a>
     1f0:	3309                	jal	fffffef2 <__global_pointer$+0x7fffcb4e>
     1f2:	0000                	unimp
     1f4:	1400                	addi	s0,sp,544
     1f6:	0006d10b          	0x6d10b
     1fa:	0500                	addi	s0,sp,640
     1fc:	0033093f 0b180000 	0xb1800000033093f
     204:	00000577          	0x577
     208:	4005                	c.li	zero,1
     20a:	3309                	jal	ffffff0c <__global_pointer$+0x7fffcb68>
     20c:	0000                	unimp
     20e:	1c00                	addi	s0,sp,560
     210:	00072c0b          	0x72c0b
     214:	0500                	addi	s0,sp,640
     216:	0941                	addi	s2,s2,16
     218:	00000033          	add	zero,zero,zero
     21c:	0020                	addi	s0,sp,8
     21e:	c610                	sw	a2,8(a2)
     220:	0001                	nop
     222:	0800                	addi	s0,sp,16
     224:	0501                	addi	a0,a0,0
     226:	084a                	slli	a6,a6,0x12
     228:	00000263          	beqz	zero,22c <_tbss_end+0x22c>
     22c:	0002600b          	0x2600b
     230:	0500                	addi	s0,sp,640
     232:	02630a4b          	fnmsub.d	fs4,ft6,ft6,ft0,rne
     236:	0000                	unimp
     238:	0b00                	addi	s0,sp,400
     23a:	054a                	slli	a0,a0,0x12
     23c:	0000                	unimp
     23e:	4c05                	li	s8,1
     240:	6309                	lui	t1,0x2
     242:	0002                	c.slli64	zero
     244:	8000                	0x8000
     246:	7511                	lui	a0,0xfffe4
     248:	0006                	c.slli	zero,0x1
     24a:	0500                	addi	s0,sp,640
     24c:	0a4e                	slli	s4,s4,0x13
     24e:	011f 0000 0100      	0x1000000011f
     254:	eb11                	bnez	a4,268 <_tbss_end+0x268>
     256:	0001                	nop
     258:	0500                	addi	s0,sp,640
     25a:	0a51                	addi	s4,s4,20
     25c:	011f 0000 0104      	0x1040000011f
     262:	0800                	addi	s0,sp,16
     264:	011d                	addi	sp,sp,7
     266:	0000                	unimp
     268:	00000273          	0x273
     26c:	2c09                	jal	47e <_tbss_end+0x47e>
     26e:	0000                	unimp
     270:	1f00                	addi	s0,sp,944
     272:	1000                	addi	s0,sp,32
     274:	000004ab          	0x4ab
     278:	0190                	addi	a2,sp,192
     27a:	5d05                	li	s10,-31
     27c:	b608                	fsd	fa0,40(a2)
     27e:	0002                	c.slli64	zero
     280:	0b00                	addi	s0,sp,400
     282:	07a8                	addi	a0,sp,968
     284:	0000                	unimp
     286:	5e05                	li	t3,-31
     288:	b612                	fsd	ft4,296(sp)
     28a:	0002                	c.slli64	zero
     28c:	0000                	unimp
     28e:	0005c70b          	0x5c70b
     292:	0500                	addi	s0,sp,640
     294:	065f 0033 0000      	0x33065f
     29a:	0b04                	addi	s1,sp,400
     29c:	0268                	addi	a0,sp,268
     29e:	0000                	unimp
     2a0:	6105                	addi	sp,sp,32
     2a2:	bc09                	j	fffffcb4 <__global_pointer$+0x7fffc910>
     2a4:	0002                	c.slli64	zero
     2a6:	0800                	addi	s0,sp,16
     2a8:	0001c60b          	0x1c60b
     2ac:	0500                	addi	s0,sp,640
     2ae:	1e62                	slli	t3,t3,0x38
     2b0:	021e                	slli	tp,tp,0x7
     2b2:	0000                	unimp
     2b4:	0088                	addi	a0,sp,64
     2b6:	0273040f          	0x273040f
     2ba:	0000                	unimp
     2bc:	cc08                	sw	a0,24(s0)
     2be:	0002                	c.slli64	zero
     2c0:	cc00                	sw	s0,24(s0)
     2c2:	0002                	c.slli64	zero
     2c4:	0900                	addi	s0,sp,144
     2c6:	002c                	addi	a1,sp,8
     2c8:	0000                	unimp
     2ca:	001f 040f 02d2      	0x2d2040f001f
     2d0:	0000                	unimp
     2d2:	0d12                	slli	s10,s10,0x4
     2d4:	0792                	slli	a5,a5,0x4
     2d6:	0000                	unimp
     2d8:	0508                	addi	a0,sp,640
     2da:	0875                	addi	a6,a6,29
     2dc:	000002fb          	0x2fb
     2e0:	0001a30b          	0x1a30b
     2e4:	0500                	addi	s0,sp,640
     2e6:	1176                	slli	sp,sp,0x3d
     2e8:	000002fb          	0x2fb
     2ec:	0b00                	addi	s0,sp,400
     2ee:	0622                	slli	a2,a2,0x8
     2f0:	0000                	unimp
     2f2:	7705                	lui	a4,0xfffe1
     2f4:	3306                	fld	ft6,96(sp)
     2f6:	0000                	unimp
     2f8:	0400                	addi	s0,sp,512
     2fa:	0f00                	addi	s0,sp,912
     2fc:	4f04                	lw	s1,24(a4)
     2fe:	0000                	unimp
     300:	0d00                	addi	s0,sp,656
     302:	000005a3          	sb	zero,11(zero) # b <_tbss_end+0xb>
     306:	0568                	addi	a0,sp,652
     308:	08b5                	addi	a7,a7,13
     30a:	0444                	addi	s1,sp,516
     30c:	0000                	unimp
     30e:	5f0e                	lw	t5,224(sp)
     310:	0070                	addi	a2,sp,12
     312:	b605                	j	fffffe32 <__global_pointer$+0x7fffca8e>
     314:	fb12                	fsw	ft4,180(sp)
     316:	0002                	c.slli64	zero
     318:	0000                	unimp
     31a:	5f0e                	lw	t5,224(sp)
     31c:	0072                	c.slli	zero,0x1c
     31e:	b705                	j	23e <_tbss_end+0x23e>
     320:	00003307          	fld	ft6,0(zero) # 0 <_tbss_end>
     324:	0400                	addi	s0,sp,512
     326:	5f0e                	lw	t5,224(sp)
     328:	b8050077          	0xb8050077
     32c:	00003307          	fld	ft6,0(zero) # 0 <_tbss_end>
     330:	0800                	addi	s0,sp,16
     332:	0001e40b          	0x1e40b
     336:	0500                	addi	s0,sp,640
     338:	09b9                	addi	s3,s3,14
     33a:	0056                	c.slli	zero,0x15
     33c:	0000                	unimp
     33e:	0b0c                	addi	a1,sp,400
     340:	02e5                	addi	t0,t0,25
     342:	0000                	unimp
     344:	ba05                	j	fffffc74 <__global_pointer$+0x7fffc8d0>
     346:	5609                	li	a2,-30
     348:	0000                	unimp
     34a:	0e00                	addi	s0,sp,784
     34c:	5f0e                	lw	t5,224(sp)
     34e:	6662                	flw	fa2,24(sp)
     350:	0500                	addi	s0,sp,640
     352:	02d311bb          	0x2d311bb
     356:	0000                	unimp
     358:	0b10                	addi	a2,sp,400
     35a:	013d                	addi	sp,sp,15
     35c:	0000                	unimp
     35e:	bc05                	j	fffffd8e <__global_pointer$+0x7fffc9ea>
     360:	00003307          	fld	ft6,0(zero) # 0 <_tbss_end>
     364:	1800                	addi	s0,sp,48
     366:	0001d40b          	0x1d40b
     36a:	0500                	addi	s0,sp,640
     36c:	011d0ac3          	fmadd.s	fs5,fs10,fa7,ft0,rne
     370:	0000                	unimp
     372:	0b1c                	addi	a5,sp,400
     374:	050a                	slli	a0,a0,0x2
     376:	0000                	unimp
     378:	c505                	beqz	a0,3a0 <_tbss_end+0x3a0>
     37a:	c81d                	beqz	s0,3b0 <_tbss_end+0x3b0>
     37c:	0005                	c.nop	1
     37e:	2000                	fld	fs0,0(s0)
     380:	00043b0b          	0x43b0b
     384:	0500                	addi	s0,sp,640
     386:	05f71dc7          	0x5f71dc7
     38a:	0000                	unimp
     38c:	0b24                	addi	s1,sp,408
     38e:	0000060b          	0x60b
     392:	ca05                	beqz	a2,3c2 <_tbss_end+0x3c2>
     394:	1b0d                	addi	s6,s6,-29
     396:	0006                	c.slli	zero,0x1
     398:	2800                	fld	fs0,16(s0)
     39a:	0001960b          	0x1960b
     39e:	0500                	addi	s0,sp,640
     3a0:	063509cb          	fnmsub.q	fs3,fa0,ft3,ft0,rne
     3a4:	0000                	unimp
     3a6:	0e2c                	addi	a1,sp,792
     3a8:	755f 0062 ce05      	0xce050062755f
     3ae:	d311                	beqz	a4,2b2 <_tbss_end+0x2b2>
     3b0:	0002                	c.slli64	zero
     3b2:	3000                	fld	fs0,32(s0)
     3b4:	5f0e                	lw	t5,224(sp)
     3b6:	7075                	c.lui	zero,0xffffd
     3b8:	0500                	addi	s0,sp,640
     3ba:	02fb12cf          	fnmadd.d	ft5,fs6,fa5,ft0,rtz
     3be:	0000                	unimp
     3c0:	0e38                	addi	a4,sp,792
     3c2:	755f 0072 d005      	0xd0050072755f
     3c8:	00003307          	fld	ft6,0(zero) # 0 <_tbss_end>
     3cc:	3c00                	fld	fs0,56(s0)
     3ce:	00019d0b          	0x19d0b
     3d2:	0500                	addi	s0,sp,640
     3d4:	063b11d3          	fadd.q	ft3,fs6,ft3,rtz
     3d8:	0000                	unimp
     3da:	0b40                	addi	s0,sp,404
     3dc:	0714                	addi	a3,sp,896
     3de:	0000                	unimp
     3e0:	d405                	beqz	s0,308 <_tbss_end+0x308>
     3e2:	4b11                	li	s6,4
     3e4:	0006                	c.slli	zero,0x1
     3e6:	4300                	lw	s0,0(a4)
     3e8:	5f0e                	lw	t5,224(sp)
     3ea:	626c                	flw	fa1,68(a2)
     3ec:	0500                	addi	s0,sp,640
     3ee:	02d311d7          	0x2d311d7
     3f2:	0000                	unimp
     3f4:	0b44                	addi	s1,sp,404
     3f6:	0619                	addi	a2,a2,6
     3f8:	0000                	unimp
     3fa:	da05                	beqz	a2,32a <_tbss_end+0x32a>
     3fc:	00003307          	fld	ft6,0(zero) # 0 <_tbss_end>
     400:	4c00                	lw	s0,24(s0)
     402:	00047d0b          	0x47d0b
     406:	0500                	addi	s0,sp,640
     408:	007e0adb          	0x7e0adb
     40c:	0000                	unimp
     40e:	0b50                	addi	a2,sp,404
     410:	010d                	addi	sp,sp,3
     412:	0000                	unimp
     414:	de05                	beqz	a2,34c <_tbss_end+0x34c>
     416:	6212                	flw	ft4,4(sp)
     418:	0004                	0x4
     41a:	5400                	lw	s0,40(s0)
     41c:	0004020b          	0x4020b
     420:	0500                	addi	s0,sp,640
     422:	0ce2                	slli	s9,s9,0x18
     424:	0111                	addi	sp,sp,4
     426:	0000                	unimp
     428:	0b58                	addi	a4,sp,404
     42a:	02cd                	addi	t0,t0,19
     42c:	0000                	unimp
     42e:	e405                	bnez	s0,456 <_tbss_end+0x456>
     430:	050e                	slli	a0,a0,0x3
     432:	0001                	nop
     434:	5c00                	lw	s0,56(s0)
     436:	0005810b          	0x5810b
     43a:	0500                	addi	s0,sp,640
     43c:	09e5                	addi	s3,s3,25
     43e:	00000033          	add	zero,zero,zero
     442:	0064                	addi	s1,sp,12
     444:	00009613          	slli	a2,ra,0x0
     448:	6200                	flw	fs0,0(a2)
     44a:	0004                	0x4
     44c:	1400                	addi	s0,sp,544
     44e:	0462                	slli	s0,s0,0x18
     450:	0000                	unimp
     452:	1d14                	addi	a3,sp,688
     454:	0001                	nop
     456:	1400                	addi	s0,sp,544
     458:	05b6                	slli	a1,a1,0xd
     45a:	0000                	unimp
     45c:	3314                	fld	fa3,32(a4)
     45e:	0000                	unimp
     460:	0000                	unimp
     462:	046d040f          	0x46d040f
     466:	0000                	unimp
     468:	6215                	lui	tp,0x5
     46a:	0004                	0x4
     46c:	1600                	addi	s0,sp,800
     46e:	05e8                	addi	a0,sp,716
     470:	0000                	unimp
     472:	0428                	addi	a0,sp,520
     474:	3905                	jal	a4 <_tbss_end+0xa4>
     476:	0802                	c.slli64	a6
     478:	05b6                	slli	a1,a1,0xd
     47a:	0000                	unimp
     47c:	00056717          	auipc	a4,0x56
     480:	0500                	addi	s0,sp,640
     482:	3307023b          	0x3307023b
     486:	0000                	unimp
     488:	0000                	unimp
     48a:	0006e117          	auipc	sp,0x6e
     48e:	0500                	addi	s0,sp,640
     490:	0240                	addi	s0,sp,260
     492:	0006a70b          	0x6a70b
     496:	0400                	addi	s0,sp,512
     498:	0006c917          	auipc	s2,0x6c
     49c:	0500                	addi	s0,sp,640
     49e:	0240                	addi	s0,sp,260
     4a0:	a714                	fsd	fa3,8(a4)
     4a2:	0006                	c.slli	zero,0x1
     4a4:	0800                	addi	s0,sp,16
     4a6:	00028017          	auipc	zero,0x28
     4aa:	0500                	addi	s0,sp,640
     4ac:	0240                	addi	s0,sp,260
     4ae:	a71e                	fsd	ft7,392(sp)
     4b0:	0006                	c.slli	zero,0x1
     4b2:	0c00                	addi	s0,sp,528
     4b4:	0005c217          	auipc	tp,0x5c
     4b8:	0500                	addi	s0,sp,640
     4ba:	0242                	slli	tp,tp,0x10
     4bc:	3308                	fld	fa0,32(a4)
     4be:	0000                	unimp
     4c0:	1000                	addi	s0,sp,32
     4c2:	00002417          	auipc	s0,0x2
     4c6:	0500                	addi	s0,sp,640
     4c8:	a7080243          	fmadd.q	ft4,fa6,fa6,fs4,rne
     4cc:	0008                	0x8
     4ce:	1400                	addi	s0,sp,544
     4d0:	0002a017          	auipc	zero,0x2a
     4d4:	0500                	addi	s0,sp,640
     4d6:	0246                	slli	tp,tp,0x11
     4d8:	00003307          	fld	ft6,0(zero) # 0 <_tbss_end>
     4dc:	3000                	fld	fs0,32(s0)
     4de:	00078217          	auipc	tp,0x78
     4e2:	0500                	addi	s0,sp,640
     4e4:	bc160247          	0xbc160247
     4e8:	0008                	0x8
     4ea:	3400                	fld	fs0,40(s0)
     4ec:	0004bd17          	auipc	s10,0x4b
     4f0:	0500                	addi	s0,sp,640
     4f2:	0249                	addi	tp,tp,18
     4f4:	00003307          	fld	ft6,0(zero) # 0 <_tbss_end>
     4f8:	3800                	fld	fs0,48(s0)
     4fa:	0005d617          	auipc	a2,0x5d
     4fe:	0500                	addi	s0,sp,640
     500:	cd0a024b          	0xcd0a024b
     504:	0008                	0x8
     506:	3c00                	fld	fs0,56(s0)
     508:	0003da17          	auipc	s4,0x3d
     50c:	0500                	addi	s0,sp,640
     50e:	024e                	slli	tp,tp,0x13
     510:	00018513          	mv	a0,gp
     514:	4000                	lw	s0,0(s0)
     516:	0001ff17          	auipc	t5,0x1f
     51a:	0500                	addi	s0,sp,640
     51c:	3307024f          	fnmadd.d	ft4,fa4,fa6,ft6,rne
     520:	0000                	unimp
     522:	4400                	lw	s0,8(s0)
     524:	00077d17          	auipc	s10,0x77
     528:	0500                	addi	s0,sp,640
     52a:	0250                	addi	a2,sp,260
     52c:	00018513          	mv	a0,gp
     530:	4800                	lw	s0,16(s0)
     532:	0004d917          	auipc	s2,0x4d
     536:	0500                	addi	s0,sp,640
     538:	0251                	addi	tp,tp,20
     53a:	d314                	sw	a3,32(a4)
     53c:	0008                	0x8
     53e:	4c00                	lw	s0,24(s0)
     540:	0002dd17          	auipc	s10,0x2d
     544:	0500                	addi	s0,sp,640
     546:	0254                	addi	a3,sp,260
     548:	00003307          	fld	ft6,0(zero) # 0 <_tbss_end>
     54c:	5000                	lw	s0,32(s0)
     54e:	00022c17          	auipc	s8,0x22
     552:	0500                	addi	s0,sp,640
     554:	0255                	addi	tp,tp,21
     556:	b609                	j	58 <_tbss_end+0x58>
     558:	0005                	c.nop	1
     55a:	5400                	lw	s0,40(s0)
     55c:	00056017          	auipc	zero,0x56
     560:	0500                	addi	s0,sp,640
     562:	0278                	addi	a4,sp,268
     564:	00088207          	0x88207
     568:	5800                	lw	s0,48(s0)
     56a:	ab18                	fsd	fa4,16(a4)
     56c:	0004                	0x4
     56e:	0500                	addi	s0,sp,640
     570:	027c                	addi	a5,sp,268
     572:	0002b613          	sltiu	a2,t0,0
     576:	4800                	lw	s0,16(s0)
     578:	1801                	addi	a6,a6,-32
     57a:	03b8                	addi	a4,sp,456
     57c:	0000                	unimp
     57e:	7d05                	lui	s10,0xfffe1
     580:	1202                	slli	tp,tp,0x20
     582:	00000273          	0x273
     586:	014c                	addi	a1,sp,132
     588:	fb18                	fsw	fa4,48(a4)
     58a:	0006                	c.slli	zero,0x1
     58c:	0500                	addi	s0,sp,640
     58e:	0281                	addi	t0,t0,0
     590:	e40c                	fsw	fa1,8(s0)
     592:	0008                	0x8
     594:	dc00                	sw	s0,56(s0)
     596:	1802                	slli	a6,a6,0x20
     598:	01dc                	addi	a5,sp,196
     59a:	0000                	unimp
     59c:	8605                	srai	a2,a2,0x1
     59e:	1002                	c.slli	zero,0x20
     5a0:	0668                	addi	a0,sp,780
     5a2:	0000                	unimp
     5a4:	02e0                	addi	s0,sp,332
     5a6:	c118                	sw	a4,0(a0)
     5a8:	0001                	nop
     5aa:	0500                	addi	s0,sp,640
     5ac:	0288                	addi	a0,sp,320
     5ae:	f00a                	fsw	ft2,32(sp)
     5b0:	0008                	0x8
     5b2:	ec00                	fsw	fs0,24(s0)
     5b4:	0002                	c.slli64	zero
     5b6:	05bc040f          	0x5bc040f
     5ba:	0000                	unimp
     5bc:	0102                	c.slli64	sp
     5be:	8708                	0x8708
     5c0:	0006                	c.slli	zero,0x1
     5c2:	1500                	addi	s0,sp,672
     5c4:	05bc                	addi	a5,sp,712
     5c6:	0000                	unimp
     5c8:	0444040f          	0x444040f
     5cc:	0000                	unimp
     5ce:	00009613          	slli	a2,ra,0x0
     5d2:	ec00                	fsw	fs0,24(s0)
     5d4:	0005                	c.nop	1
     5d6:	1400                	addi	s0,sp,544
     5d8:	0462                	slli	s0,s0,0x18
     5da:	0000                	unimp
     5dc:	1d14                	addi	a3,sp,688
     5de:	0001                	nop
     5e0:	1400                	addi	s0,sp,544
     5e2:	05ec                	addi	a1,sp,716
     5e4:	0000                	unimp
     5e6:	3314                	fld	fa3,32(a4)
     5e8:	0000                	unimp
     5ea:	0000                	unimp
     5ec:	05c3040f          	0x5c3040f
     5f0:	0000                	unimp
     5f2:	ec15                	bnez	s0,62e <_tbss_end+0x62e>
     5f4:	0005                	c.nop	1
     5f6:	0f00                	addi	s0,sp,912
     5f8:	ce04                	sw	s1,24(a2)
     5fa:	0005                	c.nop	1
     5fc:	1300                	addi	s0,sp,416
     5fe:	008a                	slli	ra,ra,0x2
     600:	0000                	unimp
     602:	0000061b          	0x61b
     606:	6214                	flw	fa3,0(a2)
     608:	0004                	0x4
     60a:	1400                	addi	s0,sp,544
     60c:	011d                	addi	sp,sp,7
     60e:	0000                	unimp
     610:	8a14                	0x8a14
     612:	0000                	unimp
     614:	1400                	addi	s0,sp,544
     616:	00000033          	add	zero,zero,zero
     61a:	0f00                	addi	s0,sp,912
     61c:	fd04                	fsw	fs1,56(a0)
     61e:	0005                	c.nop	1
     620:	1300                	addi	s0,sp,416
     622:	00000033          	add	zero,zero,zero
     626:	0635                	addi	a2,a2,13
     628:	0000                	unimp
     62a:	6214                	flw	fa3,0(a2)
     62c:	0004                	0x4
     62e:	1400                	addi	s0,sp,544
     630:	011d                	addi	sp,sp,7
     632:	0000                	unimp
     634:	0f00                	addi	s0,sp,912
     636:	2104                	fld	fs1,0(a0)
     638:	0006                	c.slli	zero,0x1
     63a:	0800                	addi	s0,sp,16
     63c:	0000004f          	fnmadd.s	ft0,ft0,ft0,ft0,rne
     640:	0000064b          	fnmsub.s	fa2,ft0,ft0,ft0,rne
     644:	2c09                	jal	856 <_tbss_end+0x856>
     646:	0000                	unimp
     648:	0200                	addi	s0,sp,256
     64a:	0800                	addi	s0,sp,16
     64c:	0000004f          	fnmadd.s	ft0,ft0,ft0,ft0,rne
     650:	0000065b          	0x65b
     654:	2c09                	jal	866 <_tbss_end+0x866>
     656:	0000                	unimp
     658:	0000                	unimp
     65a:	0500                	addi	s0,sp,640
     65c:	01f8                	addi	a4,sp,204
     65e:	0000                	unimp
     660:	1f05                	addi	t5,t5,-31
     662:	1a01                	addi	s4,s4,-32
     664:	0301                	addi	t1,t1,0
     666:	0000                	unimp
     668:	db19                	beqz	a4,57e <_tbss_end+0x57e>
     66a:	0006                	c.slli	zero,0x1
     66c:	0c00                	addi	s0,sp,528
     66e:	2305                	jal	b8e <_tbss_end+0xb8e>
     670:	0801                	addi	a6,a6,0
     672:	06a1                	addi	a3,a3,8
     674:	0000                	unimp
     676:	0007a817          	auipc	a6,0x7a
     67a:	0500                	addi	s0,sp,640
     67c:	0125                	addi	sp,sp,9
     67e:	a111                	j	a82 <_tbss_end+0xa82>
     680:	0006                	c.slli	zero,0x1
     682:	0000                	unimp
     684:	0002fd17          	auipc	s10,0x2f
     688:	0500                	addi	s0,sp,640
     68a:	0126                	slli	sp,sp,0x9
     68c:	00003307          	fld	ft6,0(zero) # 0 <_tbss_end>
     690:	0400                	addi	s0,sp,512
     692:	00058917          	auipc	s2,0x58
     696:	0500                	addi	s0,sp,640
     698:	a70b0127          	0xa70b0127
     69c:	0006                	c.slli	zero,0x1
     69e:	0800                	addi	s0,sp,16
     6a0:	0f00                	addi	s0,sp,912
     6a2:	6804                	flw	fs1,16(s0)
     6a4:	0006                	c.slli	zero,0x1
     6a6:	0f00                	addi	s0,sp,912
     6a8:	5b04                	lw	s1,48(a4)
     6aa:	0006                	c.slli	zero,0x1
     6ac:	1900                	addi	s0,sp,176
     6ae:	001c                	0x1c
     6b0:	0000                	unimp
     6b2:	050e                	slli	a0,a0,0x3
     6b4:	e608013f 17000006 	0x17000006e608013f
     6bc:	0645                	addi	a2,a2,17
     6be:	0000                	unimp
     6c0:	4005                	c.li	zero,1
     6c2:	1201                	addi	tp,tp,-32
     6c4:	06e6                	slli	a3,a3,0x19
     6c6:	0000                	unimp
     6c8:	1700                	addi	s0,sp,928
     6ca:	0418                	addi	a4,sp,512
     6cc:	0000                	unimp
     6ce:	4105                	li	sp,1
     6d0:	1201                	addi	tp,tp,-32
     6d2:	06e6                	slli	a3,a3,0x19
     6d4:	0000                	unimp
     6d6:	1706                	slli	a4,a4,0x21
     6d8:	068c                	addi	a1,sp,832
     6da:	0000                	unimp
     6dc:	4205                	li	tp,1
     6de:	1201                	addi	tp,tp,-32
     6e0:	005d                	c.nop	23
     6e2:	0000                	unimp
     6e4:	000c                	0xc
     6e6:	5d08                	lw	a0,56(a0)
     6e8:	0000                	unimp
     6ea:	f600                	fsw	fs0,40(a2)
     6ec:	0006                	c.slli	zero,0x1
     6ee:	0900                	addi	s0,sp,144
     6f0:	002c                	addi	a1,sp,8
     6f2:	0000                	unimp
     6f4:	0002                	c.slli64	zero
     6f6:	d01a                	sw	t1,32(sp)
     6f8:	5905                	li	s2,-31
     6fa:	0702                	c.slli64	a4
     6fc:	0000080b          	0x80b
     700:	00045417          	auipc	s0,0x45
     704:	0500                	addi	s0,sp,640
     706:	2c18025b          	0x2c18025b
     70a:	0000                	unimp
     70c:	0000                	unimp
     70e:	00066117          	auipc	sp,0x66
     712:	0500                	addi	s0,sp,640
     714:	025c                	addi	a5,sp,260
     716:	b612                	fsd	ft4,296(sp)
     718:	0005                	c.nop	1
     71a:	0400                	addi	s0,sp,512
     71c:	0003cd17          	auipc	s10,0x3c
     720:	0500                	addi	s0,sp,640
     722:	025d                	addi	tp,tp,23
     724:	0b10                	addi	a2,sp,400
     726:	0008                	0x8
     728:	0800                	addi	s0,sp,16
     72a:	00073717          	auipc	a4,0x73
     72e:	0500                	addi	s0,sp,640
     730:	025e                	slli	tp,tp,0x17
     732:	00019b17          	auipc	s6,0x19
     736:	2400                	fld	fs0,8(s0)
     738:	00028817          	auipc	a6,0x28
     73c:	0500                	addi	s0,sp,640
     73e:	025f 330f 0000      	0x330f025f
     744:	4800                	lw	s0,16(s0)
     746:	0007a317          	auipc	t1,0x7a
     74a:	0500                	addi	s0,sp,640
     74c:	0260                	addi	s0,sp,268
     74e:	252c                	fld	fa1,72(a0)
     750:	0000                	unimp
     752:	5000                	lw	s0,32(s0)
     754:	00074f17          	auipc	t5,0x74
     758:	0500                	addi	s0,sp,640
     75a:	0261                	addi	tp,tp,24
     75c:	ad1a                	fsd	ft6,152(sp)
     75e:	0006                	c.slli	zero,0x1
     760:	5800                	lw	s0,48(s0)
     762:	0005b517          	auipc	a0,0x5b
     766:	0500                	addi	s0,sp,640
     768:	0262                	slli	tp,tp,0x18
     76a:	0516                	slli	a0,a0,0x5
     76c:	0001                	nop
     76e:	6800                	flw	fs0,16(s0)
     770:	00076f17          	auipc	t5,0x76
     774:	0500                	addi	s0,sp,640
     776:	05160263          	beq	a2,a7,7ba <_tbss_end+0x7ba>
     77a:	0001                	nop
     77c:	7000                	flw	fs0,32(s0)
     77e:	0001b317          	auipc	t1,0x1b
     782:	0500                	addi	s0,sp,640
     784:	0264                	addi	s1,sp,268
     786:	0516                	slli	a0,a0,0x5
     788:	0001                	nop
     78a:	7800                	flw	fs0,48(s0)
     78c:	0006f117          	auipc	sp,0x6f
     790:	0500                	addi	s0,sp,640
     792:	0265                	addi	tp,tp,25
     794:	1b10                	addi	a2,sp,432
     796:	0008                	0x8
     798:	8000                	0x8000
     79a:	0003c117          	auipc	sp,0x3c
     79e:	0500                	addi	s0,sp,640
     7a0:	0266                	slli	tp,tp,0x19
     7a2:	2b10                	fld	fa2,16(a4)
     7a4:	0008                	0x8
     7a6:	8800                	0x8800
     7a8:	00027317          	auipc	t1,0x27
     7ac:	0500                	addi	s0,sp,640
     7ae:	330f0267          	jalr	tp,816(t5) # 76aa0 <_tbss_end+0x76aa0>
     7b2:	0000                	unimp
     7b4:	a000                	fsd	fs0,0(s0)
     7b6:	00024517          	auipc	a0,0x24
     7ba:	0500                	addi	s0,sp,640
     7bc:	0268                	addi	a0,sp,268
     7be:	0516                	slli	a0,a0,0x5
     7c0:	0001                	nop
     7c2:	a400                	fsd	fs0,8(s0)
     7c4:	00017617          	auipc	a2,0x17
     7c8:	0500                	addi	s0,sp,640
     7ca:	0269                	addi	tp,tp,26
     7cc:	0516                	slli	a0,a0,0x5
     7ce:	0001                	nop
     7d0:	ac00                	fsd	fs0,24(s0)
     7d2:	00023417          	auipc	s0,0x23
     7d6:	0500                	addi	s0,sp,640
     7d8:	026a                	slli	tp,tp,0x1a
     7da:	0516                	slli	a0,a0,0x5
     7dc:	0001                	nop
     7de:	b400                	fsd	fs0,40(s0)
     7e0:	00011317          	auipc	t1,0x11
     7e4:	0500                	addi	s0,sp,640
     7e6:	0516026b          	0x516026b
     7ea:	0001                	nop
     7ec:	bc00                	fsd	fs0,56(s0)
     7ee:	00012217          	auipc	tp,0x12
     7f2:	0500                	addi	s0,sp,640
     7f4:	026c                	addi	a1,sp,268
     7f6:	0516                	slli	a0,a0,0x5
     7f8:	0001                	nop
     7fa:	c400                	sw	s0,8(s0)
     7fc:	00056517          	auipc	a0,0x56
     800:	0500                	addi	s0,sp,640
     802:	026d                	addi	tp,tp,27
     804:	3308                	fld	fa0,32(a4)
     806:	0000                	unimp
     808:	cc00                	sw	s0,24(s0)
     80a:	0800                	addi	s0,sp,16
     80c:	05bc                	addi	a5,sp,712
     80e:	0000                	unimp
     810:	0000081b          	0x81b
     814:	2c09                	jal	a26 <_tbss_end+0xa26>
     816:	0000                	unimp
     818:	1900                	addi	s0,sp,176
     81a:	0800                	addi	s0,sp,16
     81c:	05bc                	addi	a5,sp,712
     81e:	0000                	unimp
     820:	0000082b          	0x82b
     824:	2c09                	jal	a36 <_tbss_end+0xa36>
     826:	0000                	unimp
     828:	0700                	addi	s0,sp,896
     82a:	0800                	addi	s0,sp,16
     82c:	05bc                	addi	a5,sp,712
     82e:	0000                	unimp
     830:	0000083b          	0x83b
     834:	2c09                	jal	a46 <_tbss_end+0xa46>
     836:	0000                	unimp
     838:	1700                	addi	s0,sp,928
     83a:	1a00                	addi	s0,sp,304
     83c:	05f0                	addi	a2,sp,716
     83e:	0272                	slli	tp,tp,0x1c
     840:	00086207          	0x86207
     844:	1700                	addi	s0,sp,928
     846:	048d                	addi	s1,s1,3
     848:	0000                	unimp
     84a:	7505                	lui	a0,0xfffe1
     84c:	1b02                	slli	s6,s6,0x20
     84e:	0862                	slli	a6,a6,0x18
     850:	0000                	unimp
     852:	1700                	addi	s0,sp,928
     854:	00000297          	auipc	t0,0x0
     858:	7605                	lui	a2,0xfffe1
     85a:	1802                	slli	a6,a6,0x20
     85c:	0872                	slli	a6,a6,0x1c
     85e:	0000                	unimp
     860:	0078                	addi	a4,sp,12
     862:	fb08                	fsw	fa0,48(a4)
     864:	0002                	c.slli64	zero
     866:	7200                	flw	fs0,32(a2)
     868:	0008                	0x8
     86a:	0900                	addi	s0,sp,144
     86c:	002c                	addi	a1,sp,8
     86e:	0000                	unimp
     870:	001d                	c.nop	7
     872:	2c08                	fld	fa0,24(s0)
     874:	0000                	unimp
     876:	8200                	0x8200
     878:	0008                	0x8
     87a:	0900                	addi	s0,sp,144
     87c:	002c                	addi	a1,sp,8
     87e:	0000                	unimp
     880:	001d                	c.nop	7
     882:	5705f01b          	0x5705f01b
     886:	0302                	c.slli64	t1
     888:	000008a7          	0x8a7
     88c:	e81c                	fsw	fa5,16(s0)
     88e:	0005                	c.nop	1
     890:	0500                	addi	s0,sp,640
     892:	026e                	slli	tp,tp,0x1b
     894:	0006f60b          	0x6f60b
     898:	1c00                	addi	s0,sp,560
     89a:	071a                	slli	a4,a4,0x6
     89c:	0000                	unimp
     89e:	7705                	lui	a4,0xfffe1
     8a0:	0b02                	c.slli64	s6
     8a2:	0000083b          	0x83b
     8a6:	0800                	addi	s0,sp,16
     8a8:	05bc                	addi	a5,sp,712
     8aa:	0000                	unimp
     8ac:	000008b7          	lui	a7,0x0
     8b0:	2c09                	jal	ac2 <_tbss_end+0xac2>
     8b2:	0000                	unimp
     8b4:	1800                	addi	s0,sp,48
     8b6:	1d00                	addi	s0,sp,688
     8b8:	0000016b          	0x16b
     8bc:	08b7040f          	0x8b7040f
     8c0:	0000                	unimp
     8c2:	cd1e                	sw	t2,152(sp)
     8c4:	0008                	0x8
     8c6:	1400                	addi	s0,sp,544
     8c8:	0462                	slli	s0,s0,0x18
     8ca:	0000                	unimp
     8cc:	0f00                	addi	s0,sp,912
     8ce:	c204                	sw	s1,0(a2)
     8d0:	0008                	0x8
     8d2:	0f00                	addi	s0,sp,912
     8d4:	8504                	0x8504
     8d6:	0001                	nop
     8d8:	1e00                	addi	s0,sp,816
     8da:	08e4                	addi	s1,sp,92
     8dc:	0000                	unimp
     8de:	3314                	fld	fa3,32(a4)
     8e0:	0000                	unimp
     8e2:	0000                	unimp
     8e4:	08ea040f          	0x8ea040f
     8e8:	0000                	unimp
     8ea:	08d9040f          	0x8d9040f
     8ee:	0000                	unimp
     8f0:	5b08                	lw	a0,48(a4)
     8f2:	0006                	c.slli	zero,0x1
     8f4:	0000                	unimp
     8f6:	0009                	c.nop	2
     8f8:	0900                	addi	s0,sp,144
     8fa:	002c                	addi	a1,sp,8
     8fc:	0000                	unimp
     8fe:	0002                	c.slli64	zero
     900:	b51f 0006 0500      	0x5000006b51f
     906:	62170307          	0x62170307
     90a:	0004                	0x4
     90c:	1f00                	addi	s0,sp,944
     90e:	06ae                	slli	a3,a3,0xb
     910:	0000                	unimp
     912:	0805                	addi	a6,a6,1
     914:	04681d03          	lh	s10,70(a6) # 2877e <_tbss_end+0x2877e>
     918:	0000                	unimp
     91a:	f208                	fsw	fa0,32(a2)
     91c:	0005                	c.nop	1
     91e:	2500                	fld	fs0,8(a0)
     920:	0009                	c.nop	2
     922:	2000                	fld	fs0,0(s0)
     924:	1500                	addi	s0,sp,672
     926:	091a                	slli	s2,s2,0x6
     928:	0000                	unimp
     92a:	1f21                	addi	t5,t5,-24
     92c:	0002                	c.slli64	zero
     92e:	0600                	addi	s0,sp,768
     930:	2414                	fld	fa3,8(s0)
     932:	0925                	addi	s2,s2,9
     934:	0000                	unimp
     936:	ab21                	j	e4e <_tbss_end+0xe4e>
     938:	0005                	c.nop	1
     93a:	0600                	addi	s0,sp,768
     93c:	1515                	addi	a0,a0,-27
     93e:	00000033          	add	zero,zero,zero
     942:	0948040f          	0x948040f
     946:	0000                	unimp
     948:	00003313          	sltiu	t1,zero,0
     94c:	5c00                	lw	s0,56(s0)
     94e:	0009                	c.nop	2
     950:	1400                	addi	s0,sp,544
     952:	095c                	addi	a5,sp,148
     954:	0000                	unimp
     956:	5c14                	lw	a3,56(s0)
     958:	0009                	c.nop	2
     95a:	0000                	unimp
     95c:	0962040f          	0x962040f
     960:	0000                	unimp
     962:	2122                	fld	ft2,8(sp)
     964:	000004b3          	add	s1,zero,zero
     968:	b60e6307          	0xb60e6307
     96c:	0005                	c.nop	1
     96e:	2100                	fld	fs0,0(a0)
     970:	000003f3          	0x3f3
     974:	1008                	addi	a0,sp,32
     976:	00097b0f          	0x97b0f
     97a:	0f00                	addi	s0,sp,912
     97c:	b604                	fsd	fs1,40(a2)
     97e:	0005                	c.nop	1
     980:	2100                	fld	fs0,0(a0)
     982:	04b6                	slli	s1,s1,0xd
     984:	0000                	unimp
     986:	fc08                	fsw	fa0,56(s0)
     988:	b60e                	fsd	ft3,296(sp)
     98a:	0005                	c.nop	1
     98c:	2100                	fld	fs0,0(a0)
     98e:	0146                	slli	sp,sp,0x11
     990:	0000                	unimp
     992:	fd08                	fsw	fa0,56(a0)
     994:	330c                	fld	fa1,32(a4)
     996:	0000                	unimp
     998:	2100                	fld	fs0,0(a0)
     99a:	0000064b          	fnmsub.s	fa2,ft0,ft0,ft0,rne
     99e:	fd08                	fsw	fa0,56(a0)
     9a0:	3314                	fld	fa3,32(a4)
     9a2:	0000                	unimp
     9a4:	2100                	fld	fs0,0(a0)
     9a6:	075e                	slli	a4,a4,0x17
     9a8:	0000                	unimp
     9aa:	fd08                	fsw	fa0,56(a0)
     9ac:	331c                	fld	fa5,32(a4)
     9ae:	0000                	unimp
     9b0:	2100                	fld	fs0,0(a0)
     9b2:	0432                	slli	s0,s0,0xc
     9b4:	0000                	unimp
     9b6:	ff08                	fsw	fa0,56(a4)
     9b8:	330c                	fld	fa1,32(a4)
     9ba:	0000                	unimp
     9bc:	2100                	fld	fs0,0(a0)
     9be:	000004e3          	beqz	zero,11c6 <_tbss_end+0x11c6>
     9c2:	9a09                	andi	a2,a2,-30
     9c4:	6416                	flw	fs0,68(sp)
     9c6:	0000                	unimp
     9c8:	2100                	fld	fs0,0(a0)
     9ca:	0000002f          	0x2f
     9ce:	9b09                	andi	a4,a4,-30
     9d0:	3315                	jal	6f4 <_tbss_end+0x6f4>
     9d2:	0000                	unimp
     9d4:	0800                	addi	s0,sp,16
     9d6:	05b6                	slli	a1,a1,0xd
     9d8:	0000                	unimp
     9da:	09e5                	addi	s3,s3,25
     9dc:	0000                	unimp
     9de:	2c09                	jal	bf0 <_tbss_end+0xbf0>
     9e0:	0000                	unimp
     9e2:	0100                	addi	s0,sp,128
     9e4:	2100                	fld	fs0,0(a0)
     9e6:	0185                	addi	gp,gp,1
     9e8:	0000                	unimp
     9ea:	9e09                	0x9e09
     9ec:	0009d517          	auipc	a0,0x9d
     9f0:	0400                	addi	s0,sp,512
     9f2:	000002eb          	0x2eb
     9f6:	2a0a                	fld	fs4,128(sp)
     9f8:	2c16                	fld	fs8,320(sp)
     9fa:	0000                	unimp
     9fc:	0400                	addi	s0,sp,512
     9fe:	0599                	addi	a1,a1,6
     a00:	0000                	unimp
     a02:	2f0a                	fld	ft10,128(sp)
     a04:	0915                	addi	s2,s2,5
     a06:	000a                	c.slli	zero,0x2
     a08:	0f00                	addi	s0,sp,912
     a0a:	0f04                	addi	s1,sp,912
     a0c:	000a                	c.slli	zero,0x2
     a0e:	1300                	addi	s0,sp,416
     a10:	09f1                	addi	s3,s3,28
     a12:	0000                	unimp
     a14:	0a1e                	slli	s4,s4,0x7
     a16:	0000                	unimp
     a18:	5c14                	lw	a3,56(s0)
     a1a:	0009                	c.nop	2
     a1c:	0000                	unimp
     a1e:	ae04                	fsd	fs1,24(a2)
     a20:	0a000007          	0xa000007
     a24:	0f36                	slli	t5,t5,0xd
     a26:	0942                	slli	s2,s2,0x10
     a28:	0000                	unimp
     a2a:	0a21                	addi	s4,s4,8
     a2c:	0000                	unimp
     a2e:	0a00                	addi	s0,sp,272
     a30:	09fd12bb          	0x9fd12bb
     a34:	0000                	unimp
     a36:	9921                	andi	a0,a0,-24
     a38:	0006                	c.slli	zero,0x1
     a3a:	0a00                	addi	s0,sp,272
     a3c:	10be                	slli	ra,ra,0x2f
     a3e:	0a1e                	slli	s4,s4,0x7
     a40:	0000                	unimp
     a42:	0002be23          	0x2be23
     a46:	0700                	addi	s0,sp,896
     a48:	2c04                	fld	fs1,24(s0)
     a4a:	0000                	unimp
     a4c:	0b00                	addi	s0,sp,400
     a4e:	0618                	addi	a4,sp,768
     a50:	0a7f                	0xa7f
     a52:	0000                	unimp
     a54:	4024                	lw	s1,64(s0)
     a56:	0005                	c.nop	1
     a58:	0000                	unimp
     a5a:	0d24                	addi	s1,sp,664
     a5c:	0004                	0x4
     a5e:	0100                	addi	s0,sp,128
     a60:	e824                	fsw	fs1,80(s0)
     a62:	02000003          	lb	zero,32(zero) # 20 <_tbss_end+0x20>
     a66:	6124                	flw	fs1,64(a0)
     a68:	0004                	0x4
     a6a:	0300                	addi	s0,sp,384
     a6c:	3724                	fld	fs1,104(a4)
     a6e:	0005                	c.nop	1
     a70:	0400                	addi	s0,sp,512
     a72:	6524                	flw	fs1,72(a0)
     a74:	05000007          	0x5000007
     a78:	5424                	lw	s1,104(s0)
     a7a:	06000007          	0x6000007
     a7e:	2100                	fld	fs0,0(a0)
     a80:	0161                	addi	sp,sp,24
     a82:	0000                	unimp
     a84:	421c210b          	0x421c210b
     a88:	000a                	c.slli	zero,0x2
     a8a:	2300                	fld	fs0,0(a4)
     a8c:	046c                	addi	a1,sp,524
     a8e:	0000                	unimp
     a90:	002c0407          	0x2c0407
     a94:	0000                	unimp
     a96:	b006230b          	0xb006230b
     a9a:	000a                	c.slli	zero,0x2
     a9c:	2400                	fld	fs0,8(s0)
     a9e:	0000058f          	0x58f
     aa2:	2400                	fld	fs0,8(s0)
     aa4:	0556                	slli	a0,a0,0x15
     aa6:	0000                	unimp
     aa8:	2401                	jal	ca8 <_tbss_end+0xca8>
     aaa:	066e                	slli	a2,a2,0x1b
     aac:	0000                	unimp
     aae:	0002                	c.slli64	zero
     ab0:	5321                	li	t1,-24
     ab2:	0002                	c.slli64	zero
     ab4:	0b00                	addi	s0,sp,400
     ab6:	1e28                	addi	a0,sp,824
     ab8:	00000a8b          	0xa8b
     abc:	2321                	jal	fc4 <_tbss_end+0xfc4>
     abe:	0004                	0x4
     ac0:	0c00                	addi	s0,sp,528
     ac2:	1a29                	addi	s4,s4,-22
     ac4:	0925                	addi	s2,s2,9
     ac6:	0000                	unimp
     ac8:	3521                	jal	8d0 <_tbss_end+0x8d0>
     aca:	0006                	c.slli	zero,0x1
     acc:	0c00                	addi	s0,sp,528
     ace:	1a38                	addi	a4,sp,312
     ad0:	0925                	addi	s2,s2,9
     ad2:	0000                	unimp
     ad4:	8a04                	0x8a04
     ad6:	0d000007          	0xd000007
     ada:	004f167b          	0x4f167b
     ade:	0000                	unimp
     ae0:	d415                	beqz	s0,a0c <_tbss_end+0xa0c>
     ae2:	000a                	c.slli	zero,0x2
     ae4:	0400                	addi	s0,sp,512
     ae6:	020a                	slli	tp,tp,0x2
     ae8:	0000                	unimp
     aea:	800d                	srli	s0,s0,0x3
     aec:	0000330f          	0x330f
     af0:	0400                	addi	s0,sp,512
     af2:	0209                	addi	tp,tp,2
     af4:	0000                	unimp
     af6:	810d                	srli	a0,a0,0x3
     af8:	2c16                	fld	fs8,320(sp)
     afa:	0000                	unimp
     afc:	0400                	addi	s0,sp,512
     afe:	06c2                	slli	a3,a3,0x10
     b00:	0000                	unimp
     b02:	840d                	srai	s0,s0,0x3
     b04:	00003a0f          	0x3a0f
     b08:	0400                	addi	s0,sp,512
     b0a:	06c1                	addi	a3,a3,16
     b0c:	0000                	unimp
     b0e:	850d                	srai	a0,a0,0x3
     b10:	2516                	fld	fa0,320(sp)
     b12:	0000                	unimp
     b14:	0200                	addi	s0,sp,256
     b16:	0404                	addi	s1,sp,512
     b18:	049c                	addi	a5,sp,576
     b1a:	0000                	unimp
     b1c:	0802                	c.slli64	a6
     b1e:	00049403          	lh	s0,0(s1)
     b22:	0200                	addi	s0,sp,256
     b24:	0408                	addi	a0,sp,512
     b26:	015a                	slli	sp,sp,0x16
     b28:	0000                	unimp
     b2a:	1002                	c.slli	zero,0x20
     b2c:	00003903          	0x3903
     b30:	0200                	addi	s0,sp,256
     b32:	0320                	addi	s0,sp,392
     b34:	014d                	addi	sp,sp,19
     b36:	0000                	unimp
     b38:	2519                	jal	113e <_tbss_end+0x113e>
     b3a:	08000003          	lb	zero,128(zero) # 80 <_tbss_end+0x80>
     b3e:	ed0d                	bnez	a0,b78 <_tbss_end+0xb78>
     b40:	0a01                	addi	s4,s4,0
     b42:	00000b63          	beqz	zero,b58 <_tbss_end+0xb58>
     b46:	6c25                	lui	s8,0x9
     b48:	0d00776f          	jal	a4,7c18 <_tbss_end+0x7c18>
     b4c:	01ed                	addi	gp,gp,27
     b4e:	e51a                	fsw	ft6,136(sp)
     b50:	000a                	c.slli	zero,0x2
     b52:	0000                	unimp
     b54:	00065217          	auipc	tp,0x65
     b58:	0d00                	addi	s0,sp,656
     b5a:	01ed                	addi	gp,gp,27
     b5c:	e51f 000a 0400      	0x400000ae51f
     b62:	1b00                	addi	s0,sp,432
     b64:	0d08                	addi	a0,sp,656
     b66:	01f4                	addi	a3,sp,204
     b68:	8509                	srai	a0,a0,0x2
     b6a:	2600000b          	0x2600000b
     b6e:	f60d0073          	0xf60d0073
     b72:	1301                	addi	t1,t1,-32
     b74:	0b38                	addi	a4,sp,408
     b76:	0000                	unimp
     b78:	6c26                	flw	fs8,72(sp)
     b7a:	006c                	addi	a1,sp,12
     b7c:	f70d                	bnez	a4,aa6 <_tbss_end+0xaa6>
     b7e:	0a01                	addi	s4,s4,0
     b80:	0afd                	addi	s5,s5,31
     b82:	0000                	unimp
     b84:	0500                	addi	s0,sp,640
     b86:	02f5                	addi	t0,t0,29
     b88:	0000                	unimp
     b8a:	f80d                	bnez	s0,abc <_tbss_end+0xabc>
     b8c:	0301                	addi	t1,t1,0
     b8e:	00000b63          	beqz	zero,ba4 <_tbss_end+0xba4>
     b92:	8515                	srai	a0,a0,0x5
     b94:	0800000b          	0x800000b
     b98:	0ae0                	addi	s0,sp,348
     b9a:	0000                	unimp
     b9c:	00000ba7          	0xba7
     ba0:	2c09                	jal	db2 <_tbss_end+0xdb2>
     ba2:	0000                	unimp
     ba4:	ff00                	fsw	fs0,56(a4)
     ba6:	1500                	addi	s0,sp,672
     ba8:	00000b97          	auipc	s7,0x0
     bac:	051f 0007 0d00      	0xd000007051f
     bb2:	01fc                	addi	a5,sp,204
     bb4:	a716                	fsd	ft5,392(sp)
     bb6:	1f00000b          	0x1f00000b
     bba:	0000031b          	0x31b
     bbe:	020d                	addi	tp,tp,3
     bc0:	1602                	slli	a2,a2,0x20
     bc2:	00000ba7          	0xba7
     bc6:	0005cc27          	fsq	ft0,24(a1)
     bca:	0100                	addi	s0,sp,128
     bcc:	0526                	slli	a0,a0,0x9
     bce:	0901                	addi	s2,s2,0
     bd0:	9c00000b          	0x9c00000b
     bd4:	0021                	c.nop	8
     bd6:	5e80                	lw	s0,56(a3)
     bd8:	01000003          	lb	zero,16(zero) # 10 <_tbss_end+0x10>
     bdc:	a29c                	fsd	fa5,0(a3)
     bde:	000e                	c.slli	zero,0x3
     be0:	2800                	fld	fs0,16(s0)
     be2:	006e                	c.slli	zero,0x1b
     be4:	2601                	jal	ee4 <_tbss_end+0xee4>
     be6:	1405                	addi	s0,s0,-31
     be8:	0b09                	addi	s6,s6,2
     bea:	0000                	unimp
     bec:	0000                	unimp
     bee:	0000                	unimp
     bf0:	6428                	flw	fa0,72(s0)
     bf2:	0100                	addi	s0,sp,128
     bf4:	0526                	slli	a0,a0,0x9
     bf6:	091f 000b b800      	0xb800000b091f
     bfc:	0000                	unimp
     bfe:	2900                	fld	fs0,16(a0)
     c00:	0ea2                	slli	t4,t4,0x8
     c02:	0000                	unimp
     c04:	219c                	fld	fa5,0(a1)
     c06:	8000                	0x8000
     c08:	0000                	unimp
     c0a:	0000                	unimp
     c0c:	2801                	jal	c1c <_tbss_end+0xc1c>
     c0e:	0a05                	addi	s4,s4,1
     c10:	ca2a                	sw	a0,20(sp)
     c12:	000e                	c.slli	zero,0x3
     c14:	5000                	lw	s0,32(s0)
     c16:	0001                	nop
     c18:	2a00                	fld	fs0,16(a2)
     c1a:	00000ebf 00000170 	0x17000000ebf
     c22:	b42a                	fsd	fa0,40(sp)
     c24:	000e                	c.slli	zero,0x3
     c26:	0800                	addi	s0,sp,16
     c28:	0002                	c.slli64	zero
     c2a:	2b00                	fld	fs0,16(a4)
     c2c:	0000                	unimp
     c2e:	0000                	unimp
     c30:	d62c                	sw	a1,104(a2)
     c32:	000e                	c.slli	zero,0x3
     c34:	2c00                	fld	fs0,24(s0)
     c36:	0ee2                	slli	t4,t4,0x18
     c38:	0000                	unimp
     c3a:	ee2c                	fsw	fa1,88(a2)
     c3c:	000e                	c.slli	zero,0x3
     c3e:	2d00                	fld	fs0,24(a0)
     c40:	0efa                	slli	t4,t4,0x1e
     c42:	0000                	unimp
     c44:	02c0                	addi	s0,sp,324
     c46:	0000                	unimp
     c48:	062d                	addi	a2,a2,11
     c4a:	5b00000f          	0x5b00000f
     c4e:	2d000003          	lb	zero,720(zero) # 2d0 <_tbss_end+0x2d0>
     c52:	0f12                	slli	t5,t5,0x4
     c54:	0000                	unimp
     c56:	03d1                	addi	t2,t2,20
     c58:	0000                	unimp
     c5a:	1e2d                	addi	t3,t3,-21
     c5c:	4100000f          	0x4100000f
     c60:	0004                	0x4
     c62:	2d00                	fld	fs0,24(a0)
     c64:	0f2a                	slli	t5,t5,0xa
     c66:	0000                	unimp
     c68:	04ee                	slli	s1,s1,0x1b
     c6a:	0000                	unimp
     c6c:	362d                	jal	796 <_tbss_end+0x796>
     c6e:	0c00000f          	fence	io,unknown
     c72:	0005                	c.nop	1
     c74:	2d00                	fld	fs0,24(a0)
     c76:	0f42                	slli	t5,t5,0x10
     c78:	0000                	unimp
     c7a:	052a                	slli	a0,a0,0xa
     c7c:	0000                	unimp
     c7e:	4e2d                	li	t3,11
     c80:	5400000f          	0x5400000f
     c84:	0005                	c.nop	1
     c86:	2d00                	fld	fs0,24(a0)
     c88:	0f59                	addi	t5,t5,22
     c8a:	0000                	unimp
     c8c:	0572                	slli	a0,a0,0x1c
     c8e:	0000                	unimp
     c90:	652c                	flw	fa1,72(a0)
     c92:	2e00000f          	0x2e00000f
     c96:	0f71                	addi	t5,t5,28
     c98:	0000                	unimp
     c9a:	0028                	addi	a0,sp,8
     c9c:	0000                	unimp
     c9e:	0cb5                	addi	s9,s9,13
     ca0:	0000                	unimp
     ca2:	762d                	lui	a2,0xfffeb
     ca4:	b100000f          	0xb100000f
     ca8:	0005                	c.nop	1
     caa:	2d00                	fld	fs0,24(a0)
     cac:	00000f83          	lb	t6,0(zero) # 0 <_tbss_end>
     cb0:	05ed                	addi	a1,a1,27
     cb2:	0000                	unimp
     cb4:	2f00                	fld	fs0,24(a4)
     cb6:	0f91                	addi	t6,t6,4
     cb8:	0000                	unimp
     cba:	21ec                	fld	fa1,192(a1)
     cbc:	8000                	0x8000
     cbe:	006e                	c.slli	zero,0x1b
     cc0:	0000                	unimp
     cc2:	0d06                	slli	s10,s10,0x1
     cc4:	0000                	unimp
     cc6:	962d                	srai	a2,a2,0x2b
     cc8:	0000000f          	fence	unknown,unknown
     ccc:	0006                	c.slli	zero,0x1
     cce:	2d00                	fld	fs0,24(a0)
     cd0:	00000fa3          	sb	zero,31(zero) # 1f <_tbss_end+0x1f>
     cd4:	0622                	slli	a2,a2,0x8
     cd6:	0000                	unimp
     cd8:	b02d                	j	502 <_tbss_end+0x502>
     cda:	3500000f          	0x3500000f
     cde:	0006                	c.slli	zero,0x1
     ce0:	2d00                	fld	fs0,24(a0)
     ce2:	0fbd                	addi	t6,t6,15
     ce4:	0000                	unimp
     ce6:	00000653          	fadd.s	fa2,ft0,ft0,rne
     cea:	ca2d                	beqz	a2,d5c <_tbss_end+0xd5c>
     cec:	7100000f          	0x7100000f
     cf0:	0006                	c.slli	zero,0x1
     cf2:	2d00                	fld	fs0,24(a0)
     cf4:	00000fd7          	0xfd7
     cf8:	069a                	slli	a3,a3,0x6
     cfa:	0000                	unimp
     cfc:	e42d                	bnez	s0,d66 <_tbss_end+0xd66>
     cfe:	b800000f          	0xb800000f
     d02:	0006                	c.slli	zero,0x1
     d04:	0000                	unimp
     d06:	072e                	slli	a4,a4,0xb
     d08:	0011                	c.nop	4
     d0a:	4000                	lw	s0,0(s0)
     d0c:	0000                	unimp
     d0e:	c500                	sw	s0,8(a0)
     d10:	000d                	c.nop	3
     d12:	2d00                	fld	fs0,24(a0)
     d14:	1108                	addi	a0,sp,160
     d16:	0000                	unimp
     d18:	06e6                	slli	a3,a3,0x19
     d1a:	0000                	unimp
     d1c:	142d                	addi	s0,s0,-21
     d1e:	0011                	c.nop	4
     d20:	f900                	fsw	fs0,48(a0)
     d22:	0006                	c.slli	zero,0x1
     d24:	2e00                	fld	fs0,24(a2)
     d26:	1120                	addi	s0,sp,168
     d28:	0000                	unimp
     d2a:	0058                	addi	a4,sp,4
     d2c:	0000                	unimp
     d2e:	0d72                	slli	s10,s10,0x1c
     d30:	0000                	unimp
     d32:	252d                	jal	135c <_tbss_end+0x135c>
     d34:	0011                	c.nop	4
     d36:	3a00                	fld	fs0,48(a2)
     d38:	2d000007          	0x2d000007
     d3c:	1132                	slli	sp,sp,0x2c
     d3e:	0000                	unimp
     d40:	075c                	addi	a5,sp,900
     d42:	0000                	unimp
     d44:	3f2d                	jal	c7e <_tbss_end+0xc7e>
     d46:	0011                	c.nop	4
     d48:	8000                	0x8000
     d4a:	2d000007          	0x2d000007
     d4e:	114c                	addi	a1,sp,164
     d50:	0000                	unimp
     d52:	079e                	slli	a5,a5,0x7
     d54:	0000                	unimp
     d56:	592d                	li	s2,-21
     d58:	0011                	c.nop	4
     d5a:	bc00                	fsd	fs0,56(s0)
     d5c:	2d000007          	0x2d000007
     d60:	1166                	slli	sp,sp,0x39
     d62:	0000                	unimp
     d64:	000007f7          	0x7f7
     d68:	732d                	lui	t1,0xfffeb
     d6a:	0011                	c.nop	4
     d6c:	3400                	fld	fs0,40(s0)
     d6e:	0008                	0x8
     d70:	0000                	unimp
     d72:	8130                	0x8130
     d74:	0011                	c.nop	4
     d76:	8800                	0x8800
     d78:	0000                	unimp
     d7a:	2d00                	fld	fs0,24(a0)
     d7c:	1186                	slli	gp,gp,0x21
     d7e:	0000                	unimp
     d80:	0866                	slli	a6,a6,0x19
     d82:	0000                	unimp
     d84:	932d                	srli	a4,a4,0x2b
     d86:	0011                	c.nop	4
     d88:	7900                	flw	fs0,48(a0)
     d8a:	0008                	0x8
     d8c:	2d00                	fld	fs0,24(a0)
     d8e:	11a0                	addi	s0,sp,232
     d90:	0000                	unimp
     d92:	08cc                	addi	a1,sp,84
     d94:	0000                	unimp
     d96:	ad2d                	j	13d0 <_tbss_end+0x13d0>
     d98:	0011                	c.nop	4
     d9a:	df00                	sw	s0,56(a4)
     d9c:	0008                	0x8
     d9e:	2d00                	fld	fs0,24(a0)
     da0:	11ba                	slli	gp,gp,0x2e
     da2:	0000                	unimp
     da4:	08f2                	slli	a7,a7,0x1c
     da6:	0000                	unimp
     da8:	c72d                	beqz	a4,e12 <_tbss_end+0xe12>
     daa:	0011                	c.nop	4
     dac:	4500                	lw	s0,8(a0)
     dae:	0009                	c.nop	2
     db0:	2d00                	fld	fs0,24(a0)
     db2:	11d4                	addi	a3,sp,228
     db4:	0000                	unimp
     db6:	0958                	addi	a4,sp,148
     db8:	0000                	unimp
     dba:	e12d                	bnez	a0,e1c <_tbss_end+0xe1c>
     dbc:	0011                	c.nop	4
     dbe:	8900                	0x8900
     dc0:	0009                	c.nop	2
     dc2:	0000                	unimp
     dc4:	2e00                	fld	fs0,24(a2)
     dc6:	0ff2                	slli	t6,t6,0x1c
     dc8:	0000                	unimp
     dca:	00b0                	addi	a2,sp,72
     dcc:	0000                	unimp
     dce:	0de5                	addi	s11,s11,25
     dd0:	0000                	unimp
     dd2:	f72d                	bnez	a4,d3c <_tbss_end+0xd3c>
     dd4:	9c00000f          	0x9c00000f
     dd8:	0009                	c.nop	2
     dda:	2d00                	fld	fs0,24(a0)
     ddc:	1004                	addi	s1,sp,32
     dde:	0000                	unimp
     de0:	09d8                	addi	a4,sp,212
     de2:	0000                	unimp
     de4:	2f00                	fld	fs0,24(a4)
     de6:	00001073          	csrw	ustatus,zero
     dea:	229e                	fld	ft5,448(sp)
     dec:	8000                	0x8000
     dee:	0070                	addi	a2,sp,12
     df0:	0000                	unimp
     df2:	0e36                	slli	t3,t3,0xd
     df4:	0000                	unimp
     df6:	782d                	lui	a6,0xfffeb
     df8:	0010                	0x10
     dfa:	f600                	fsw	fs0,40(a2)
     dfc:	0009                	c.nop	2
     dfe:	2d00                	fld	fs0,24(a0)
     e00:	1085                	addi	ra,ra,-31
     e02:	0000                	unimp
     e04:	0a09                	addi	s4,s4,2
     e06:	0000                	unimp
     e08:	922d                	srli	a2,a2,0x2b
     e0a:	0010                	0x10
     e0c:	2d00                	fld	fs0,24(a0)
     e0e:	000a                	c.slli	zero,0x2
     e10:	2d00                	fld	fs0,24(a0)
     e12:	109f 0000 0a4b      	0xa4b0000109f
     e18:	0000                	unimp
     e1a:	ac2d                	j	1054 <_tbss_end+0x1054>
     e1c:	0010                	0x10
     e1e:	6900                	flw	fs0,16(a0)
     e20:	000a                	c.slli	zero,0x2
     e22:	2d00                	fld	fs0,24(a0)
     e24:	10b9                	addi	ra,ra,-18
     e26:	0000                	unimp
     e28:	0a92                	slli	s5,s5,0x4
     e2a:	0000                	unimp
     e2c:	c62d                	beqz	a2,e96 <_tbss_end+0xe96>
     e2e:	0010                	0x10
     e30:	b000                	fsd	fs0,32(s0)
     e32:	000a                	c.slli	zero,0x2
     e34:	0000                	unimp
     e36:	122e                	slli	tp,tp,0x2b
     e38:	0010                	0x10
     e3a:	c800                	sw	s0,16(s0)
     e3c:	0000                	unimp
     e3e:	8300                	0x8300
     e40:	000e                	c.slli	zero,0x3
     e42:	2d00                	fld	fs0,24(a0)
     e44:	00001017          	auipc	zero,0x1
     e48:	0ace                	slli	s5,s5,0x13
     e4a:	0000                	unimp
     e4c:	242d                	jal	1076 <_tbss_end+0x1076>
     e4e:	0010                	0x10
     e50:	e100                	fsw	fs0,0(a0)
     e52:	000a                	c.slli	zero,0x2
     e54:	2d00                	fld	fs0,24(a0)
     e56:	1031                	c.nop	-20
     e58:	0000                	unimp
     e5a:	0b05                	addi	s6,s6,1
     e5c:	0000                	unimp
     e5e:	3e2d                	jal	998 <_tbss_end+0x998>
     e60:	0010                	0x10
     e62:	2300                	fld	fs0,0(a4)
     e64:	2d00000b          	0x2d00000b
     e68:	0000104b          	fnmsub.s	ft0,ft0,ft0,ft0,rtz
     e6c:	0b41                	addi	s6,s6,16
     e6e:	0000                	unimp
     e70:	582d                	li	a6,-21
     e72:	0010                	0x10
     e74:	7500                	flw	fs0,40(a0)
     e76:	2d00000b          	0x2d00000b
     e7a:	1065                	c.nop	-7
     e7c:	0000                	unimp
     e7e:	0b9e                	slli	s7,s7,0x7
     e80:	0000                	unimp
     e82:	3000                	fld	fs0,32(s0)
     e84:	10d4                	addi	a3,sp,100
     e86:	0000                	unimp
     e88:	00e8                	addi	a0,sp,76
     e8a:	0000                	unimp
     e8c:	d92d                	beqz	a0,dfe <_tbss_end+0xdfe>
     e8e:	0010                	0x10
     e90:	e000                	fsw	fs0,0(s0)
     e92:	2d00000b          	0x2d00000b
     e96:	10e6                	slli	ra,ra,0x39
     e98:	0000                	unimp
     e9a:	0bfe                	slli	s7,s7,0x1f
     e9c:	0000                	unimp
     e9e:	0000                	unimp
     ea0:	0000                	unimp
     ea2:	2831                	jal	ebe <_tbss_end+0xebe>
     ea4:	0006                	c.slli	zero,0x1
     ea6:	0100                	addi	s0,sp,128
     ea8:	090103f7          	0x90103f7
     eac:	0300000b          	0x300000b
     eb0:	00001213          	slli	tp,zero,0x0
     eb4:	6e32                	flw	ft8,12(sp)
     eb6:	0100                	addi	s0,sp,128
     eb8:	091703f7          	0x91703f7
     ebc:	3200000b          	0x3200000b
     ec0:	0064                	addi	s1,sp,12
     ec2:	f701                	bnez	a4,dca <_tbss_end+0xdca>
     ec4:	0b092203          	lw	tp,176(s2) # 58742 <_tbss_end+0x58742>
     ec8:	0000                	unimp
     eca:	7232                	flw	ft4,44(sp)
     ecc:	0070                	addi	a2,sp,12
     ece:	f701                	bnez	a4,dd6 <_tbss_end+0xdd6>
     ed0:	12132e03          	lw	t3,289(t1) # fffeb121 <__global_pointer$+0x7ffe7d7d>
     ed4:	0000                	unimp
     ed6:	006e6e33          	or	t3,t3,t1
     eda:	f901                	bnez	a0,dea <_tbss_end+0xdea>
     edc:	0b921103          	lh	sp,185(tp) # 65c0d <_tbss_end+0x65c0d>
     ee0:	0000                	unimp
     ee2:	00646433          	or	s0,s0,t1
     ee6:	fa01                	bnez	a2,df6 <_tbss_end+0xdf6>
     ee8:	0b921103          	lh	sp,185(tp) # b9 <_tbss_end+0xb9>
     eec:	0000                	unimp
     eee:	00727233          	and	tp,tp,t2
     ef2:	fb01                	bnez	a4,e02 <_tbss_end+0xe02>
     ef4:	0b850b03          	lb	s6,184(a0) # 9daa4 <_tbss_end+0x9daa4>
     ef8:	0000                	unimp
     efa:	00306433          	or	s0,zero,gp
     efe:	fc01                	bnez	s0,e16 <_tbss_end+0xe16>
     f00:	0af10a03          	lb	s4,175(sp) # 3c849 <_tbss_end+0x3c849>
     f04:	0000                	unimp
     f06:	00316433          	or	s0,sp,gp
     f0a:	fc01                	bnez	s0,e22 <_tbss_end+0xe22>
     f0c:	0af10e03          	lb	t3,175(sp)
     f10:	0000                	unimp
     f12:	00306e33          	or	t3,zero,gp
     f16:	fc01                	bnez	s0,e2e <_tbss_end+0xe2e>
     f18:	0af11203          	lh	tp,175(sp)
     f1c:	0000                	unimp
     f1e:	00316e33          	or	t3,sp,gp
     f22:	fc01                	bnez	s0,e3a <_tbss_end+0xe3a>
     f24:	0af11603          	lh	a2,175(sp)
     f28:	0000                	unimp
     f2a:	00326e33          	or	t3,tp,gp
     f2e:	fc01                	bnez	s0,e46 <_tbss_end+0xe46>
     f30:	0af11a03          	lh	s4,175(sp)
     f34:	0000                	unimp
     f36:	00307133          	and	sp,zero,gp
     f3a:	fd01                	bnez	a0,e52 <_tbss_end+0xe52>
     f3c:	0af10a03          	lb	s4,175(sp)
     f40:	0000                	unimp
     f42:	00317133          	and	sp,sp,gp
     f46:	fd01                	bnez	a0,e5e <_tbss_end+0xe5e>
     f48:	0af10e03          	lb	t3,175(sp)
     f4c:	0000                	unimp
     f4e:	01006233          	or	tp,zero,a6
     f52:	03fe                	slli	t2,t2,0x1f
     f54:	f10a                	fsw	ft2,160(sp)
     f56:	000a                	c.slli	zero,0x2
     f58:	3300                	fld	fs0,32(a4)
     f5a:	6d62                	flw	fs10,24(sp)
     f5c:	0100                	addi	s0,sp,128
     f5e:	03fe                	slli	t2,t2,0x1f
     f60:	f10d                	bnez	a0,e82 <_tbss_end+0xe82>
     f62:	000a                	c.slli	zero,0x2
     f64:	3300                	fld	fs0,32(a4)
     f66:	01007777          	0x1007777
     f6a:	921104c7          	fmsub.d	fs1,ft2,ft1,fs2,rne
     f6e:	3400000b          	0x3400000b
     f72:	0f91                	addi	t6,t6,4
     f74:	0000                	unimp
     f76:	a935                	j	13b2 <_tbss_end+0x13b2>
     f78:	0006                	c.slli	zero,0x1
     f7a:	0100                	addi	s0,sp,128
     f7c:	042e                	slli	s0,s0,0xb
     f7e:	f104                	fsw	fs1,32(a0)
     f80:	000a                	c.slli	zero,0x2
     f82:	3300                	fld	fs0,32(a4)
     f84:	5f5f 0061 2e01      	0x2e0100615f5f
     f8a:	0404                	addi	s1,sp,512
     f8c:	0af1                	addi	s5,s5,28
     f8e:	0000                	unimp
     f90:	3400                	fld	fs0,40(s0)
     f92:	0ff2                	slli	t6,t6,0x1c
     f94:	0000                	unimp
     f96:	3835                	jal	7d2 <_tbss_end+0x7d2>
     f98:	0001                	nop
     f9a:	0100                	addi	s0,sp,128
     f9c:	043a                	slli	s0,s0,0xe
     f9e:	f104                	fsw	fs1,32(a0)
     fa0:	000a                	c.slli	zero,0x2
     fa2:	3500                	fld	fs0,40(a0)
     fa4:	00000133          	add	sp,zero,zero
     fa8:	3a01                	jal	8b8 <_tbss_end+0x8b8>
     faa:	0404                	addi	s1,sp,512
     fac:	0af1                	addi	s5,s5,28
     fae:	0000                	unimp
     fb0:	5c35                	li	s8,-19
     fb2:	0006                	c.slli	zero,0x1
     fb4:	0100                	addi	s0,sp,128
     fb6:	043a                	slli	s0,s0,0xe
     fb8:	f104                	fsw	fs1,32(a0)
     fba:	000a                	c.slli	zero,0x2
     fbc:	3500                	fld	fs0,40(a0)
     fbe:	00000657          	0x657
     fc2:	3a01                	jal	8d2 <_tbss_end+0x8d2>
     fc4:	0404                	addi	s1,sp,512
     fc6:	0af1                	addi	s5,s5,28
     fc8:	0000                	unimp
     fca:	2735                	jal	16f6 <_tbss_end+0x16f6>
     fcc:	01000007          	0x1000007
     fd0:	043a                	slli	s0,s0,0xe
     fd2:	f104                	fsw	fs1,32(a0)
     fd4:	000a                	c.slli	zero,0x2
     fd6:	3500                	fld	fs0,40(a0)
     fd8:	0722                	slli	a4,a4,0x8
     fda:	0000                	unimp
     fdc:	3a01                	jal	8ec <_tbss_end+0x8ec>
     fde:	0404                	addi	s1,sp,512
     fe0:	0af1                	addi	s5,s5,28
     fe2:	0000                	unimp
     fe4:	6d5f5f33          	0x6d5f5f33
     fe8:	0100                	addi	s0,sp,128
     fea:	043a                	slli	s0,s0,0xe
     fec:	f104                	fsw	fs1,32(a0)
     fee:	000a                	c.slli	zero,0x2
     ff0:	0000                	unimp
     ff2:	1234                	addi	a3,sp,296
     ff4:	0010                	0x10
     ff6:	3500                	fld	fs0,40(a0)
     ff8:	06a9                	addi	a3,a3,10
     ffa:	0000                	unimp
     ffc:	4601                	li	a2,0
     ffe:	0404                	addi	s1,sp,512
    1000:	0af1                	addi	s5,s5,28
    1002:	0000                	unimp
    1004:	615f5f33          	0x615f5f33
    1008:	0100                	addi	s0,sp,128
    100a:	0446                	slli	s0,s0,0x11
    100c:	f104                	fsw	fs1,32(a0)
    100e:	000a                	c.slli	zero,0x2
    1010:	0000                	unimp
    1012:	7334                	flw	fa3,96(a4)
    1014:	0010                	0x10
    1016:	3500                	fld	fs0,40(a0)
    1018:	0138                	addi	a4,sp,136
    101a:	0000                	unimp
    101c:	5f01                	li	t5,-32
    101e:	0804                	addi	s1,sp,16
    1020:	0af1                	addi	s5,s5,28
    1022:	0000                	unimp
    1024:	3335                	jal	d50 <_tbss_end+0xd50>
    1026:	0001                	nop
    1028:	0100                	addi	s0,sp,128
    102a:	045f f108 000a      	0xaf108045f
    1030:	3500                	fld	fs0,40(a0)
    1032:	065c                	addi	a5,sp,772
    1034:	0000                	unimp
    1036:	5f01                	li	t5,-32
    1038:	0804                	addi	s1,sp,16
    103a:	0af1                	addi	s5,s5,28
    103c:	0000                	unimp
    103e:	5735                	li	a4,-19
    1040:	0006                	c.slli	zero,0x1
    1042:	0100                	addi	s0,sp,128
    1044:	045f f108 000a      	0xaf108045f
    104a:	3500                	fld	fs0,40(a0)
    104c:	00000727          	0x727
    1050:	5f01                	li	t5,-32
    1052:	0804                	addi	s1,sp,16
    1054:	0af1                	addi	s5,s5,28
    1056:	0000                	unimp
    1058:	2235                	jal	1184 <_tbss_end+0x1184>
    105a:	01000007          	0x1000007
    105e:	045f f108 000a      	0xaf108045f
    1064:	3300                	fld	fs0,32(a4)
    1066:	5f5f 006d 5f01      	0x5f01006d5f5f
    106c:	0804                	addi	s1,sp,16
    106e:	0af1                	addi	s5,s5,28
    1070:	0000                	unimp
    1072:	3400                	fld	fs0,40(s0)
    1074:	10d4                	addi	a3,sp,100
    1076:	0000                	unimp
    1078:	3835                	jal	8b4 <_tbss_end+0x8b4>
    107a:	0001                	nop
    107c:	0100                	addi	s0,sp,128
    107e:	0464                	addi	s1,sp,524
    1080:	f104                	fsw	fs1,32(a0)
    1082:	000a                	c.slli	zero,0x2
    1084:	3500                	fld	fs0,40(a0)
    1086:	00000133          	add	sp,zero,zero
    108a:	6401                	0x6401
    108c:	0404                	addi	s1,sp,512
    108e:	0af1                	addi	s5,s5,28
    1090:	0000                	unimp
    1092:	5c35                	li	s8,-19
    1094:	0006                	c.slli	zero,0x1
    1096:	0100                	addi	s0,sp,128
    1098:	0464                	addi	s1,sp,524
    109a:	f104                	fsw	fs1,32(a0)
    109c:	000a                	c.slli	zero,0x2
    109e:	3500                	fld	fs0,40(a0)
    10a0:	00000657          	0x657
    10a4:	6401                	0x6401
    10a6:	0404                	addi	s1,sp,512
    10a8:	0af1                	addi	s5,s5,28
    10aa:	0000                	unimp
    10ac:	2735                	jal	17d8 <_tbss_end+0x17d8>
    10ae:	01000007          	0x1000007
    10b2:	0464                	addi	s1,sp,524
    10b4:	f104                	fsw	fs1,32(a0)
    10b6:	000a                	c.slli	zero,0x2
    10b8:	3500                	fld	fs0,40(a0)
    10ba:	0722                	slli	a4,a4,0x8
    10bc:	0000                	unimp
    10be:	6401                	0x6401
    10c0:	0404                	addi	s1,sp,512
    10c2:	0af1                	addi	s5,s5,28
    10c4:	0000                	unimp
    10c6:	6d5f5f33          	0x6d5f5f33
    10ca:	0100                	addi	s0,sp,128
    10cc:	0464                	addi	s1,sp,524
    10ce:	f104                	fsw	fs1,32(a0)
    10d0:	000a                	c.slli	zero,0x2
    10d2:	0000                	unimp
    10d4:	f434                	fsw	fa3,104(s0)
    10d6:	0010                	0x10
    10d8:	3500                	fld	fs0,40(a0)
    10da:	06a9                	addi	a3,a3,10
    10dc:	0000                	unimp
    10de:	8701                	c.srai64	a4
    10e0:	0404                	addi	s1,sp,512
    10e2:	0af1                	addi	s5,s5,28
    10e4:	0000                	unimp
    10e6:	615f5f33          	0x615f5f33
    10ea:	0100                	addi	s0,sp,128
    10ec:	f1040487          	0xf1040487
    10f0:	000a                	c.slli	zero,0x2
    10f2:	0000                	unimp
    10f4:	0734                	addi	a3,sp,904
    10f6:	0011                	c.nop	4
    10f8:	3300                	fld	fs0,32(a4)
    10fa:	5f5f 0078 9501      	0x950100785f5f
    1100:	0504                	addi	s1,sp,640
    1102:	0af1                	addi	s5,s5,28
    1104:	0000                	unimp
    1106:	3600                	fld	fs0,40(a2)
    1108:	00316d33          	or	s10,sp,gp
    110c:	a501                	j	170c <_tbss_end+0x170c>
    110e:	0f04                	addi	s1,sp,912
    1110:	0af1                	addi	s5,s5,28
    1112:	0000                	unimp
    1114:	00306d33          	or	s10,zero,gp
    1118:	a501                	j	1718 <_tbss_end+0x1718>
    111a:	1304                	addi	s1,sp,416
    111c:	0af1                	addi	s5,s5,28
    111e:	0000                	unimp
    1120:	8134                	0x8134
    1122:	0011                	c.nop	4
    1124:	3500                	fld	fs0,40(a0)
    1126:	0138                	addi	a4,sp,136
    1128:	0000                	unimp
    112a:	b001                	j	92a <_tbss_end+0x92a>
    112c:	0804                	addi	s1,sp,16
    112e:	0af1                	addi	s5,s5,28
    1130:	0000                	unimp
    1132:	3335                	jal	e5e <_tbss_end+0xe5e>
    1134:	0001                	nop
    1136:	0100                	addi	s0,sp,128
    1138:	04b0                	addi	a2,sp,584
    113a:	f108                	fsw	fa0,32(a0)
    113c:	000a                	c.slli	zero,0x2
    113e:	3500                	fld	fs0,40(a0)
    1140:	065c                	addi	a5,sp,772
    1142:	0000                	unimp
    1144:	b001                	j	944 <_tbss_end+0x944>
    1146:	0804                	addi	s1,sp,16
    1148:	0af1                	addi	s5,s5,28
    114a:	0000                	unimp
    114c:	5735                	li	a4,-19
    114e:	0006                	c.slli	zero,0x1
    1150:	0100                	addi	s0,sp,128
    1152:	04b0                	addi	a2,sp,584
    1154:	f108                	fsw	fa0,32(a0)
    1156:	000a                	c.slli	zero,0x2
    1158:	3500                	fld	fs0,40(a0)
    115a:	00000727          	0x727
    115e:	b001                	j	95e <_tbss_end+0x95e>
    1160:	0804                	addi	s1,sp,16
    1162:	0af1                	addi	s5,s5,28
    1164:	0000                	unimp
    1166:	2235                	jal	1292 <_tbss_end+0x1292>
    1168:	01000007          	0x1000007
    116c:	04b0                	addi	a2,sp,584
    116e:	f108                	fsw	fa0,32(a0)
    1170:	000a                	c.slli	zero,0x2
    1172:	3300                	fld	fs0,32(a4)
    1174:	5f5f 006d b001      	0xb001006d5f5f
    117a:	0804                	addi	s1,sp,16
    117c:	0af1                	addi	s5,s5,28
    117e:	0000                	unimp
    1180:	3400                	fld	fs0,40(s0)
    1182:	000011ef          	jal	gp,2182 <_tbss_end+0x2182>
    1186:	ef35                	bnez	a4,1202 <_tbss_end+0x1202>
    1188:	0005                	c.nop	1
    118a:	0100                	addi	s0,sp,128
    118c:	04b1                	addi	s1,s1,12
    118e:	f108                	fsw	fa0,32(a0)
    1190:	000a                	c.slli	zero,0x2
    1192:	3500                	fld	fs0,40(a0)
    1194:	05f4                	addi	a3,sp,716
    1196:	0000                	unimp
    1198:	b101                	j	d98 <_tbss_end+0xd98>
    119a:	0804                	addi	s1,sp,16
    119c:	0af1                	addi	s5,s5,28
    119e:	0000                	unimp
    11a0:	f935                	bnez	a0,1114 <_tbss_end+0x1114>
    11a2:	0005                	c.nop	1
    11a4:	0100                	addi	s0,sp,128
    11a6:	04b1                	addi	s1,s1,12
    11a8:	f108                	fsw	fa0,32(a0)
    11aa:	000a                	c.slli	zero,0x2
    11ac:	3500                	fld	fs0,40(a0)
    11ae:	05fe                	slli	a1,a1,0x1f
    11b0:	0000                	unimp
    11b2:	b101                	j	db2 <_tbss_end+0xdb2>
    11b4:	0804                	addi	s1,sp,16
    11b6:	0af1                	addi	s5,s5,28
    11b8:	0000                	unimp
    11ba:	1e35                	addi	t3,t3,-19
    11bc:	0004                	0x4
    11be:	0100                	addi	s0,sp,128
    11c0:	04b1                	addi	s1,s1,12
    11c2:	f108                	fsw	fa0,32(a0)
    11c4:	000a                	c.slli	zero,0x2
    11c6:	3500                	fld	fs0,40(a0)
    11c8:	04d4                	addi	a3,sp,580
    11ca:	0000                	unimp
    11cc:	b101                	j	dcc <_tbss_end+0xdcc>
    11ce:	0804                	addi	s1,sp,16
    11d0:	0af1                	addi	s5,s5,28
    11d2:	0000                	unimp
    11d4:	0835                	addi	a6,a6,13
    11d6:	0004                	0x4
    11d8:	0100                	addi	s0,sp,128
    11da:	04b1                	addi	s1,s1,12
    11dc:	f108                	fsw	fa0,32(a0)
    11de:	000a                	c.slli	zero,0x2
    11e0:	3500                	fld	fs0,40(a0)
    11e2:	000004cf          	fnmadd.s	fs1,ft0,ft0,ft0,rne
    11e6:	b101                	j	de6 <_tbss_end+0xde6>
    11e8:	0804                	addi	s1,sp,16
    11ea:	0af1                	addi	s5,s5,28
    11ec:	0000                	unimp
    11ee:	3400                	fld	fs0,40(s0)
    11f0:	1202                	slli	tp,tp,0x20
    11f2:	0000                	unimp
    11f4:	785f5f33          	0x785f5f33
    11f8:	0100                	addi	s0,sp,128
    11fa:	04b6                	slli	s1,s1,0xd
    11fc:	f105                	bnez	a0,111c <_tbss_end+0x111c>
    11fe:	000a                	c.slli	zero,0x2
    1200:	0000                	unimp
    1202:	3336                	fld	ft6,360(sp)
    1204:	5f5f 0078 be01      	0xbe0100785f5f
    120a:	0504                	addi	s1,sp,640
    120c:	0af1                	addi	s5,s5,28
    120e:	0000                	unimp
    1210:	0000                	unimp
    1212:	0f00                	addi	s0,sp,912
    1214:	0904                	addi	s1,sp,144
    1216:	0000000b          	0xb
    121a:	1274                	addi	a3,sp,300
    121c:	0000                	unimp
    121e:	0004                	0x4
    1220:	02cc                	addi	a1,sp,324
    1222:	0000                	unimp
    1224:	0104                	addi	s1,sp,128
    1226:	0048                	addi	a0,sp,4
    1228:	0000                	unimp
    122a:	100c                	addi	a1,sp,32
    122c:	0005                	c.nop	1
    122e:	4100                	lw	s0,0(a0)
    1230:	fa000003          	lb	zero,-96(zero) # ffffffa0 <__global_pointer$+0x7fffcbfc>
    1234:	0024                	addi	s1,sp,8
    1236:	5280                	lw	s0,32(a3)
    1238:	f4000003          	lb	zero,-192(zero) # ffffff40 <__global_pointer$+0x7fffcb9c>
    123c:	0008                	0x8
    123e:	0200                	addi	s0,sp,256
    1240:	0708                	addi	a0,sp,896
    1242:	0304                	addi	s1,sp,384
    1244:	0000                	unimp
    1246:	69050403          	lb	s0,1680(a0)
    124a:	746e                	flw	fs0,248(sp)
    124c:	0200                	addi	s0,sp,256
    124e:	0704                	addi	s1,sp,896
    1250:	030e                	slli	t1,t1,0x3
    1252:	0000                	unimp
    1254:	0802                	c.slli64	a6
    1256:	1105                	addi	sp,sp,-31
    1258:	0002                	c.slli64	zero
    125a:	0200                	addi	s0,sp,256
    125c:	0410                	addi	a2,sp,512
    125e:	0155                	addi	sp,sp,21
    1260:	0000                	unimp
    1262:	0102                	c.slli64	sp
    1264:	8006                	c.mv	zero,ra
    1266:	0006                	c.slli	zero,0x1
    1268:	0200                	addi	s0,sp,256
    126a:	0801                	addi	a6,a6,0
    126c:	067e                	slli	a2,a2,0x1f
    126e:	0000                	unimp
    1270:	0202                	c.slli64	tp
    1272:	0005                	c.nop	1
    1274:	0000                	unimp
    1276:	0200                	addi	s0,sp,256
    1278:	0702                	c.slli64	a4
    127a:	032e                	slli	t1,t1,0xb
    127c:	0000                	unimp
    127e:	0402                	c.slli64	s0
    1280:	1605                	addi	a2,a2,-31
    1282:	0002                	c.slli64	zero
    1284:	0200                	addi	s0,sp,256
    1286:	0704                	addi	s1,sp,896
    1288:	0309                	addi	t1,t1,2
    128a:	0000                	unimp
    128c:	f804                	fsw	fs1,48(s0)
    128e:	0004                	0x4
    1290:	0200                	addi	s0,sp,256
    1292:	0d0c                	addi	a1,sp,656
    1294:	002c                	addi	a1,sp,8
    1296:	0000                	unimp
    1298:	c804                	sw	s1,16(s0)
    129a:	0004                	0x4
    129c:	0300                	addi	s0,sp,384
    129e:	0e2c                	addi	a1,sp,792
    12a0:	0064                	addi	s1,sp,12
    12a2:	0000                	unimp
    12a4:	1104                	addi	s1,sp,160
    12a6:	0006                	c.slli	zero,0x1
    12a8:	0300                	addi	s0,sp,384
    12aa:	0e72                	slli	t3,t3,0x1c
    12ac:	0064                	addi	s1,sp,12
    12ae:	0000                	unimp
    12b0:	e804                	fsw	fs1,16(s0)
    12b2:	0006                	c.slli	zero,0x1
    12b4:	0300                	addi	s0,sp,384
    12b6:	1791                	addi	a5,a5,-28
    12b8:	002c                	addi	a1,sp,8
    12ba:	0000                	unimp
    12bc:	fb05                	bnez	a4,11ec <_tbss_end+0x11ec>
    12be:	04000003          	lb	zero,64(zero) # 40 <_tbss_end+0x40>
    12c2:	0165                	addi	sp,sp,25
    12c4:	00003317          	auipc	t1,0x3
    12c8:	0600                	addi	s0,sp,768
    12ca:	0304                	addi	s1,sp,384
    12cc:	03a6                	slli	t2,t2,0x9
    12ce:	00d1                	addi	ra,ra,20
    12d0:	0000                	unimp
    12d2:	0003e207          	0x3e207
    12d6:	0300                	addi	s0,sp,384
    12d8:	0ca8                	addi	a0,sp,600
    12da:	00a2                	slli	ra,ra,0x8
    12dc:	0000                	unimp
    12de:	0002d607          	0x2d607
    12e2:	0300                	addi	s0,sp,384
    12e4:	13a9                	addi	t2,t2,-22
    12e6:	00d1                	addi	ra,ra,20
    12e8:	0000                	unimp
    12ea:	0800                	addi	s0,sp,16
    12ec:	0000004f          	fnmadd.s	ft0,ft0,ft0,ft0,rne
    12f0:	00e1                	addi	ra,ra,24
    12f2:	0000                	unimp
    12f4:	3309                	jal	ff6 <_tbss_end+0xff6>
    12f6:	0000                	unimp
    12f8:	0300                	addi	s0,sp,384
    12fa:	0a00                	addi	s0,sp,272
    12fc:	0308                	addi	a0,sp,384
    12fe:	010509a3          	sb	a6,19(a0)
    1302:	0000                	unimp
    1304:	00044c0b          	0x44c0b
    1308:	0300                	addi	s0,sp,384
    130a:	07a5                	addi	a5,a5,9
    130c:	002c                	addi	a1,sp,8
    130e:	0000                	unimp
    1310:	0b00                	addi	s0,sp,400
    1312:	00000603          	lb	a2,0(zero) # 0 <_tbss_end>
    1316:	af05aa03          	lw	s4,-1296(a1)
    131a:	0000                	unimp
    131c:	0400                	addi	s0,sp,512
    131e:	0400                	addi	s0,sp,512
    1320:	04ed                	addi	s1,s1,27
    1322:	0000                	unimp
    1324:	e103ab03          	lw	s6,-496(t2)
    1328:	0000                	unimp
    132a:	0400                	addi	s0,sp,512
    132c:	056e                	slli	a0,a0,0x1b
    132e:	0000                	unimp
    1330:	721baf03          	lw	t5,1825(s7) # 12c9 <_tbss_end+0x12c9>
    1334:	0000                	unimp
    1336:	0c00                	addi	s0,sp,528
    1338:	0404                	addi	s1,sp,512
    133a:	0691                	addi	a3,a3,4
    133c:	0000                	unimp
    133e:	1605                	addi	a2,a2,-31
    1340:	6b19                	lui	s6,0x6
    1342:	0000                	unimp
    1344:	0d00                	addi	s0,sp,656
    1346:	0485                	addi	s1,s1,1
    1348:	0000                	unimp
    134a:	0518                	addi	a4,sp,640
    134c:	0185082f          	0x185082f
    1350:	0000                	unimp
    1352:	0007a80b          	0x7a80b
    1356:	0500                	addi	s0,sp,640
    1358:	1331                	addi	t1,t1,-20
    135a:	0185                	addi	gp,gp,1
    135c:	0000                	unimp
    135e:	0e00                	addi	s0,sp,784
    1360:	6b5f 0500 0732      	0x73205006b5f
    1366:	002c                	addi	a1,sp,8
    1368:	0000                	unimp
    136a:	0b04                	addi	s1,sp,400
    136c:	05e0                	addi	s0,sp,716
    136e:	0000                	unimp
    1370:	3205                	jal	c90 <_tbss_end+0xc90>
    1372:	00002c0b          	0x2c0b
    1376:	0800                	addi	s0,sp,16
    1378:	00026d0b          	0x26d0b
    137c:	0500                	addi	s0,sp,640
    137e:	1432                	slli	s0,s0,0x2c
    1380:	002c                	addi	a1,sp,8
    1382:	0000                	unimp
    1384:	0b0c                	addi	a1,sp,400
    1386:	000001f3          	0x1f3
    138a:	3205                	jal	caa <_tbss_end+0xcaa>
    138c:	00002c1b          	0x2c1b
    1390:	1000                	addi	s0,sp,32
    1392:	5f0e                	lw	t5,224(sp)
    1394:	0078                	addi	a4,sp,12
    1396:	3305                	jal	10b6 <_tbss_end+0x10b6>
    1398:	00018b0b          	0x18b0b
    139c:	1400                	addi	s0,sp,544
    139e:	0f00                	addi	s0,sp,912
    13a0:	2b04                	fld	fs1,16(a4)
    13a2:	0001                	nop
    13a4:	0800                	addi	s0,sp,16
    13a6:	011f 0000 019b      	0x19b0000011f
    13ac:	0000                	unimp
    13ae:	3309                	jal	10b0 <_tbss_end+0x10b0>
    13b0:	0000                	unimp
    13b2:	0000                	unimp
    13b4:	0d00                	addi	s0,sp,656
    13b6:	02b9                	addi	t0,t0,14
    13b8:	0000                	unimp
    13ba:	0524                	addi	s1,sp,648
    13bc:	021e0837          	lui	a6,0x21e0
    13c0:	0000                	unimp
    13c2:	00018d0b          	0x18d0b
    13c6:	0500                	addi	s0,sp,640
    13c8:	0939                	addi	s2,s2,14
    13ca:	002c                	addi	a1,sp,8
    13cc:	0000                	unimp
    13ce:	0b00                	addi	s0,sp,400
    13d0:	0746                	slli	a4,a4,0x11
    13d2:	0000                	unimp
    13d4:	3a05                	jal	d04 <_tbss_end+0xd04>
    13d6:	2c09                	jal	15e8 <_tbss_end+0x15e8>
    13d8:	0000                	unimp
    13da:	0400                	addi	s0,sp,512
    13dc:	0001a90b          	0x1a90b
    13e0:	0500                	addi	s0,sp,640
    13e2:	002c093b          	0x2c093b
    13e6:	0000                	unimp
    13e8:	0b08                	addi	a0,sp,400
    13ea:	0799                	addi	a5,a5,6
    13ec:	0000                	unimp
    13ee:	3c05                	jal	e1e <_tbss_end+0xe1e>
    13f0:	2c09                	jal	1602 <_tbss_end+0x1602>
    13f2:	0000                	unimp
    13f4:	0c00                	addi	s0,sp,528
    13f6:	0004a20b          	0x4a20b
    13fa:	0500                	addi	s0,sp,640
    13fc:	093d                	addi	s2,s2,15
    13fe:	002c                	addi	a1,sp,8
    1400:	0000                	unimp
    1402:	0b10                	addi	a2,sp,400
    1404:	0442                	slli	s0,s0,0x10
    1406:	0000                	unimp
    1408:	3e05                	jal	f38 <_tbss_end+0xf38>
    140a:	2c09                	jal	161c <_tbss_end+0x161c>
    140c:	0000                	unimp
    140e:	1400                	addi	s0,sp,544
    1410:	0006d10b          	0x6d10b
    1414:	0500                	addi	s0,sp,640
    1416:	002c093f 0b180000 	0xb180000002c093f
    141e:	00000577          	0x577
    1422:	4005                	c.li	zero,1
    1424:	2c09                	jal	1636 <_tbss_end+0x1636>
    1426:	0000                	unimp
    1428:	1c00                	addi	s0,sp,560
    142a:	00072c0b          	0x72c0b
    142e:	0500                	addi	s0,sp,640
    1430:	0941                	addi	s2,s2,16
    1432:	002c                	addi	a1,sp,8
    1434:	0000                	unimp
    1436:	0020                	addi	s0,sp,8
    1438:	c610                	sw	a2,8(a2)
    143a:	0001                	nop
    143c:	0800                	addi	s0,sp,16
    143e:	0501                	addi	a0,a0,0
    1440:	084a                	slli	a6,a6,0x12
    1442:	00000263          	beqz	zero,1446 <_tbss_end+0x1446>
    1446:	0002600b          	0x2600b
    144a:	0500                	addi	s0,sp,640
    144c:	02630a4b          	fnmsub.d	fs4,ft6,ft6,ft0,rne
    1450:	0000                	unimp
    1452:	0b00                	addi	s0,sp,400
    1454:	054a                	slli	a0,a0,0x12
    1456:	0000                	unimp
    1458:	4c05                	li	s8,1
    145a:	6309                	lui	t1,0x2
    145c:	0002                	c.slli64	zero
    145e:	8000                	0x8000
    1460:	7511                	lui	a0,0xfffe4
    1462:	0006                	c.slli	zero,0x1
    1464:	0500                	addi	s0,sp,640
    1466:	0a4e                	slli	s4,s4,0x13
    1468:	011f 0000 0100      	0x1000000011f
    146e:	eb11                	bnez	a4,1482 <_tbss_end+0x1482>
    1470:	0001                	nop
    1472:	0500                	addi	s0,sp,640
    1474:	0a51                	addi	s4,s4,20
    1476:	011f 0000 0104      	0x1040000011f
    147c:	0800                	addi	s0,sp,16
    147e:	011d                	addi	sp,sp,7
    1480:	0000                	unimp
    1482:	00000273          	0x273
    1486:	3309                	jal	1188 <_tbss_end+0x1188>
    1488:	0000                	unimp
    148a:	1f00                	addi	s0,sp,944
    148c:	1000                	addi	s0,sp,32
    148e:	000004ab          	0x4ab
    1492:	0190                	addi	a2,sp,192
    1494:	5d05                	li	s10,-31
    1496:	b608                	fsd	fa0,40(a2)
    1498:	0002                	c.slli64	zero
    149a:	0b00                	addi	s0,sp,400
    149c:	07a8                	addi	a0,sp,968
    149e:	0000                	unimp
    14a0:	5e05                	li	t3,-31
    14a2:	b612                	fsd	ft4,296(sp)
    14a4:	0002                	c.slli64	zero
    14a6:	0000                	unimp
    14a8:	0005c70b          	0x5c70b
    14ac:	0500                	addi	s0,sp,640
    14ae:	065f 002c 0000      	0x2c065f
    14b4:	0b04                	addi	s1,sp,400
    14b6:	0268                	addi	a0,sp,268
    14b8:	0000                	unimp
    14ba:	6105                	addi	sp,sp,32
    14bc:	bc09                	j	ece <_tbss_end+0xece>
    14be:	0002                	c.slli64	zero
    14c0:	0800                	addi	s0,sp,16
    14c2:	0001c60b          	0x1c60b
    14c6:	0500                	addi	s0,sp,640
    14c8:	1e62                	slli	t3,t3,0x38
    14ca:	021e                	slli	tp,tp,0x7
    14cc:	0000                	unimp
    14ce:	0088                	addi	a0,sp,64
    14d0:	0273040f          	0x273040f
    14d4:	0000                	unimp
    14d6:	cc08                	sw	a0,24(s0)
    14d8:	0002                	c.slli64	zero
    14da:	cc00                	sw	s0,24(s0)
    14dc:	0002                	c.slli64	zero
    14de:	0900                	addi	s0,sp,144
    14e0:	00000033          	add	zero,zero,zero
    14e4:	001f 040f 02d2      	0x2d2040f001f
    14ea:	0000                	unimp
    14ec:	0d12                	slli	s10,s10,0x4
    14ee:	0792                	slli	a5,a5,0x4
    14f0:	0000                	unimp
    14f2:	0508                	addi	a0,sp,640
    14f4:	0875                	addi	a6,a6,29
    14f6:	000002fb          	0x2fb
    14fa:	0001a30b          	0x1a30b
    14fe:	0500                	addi	s0,sp,640
    1500:	1176                	slli	sp,sp,0x3d
    1502:	000002fb          	0x2fb
    1506:	0b00                	addi	s0,sp,400
    1508:	0622                	slli	a2,a2,0x8
    150a:	0000                	unimp
    150c:	7705                	lui	a4,0xfffe1
    150e:	2c06                	fld	fs8,64(sp)
    1510:	0000                	unimp
    1512:	0400                	addi	s0,sp,512
    1514:	0f00                	addi	s0,sp,912
    1516:	4f04                	lw	s1,24(a4)
    1518:	0000                	unimp
    151a:	0d00                	addi	s0,sp,656
    151c:	000005a3          	sb	zero,11(zero) # b <_tbss_end+0xb>
    1520:	0568                	addi	a0,sp,652
    1522:	08b5                	addi	a7,a7,13
    1524:	0444                	addi	s1,sp,516
    1526:	0000                	unimp
    1528:	5f0e                	lw	t5,224(sp)
    152a:	0070                	addi	a2,sp,12
    152c:	b605                	j	104c <_tbss_end+0x104c>
    152e:	fb12                	fsw	ft4,180(sp)
    1530:	0002                	c.slli64	zero
    1532:	0000                	unimp
    1534:	5f0e                	lw	t5,224(sp)
    1536:	0072                	c.slli	zero,0x1c
    1538:	b705                	j	1458 <_tbss_end+0x1458>
    153a:	00002c07          	flw	fs8,0(zero) # 0 <_tbss_end>
    153e:	0400                	addi	s0,sp,512
    1540:	5f0e                	lw	t5,224(sp)
    1542:	b8050077          	0xb8050077
    1546:	00002c07          	flw	fs8,0(zero) # 0 <_tbss_end>
    154a:	0800                	addi	s0,sp,16
    154c:	0001e40b          	0x1e40b
    1550:	0500                	addi	s0,sp,640
    1552:	09b9                	addi	s3,s3,14
    1554:	0056                	c.slli	zero,0x15
    1556:	0000                	unimp
    1558:	0b0c                	addi	a1,sp,400
    155a:	02e5                	addi	t0,t0,25
    155c:	0000                	unimp
    155e:	ba05                	j	e8e <_tbss_end+0xe8e>
    1560:	5609                	li	a2,-30
    1562:	0000                	unimp
    1564:	0e00                	addi	s0,sp,784
    1566:	5f0e                	lw	t5,224(sp)
    1568:	6662                	flw	fa2,24(sp)
    156a:	0500                	addi	s0,sp,640
    156c:	02d311bb          	0x2d311bb
    1570:	0000                	unimp
    1572:	0b10                	addi	a2,sp,400
    1574:	013d                	addi	sp,sp,15
    1576:	0000                	unimp
    1578:	bc05                	j	fa8 <_tbss_end+0xfa8>
    157a:	00002c07          	flw	fs8,0(zero) # 0 <_tbss_end>
    157e:	1800                	addi	s0,sp,48
    1580:	0001d40b          	0x1d40b
    1584:	0500                	addi	s0,sp,640
    1586:	011d0ac3          	fmadd.s	fs5,fs10,fa7,ft0,rne
    158a:	0000                	unimp
    158c:	0b1c                	addi	a5,sp,400
    158e:	050a                	slli	a0,a0,0x2
    1590:	0000                	unimp
    1592:	c505                	beqz	a0,15ba <_tbss_end+0x15ba>
    1594:	c81d                	beqz	s0,15ca <_tbss_end+0x15ca>
    1596:	0005                	c.nop	1
    1598:	2000                	fld	fs0,0(s0)
    159a:	00043b0b          	0x43b0b
    159e:	0500                	addi	s0,sp,640
    15a0:	05f71dc7          	0x5f71dc7
    15a4:	0000                	unimp
    15a6:	0b24                	addi	s1,sp,408
    15a8:	0000060b          	0x60b
    15ac:	ca05                	beqz	a2,15dc <_tbss_end+0x15dc>
    15ae:	1b0d                	addi	s6,s6,-29
    15b0:	0006                	c.slli	zero,0x1
    15b2:	2800                	fld	fs0,16(s0)
    15b4:	0001960b          	0x1960b
    15b8:	0500                	addi	s0,sp,640
    15ba:	063509cb          	fnmsub.q	fs3,fa0,ft3,ft0,rne
    15be:	0000                	unimp
    15c0:	0e2c                	addi	a1,sp,792
    15c2:	755f 0062 ce05      	0xce050062755f
    15c8:	d311                	beqz	a4,14cc <_tbss_end+0x14cc>
    15ca:	0002                	c.slli64	zero
    15cc:	3000                	fld	fs0,32(s0)
    15ce:	5f0e                	lw	t5,224(sp)
    15d0:	7075                	c.lui	zero,0xffffd
    15d2:	0500                	addi	s0,sp,640
    15d4:	02fb12cf          	fnmadd.d	ft5,fs6,fa5,ft0,rtz
    15d8:	0000                	unimp
    15da:	0e38                	addi	a4,sp,792
    15dc:	755f 0072 d005      	0xd0050072755f
    15e2:	00002c07          	flw	fs8,0(zero) # 0 <_tbss_end>
    15e6:	3c00                	fld	fs0,56(s0)
    15e8:	00019d0b          	0x19d0b
    15ec:	0500                	addi	s0,sp,640
    15ee:	063b11d3          	fadd.q	ft3,fs6,ft3,rtz
    15f2:	0000                	unimp
    15f4:	0b40                	addi	s0,sp,404
    15f6:	0714                	addi	a3,sp,896
    15f8:	0000                	unimp
    15fa:	d405                	beqz	s0,1522 <_tbss_end+0x1522>
    15fc:	4b11                	li	s6,4
    15fe:	0006                	c.slli	zero,0x1
    1600:	4300                	lw	s0,0(a4)
    1602:	5f0e                	lw	t5,224(sp)
    1604:	626c                	flw	fa1,68(a2)
    1606:	0500                	addi	s0,sp,640
    1608:	02d311d7          	0x2d311d7
    160c:	0000                	unimp
    160e:	0b44                	addi	s1,sp,404
    1610:	0619                	addi	a2,a2,6
    1612:	0000                	unimp
    1614:	da05                	beqz	a2,1544 <_tbss_end+0x1544>
    1616:	00002c07          	flw	fs8,0(zero) # 0 <_tbss_end>
    161a:	4c00                	lw	s0,24(s0)
    161c:	00047d0b          	0x47d0b
    1620:	0500                	addi	s0,sp,640
    1622:	007e0adb          	0x7e0adb
    1626:	0000                	unimp
    1628:	0b50                	addi	a2,sp,404
    162a:	010d                	addi	sp,sp,3
    162c:	0000                	unimp
    162e:	de05                	beqz	a2,1566 <_tbss_end+0x1566>
    1630:	6212                	flw	ft4,4(sp)
    1632:	0004                	0x4
    1634:	5400                	lw	s0,40(s0)
    1636:	0004020b          	0x4020b
    163a:	0500                	addi	s0,sp,640
    163c:	0ce2                	slli	s9,s9,0x18
    163e:	0111                	addi	sp,sp,4
    1640:	0000                	unimp
    1642:	0b58                	addi	a4,sp,404
    1644:	02cd                	addi	t0,t0,19
    1646:	0000                	unimp
    1648:	e405                	bnez	s0,1670 <_tbss_end+0x1670>
    164a:	050e                	slli	a0,a0,0x3
    164c:	0001                	nop
    164e:	5c00                	lw	s0,56(s0)
    1650:	0005810b          	0x5810b
    1654:	0500                	addi	s0,sp,640
    1656:	09e5                	addi	s3,s3,25
    1658:	002c                	addi	a1,sp,8
    165a:	0000                	unimp
    165c:	0064                	addi	s1,sp,12
    165e:	00009613          	slli	a2,ra,0x0
    1662:	6200                	flw	fs0,0(a2)
    1664:	0004                	0x4
    1666:	1400                	addi	s0,sp,544
    1668:	0462                	slli	s0,s0,0x18
    166a:	0000                	unimp
    166c:	1d14                	addi	a3,sp,688
    166e:	0001                	nop
    1670:	1400                	addi	s0,sp,544
    1672:	05b6                	slli	a1,a1,0xd
    1674:	0000                	unimp
    1676:	2c14                	fld	fa3,24(s0)
    1678:	0000                	unimp
    167a:	0000                	unimp
    167c:	046d040f          	0x46d040f
    1680:	0000                	unimp
    1682:	6215                	lui	tp,0x5
    1684:	0004                	0x4
    1686:	1600                	addi	s0,sp,800
    1688:	05e8                	addi	a0,sp,716
    168a:	0000                	unimp
    168c:	0428                	addi	a0,sp,520
    168e:	3905                	jal	12be <_tbss_end+0x12be>
    1690:	0802                	c.slli64	a6
    1692:	05b6                	slli	a1,a1,0xd
    1694:	0000                	unimp
    1696:	00056717          	auipc	a4,0x56
    169a:	0500                	addi	s0,sp,640
    169c:	2c07023b          	0x2c07023b
    16a0:	0000                	unimp
    16a2:	0000                	unimp
    16a4:	0006e117          	auipc	sp,0x6e
    16a8:	0500                	addi	s0,sp,640
    16aa:	0240                	addi	s0,sp,260
    16ac:	0006a70b          	0x6a70b
    16b0:	0400                	addi	s0,sp,512
    16b2:	0006c917          	auipc	s2,0x6c
    16b6:	0500                	addi	s0,sp,640
    16b8:	0240                	addi	s0,sp,260
    16ba:	a714                	fsd	fa3,8(a4)
    16bc:	0006                	c.slli	zero,0x1
    16be:	0800                	addi	s0,sp,16
    16c0:	00028017          	auipc	zero,0x28
    16c4:	0500                	addi	s0,sp,640
    16c6:	0240                	addi	s0,sp,260
    16c8:	a71e                	fsd	ft7,392(sp)
    16ca:	0006                	c.slli	zero,0x1
    16cc:	0c00                	addi	s0,sp,528
    16ce:	0005c217          	auipc	tp,0x5c
    16d2:	0500                	addi	s0,sp,640
    16d4:	0242                	slli	tp,tp,0x10
    16d6:	2c08                	fld	fa0,24(s0)
    16d8:	0000                	unimp
    16da:	1000                	addi	s0,sp,32
    16dc:	00002417          	auipc	s0,0x2
    16e0:	0500                	addi	s0,sp,640
    16e2:	a7080243          	fmadd.q	ft4,fa6,fa6,fs4,rne
    16e6:	0008                	0x8
    16e8:	1400                	addi	s0,sp,544
    16ea:	0002a017          	auipc	zero,0x2a
    16ee:	0500                	addi	s0,sp,640
    16f0:	0246                	slli	tp,tp,0x11
    16f2:	00002c07          	flw	fs8,0(zero) # 0 <_tbss_end>
    16f6:	3000                	fld	fs0,32(s0)
    16f8:	00078217          	auipc	tp,0x78
    16fc:	0500                	addi	s0,sp,640
    16fe:	bc160247          	0xbc160247
    1702:	0008                	0x8
    1704:	3400                	fld	fs0,40(s0)
    1706:	0004bd17          	auipc	s10,0x4b
    170a:	0500                	addi	s0,sp,640
    170c:	0249                	addi	tp,tp,18
    170e:	00002c07          	flw	fs8,0(zero) # 0 <_tbss_end>
    1712:	3800                	fld	fs0,48(s0)
    1714:	0005d617          	auipc	a2,0x5d
    1718:	0500                	addi	s0,sp,640
    171a:	cd0a024b          	0xcd0a024b
    171e:	0008                	0x8
    1720:	3c00                	fld	fs0,56(s0)
    1722:	0003da17          	auipc	s4,0x3d
    1726:	0500                	addi	s0,sp,640
    1728:	024e                	slli	tp,tp,0x13
    172a:	00018513          	mv	a0,gp
    172e:	4000                	lw	s0,0(s0)
    1730:	0001ff17          	auipc	t5,0x1f
    1734:	0500                	addi	s0,sp,640
    1736:	2c07024f          	0x2c07024f
    173a:	0000                	unimp
    173c:	4400                	lw	s0,8(s0)
    173e:	00077d17          	auipc	s10,0x77
    1742:	0500                	addi	s0,sp,640
    1744:	0250                	addi	a2,sp,260
    1746:	00018513          	mv	a0,gp
    174a:	4800                	lw	s0,16(s0)
    174c:	0004d917          	auipc	s2,0x4d
    1750:	0500                	addi	s0,sp,640
    1752:	0251                	addi	tp,tp,20
    1754:	d314                	sw	a3,32(a4)
    1756:	0008                	0x8
    1758:	4c00                	lw	s0,24(s0)
    175a:	0002dd17          	auipc	s10,0x2d
    175e:	0500                	addi	s0,sp,640
    1760:	0254                	addi	a3,sp,260
    1762:	00002c07          	flw	fs8,0(zero) # 0 <_tbss_end>
    1766:	5000                	lw	s0,32(s0)
    1768:	00022c17          	auipc	s8,0x22
    176c:	0500                	addi	s0,sp,640
    176e:	0255                	addi	tp,tp,21
    1770:	b609                	j	1272 <_tbss_end+0x1272>
    1772:	0005                	c.nop	1
    1774:	5400                	lw	s0,40(s0)
    1776:	00056017          	auipc	zero,0x56
    177a:	0500                	addi	s0,sp,640
    177c:	0278                	addi	a4,sp,268
    177e:	00088207          	0x88207
    1782:	5800                	lw	s0,48(s0)
    1784:	ab18                	fsd	fa4,16(a4)
    1786:	0004                	0x4
    1788:	0500                	addi	s0,sp,640
    178a:	027c                	addi	a5,sp,268
    178c:	0002b613          	sltiu	a2,t0,0
    1790:	4800                	lw	s0,16(s0)
    1792:	1801                	addi	a6,a6,-32
    1794:	03b8                	addi	a4,sp,456
    1796:	0000                	unimp
    1798:	7d05                	lui	s10,0xfffe1
    179a:	1202                	slli	tp,tp,0x20
    179c:	00000273          	0x273
    17a0:	014c                	addi	a1,sp,132
    17a2:	fb18                	fsw	fa4,48(a4)
    17a4:	0006                	c.slli	zero,0x1
    17a6:	0500                	addi	s0,sp,640
    17a8:	0281                	addi	t0,t0,0
    17aa:	e40c                	fsw	fa1,8(s0)
    17ac:	0008                	0x8
    17ae:	dc00                	sw	s0,56(s0)
    17b0:	1802                	slli	a6,a6,0x20
    17b2:	01dc                	addi	a5,sp,196
    17b4:	0000                	unimp
    17b6:	8605                	srai	a2,a2,0x1
    17b8:	1002                	c.slli	zero,0x20
    17ba:	0668                	addi	a0,sp,780
    17bc:	0000                	unimp
    17be:	02e0                	addi	s0,sp,332
    17c0:	c118                	sw	a4,0(a0)
    17c2:	0001                	nop
    17c4:	0500                	addi	s0,sp,640
    17c6:	0288                	addi	a0,sp,320
    17c8:	f00a                	fsw	ft2,32(sp)
    17ca:	0008                	0x8
    17cc:	ec00                	fsw	fs0,24(s0)
    17ce:	0002                	c.slli64	zero
    17d0:	05bc040f          	0x5bc040f
    17d4:	0000                	unimp
    17d6:	0102                	c.slli64	sp
    17d8:	8708                	0x8708
    17da:	0006                	c.slli	zero,0x1
    17dc:	1500                	addi	s0,sp,672
    17de:	05bc                	addi	a5,sp,712
    17e0:	0000                	unimp
    17e2:	0444040f          	0x444040f
    17e6:	0000                	unimp
    17e8:	00009613          	slli	a2,ra,0x0
    17ec:	ec00                	fsw	fs0,24(s0)
    17ee:	0005                	c.nop	1
    17f0:	1400                	addi	s0,sp,544
    17f2:	0462                	slli	s0,s0,0x18
    17f4:	0000                	unimp
    17f6:	1d14                	addi	a3,sp,688
    17f8:	0001                	nop
    17fa:	1400                	addi	s0,sp,544
    17fc:	05ec                	addi	a1,sp,716
    17fe:	0000                	unimp
    1800:	2c14                	fld	fa3,24(s0)
    1802:	0000                	unimp
    1804:	0000                	unimp
    1806:	05c3040f          	0x5c3040f
    180a:	0000                	unimp
    180c:	ec15                	bnez	s0,1848 <_tbss_end+0x1848>
    180e:	0005                	c.nop	1
    1810:	0f00                	addi	s0,sp,912
    1812:	ce04                	sw	s1,24(a2)
    1814:	0005                	c.nop	1
    1816:	1300                	addi	s0,sp,416
    1818:	008a                	slli	ra,ra,0x2
    181a:	0000                	unimp
    181c:	0000061b          	0x61b
    1820:	6214                	flw	fa3,0(a2)
    1822:	0004                	0x4
    1824:	1400                	addi	s0,sp,544
    1826:	011d                	addi	sp,sp,7
    1828:	0000                	unimp
    182a:	8a14                	0x8a14
    182c:	0000                	unimp
    182e:	1400                	addi	s0,sp,544
    1830:	002c                	addi	a1,sp,8
    1832:	0000                	unimp
    1834:	0f00                	addi	s0,sp,912
    1836:	fd04                	fsw	fs1,56(a0)
    1838:	0005                	c.nop	1
    183a:	1300                	addi	s0,sp,416
    183c:	002c                	addi	a1,sp,8
    183e:	0000                	unimp
    1840:	0635                	addi	a2,a2,13
    1842:	0000                	unimp
    1844:	6214                	flw	fa3,0(a2)
    1846:	0004                	0x4
    1848:	1400                	addi	s0,sp,544
    184a:	011d                	addi	sp,sp,7
    184c:	0000                	unimp
    184e:	0f00                	addi	s0,sp,912
    1850:	2104                	fld	fs1,0(a0)
    1852:	0006                	c.slli	zero,0x1
    1854:	0800                	addi	s0,sp,16
    1856:	0000004f          	fnmadd.s	ft0,ft0,ft0,ft0,rne
    185a:	0000064b          	fnmsub.s	fa2,ft0,ft0,ft0,rne
    185e:	3309                	jal	1560 <_tbss_end+0x1560>
    1860:	0000                	unimp
    1862:	0200                	addi	s0,sp,256
    1864:	0800                	addi	s0,sp,16
    1866:	0000004f          	fnmadd.s	ft0,ft0,ft0,ft0,rne
    186a:	0000065b          	0x65b
    186e:	3309                	jal	1570 <_tbss_end+0x1570>
    1870:	0000                	unimp
    1872:	0000                	unimp
    1874:	0500                	addi	s0,sp,640
    1876:	01f8                	addi	a4,sp,204
    1878:	0000                	unimp
    187a:	1f05                	addi	t5,t5,-31
    187c:	1a01                	addi	s4,s4,-32
    187e:	0301                	addi	t1,t1,0
    1880:	0000                	unimp
    1882:	db19                	beqz	a4,1798 <_tbss_end+0x1798>
    1884:	0006                	c.slli	zero,0x1
    1886:	0c00                	addi	s0,sp,528
    1888:	2305                	jal	1da8 <_tbss_end+0x1da8>
    188a:	0801                	addi	a6,a6,0
    188c:	06a1                	addi	a3,a3,8
    188e:	0000                	unimp
    1890:	0007a817          	auipc	a6,0x7a
    1894:	0500                	addi	s0,sp,640
    1896:	0125                	addi	sp,sp,9
    1898:	a111                	j	1c9c <_tbss_end+0x1c9c>
    189a:	0006                	c.slli	zero,0x1
    189c:	0000                	unimp
    189e:	0002fd17          	auipc	s10,0x2f
    18a2:	0500                	addi	s0,sp,640
    18a4:	0126                	slli	sp,sp,0x9
    18a6:	00002c07          	flw	fs8,0(zero) # 0 <_tbss_end>
    18aa:	0400                	addi	s0,sp,512
    18ac:	00058917          	auipc	s2,0x58
    18b0:	0500                	addi	s0,sp,640
    18b2:	a70b0127          	0xa70b0127
    18b6:	0006                	c.slli	zero,0x1
    18b8:	0800                	addi	s0,sp,16
    18ba:	0f00                	addi	s0,sp,912
    18bc:	6804                	flw	fs1,16(s0)
    18be:	0006                	c.slli	zero,0x1
    18c0:	0f00                	addi	s0,sp,912
    18c2:	5b04                	lw	s1,48(a4)
    18c4:	0006                	c.slli	zero,0x1
    18c6:	1900                	addi	s0,sp,176
    18c8:	001c                	0x1c
    18ca:	0000                	unimp
    18cc:	050e                	slli	a0,a0,0x3
    18ce:	e608013f 17000006 	0x17000006e608013f
    18d6:	0645                	addi	a2,a2,17
    18d8:	0000                	unimp
    18da:	4005                	c.li	zero,1
    18dc:	1201                	addi	tp,tp,-32
    18de:	06e6                	slli	a3,a3,0x19
    18e0:	0000                	unimp
    18e2:	1700                	addi	s0,sp,928
    18e4:	0418                	addi	a4,sp,512
    18e6:	0000                	unimp
    18e8:	4105                	li	sp,1
    18ea:	1201                	addi	tp,tp,-32
    18ec:	06e6                	slli	a3,a3,0x19
    18ee:	0000                	unimp
    18f0:	1706                	slli	a4,a4,0x21
    18f2:	068c                	addi	a1,sp,832
    18f4:	0000                	unimp
    18f6:	4205                	li	tp,1
    18f8:	1201                	addi	tp,tp,-32
    18fa:	005d                	c.nop	23
    18fc:	0000                	unimp
    18fe:	000c                	0xc
    1900:	5d08                	lw	a0,56(a0)
    1902:	0000                	unimp
    1904:	f600                	fsw	fs0,40(a2)
    1906:	0006                	c.slli	zero,0x1
    1908:	0900                	addi	s0,sp,144
    190a:	00000033          	add	zero,zero,zero
    190e:	0002                	c.slli64	zero
    1910:	d01a                	sw	t1,32(sp)
    1912:	5905                	li	s2,-31
    1914:	0702                	c.slli64	a4
    1916:	0000080b          	0x80b
    191a:	00045417          	auipc	s0,0x45
    191e:	0500                	addi	s0,sp,640
    1920:	3318025b          	0x3318025b
    1924:	0000                	unimp
    1926:	0000                	unimp
    1928:	00066117          	auipc	sp,0x66
    192c:	0500                	addi	s0,sp,640
    192e:	025c                	addi	a5,sp,260
    1930:	b612                	fsd	ft4,296(sp)
    1932:	0005                	c.nop	1
    1934:	0400                	addi	s0,sp,512
    1936:	0003cd17          	auipc	s10,0x3c
    193a:	0500                	addi	s0,sp,640
    193c:	025d                	addi	tp,tp,23
    193e:	0b10                	addi	a2,sp,400
    1940:	0008                	0x8
    1942:	0800                	addi	s0,sp,16
    1944:	00073717          	auipc	a4,0x73
    1948:	0500                	addi	s0,sp,640
    194a:	025e                	slli	tp,tp,0x17
    194c:	00019b17          	auipc	s6,0x19
    1950:	2400                	fld	fs0,8(s0)
    1952:	00028817          	auipc	a6,0x28
    1956:	0500                	addi	s0,sp,640
    1958:	025f 2c0f 0000      	0x2c0f025f
    195e:	4800                	lw	s0,16(s0)
    1960:	0007a317          	auipc	t1,0x7a
    1964:	0500                	addi	s0,sp,640
    1966:	0260                	addi	s0,sp,268
    1968:	252c                	fld	fa1,72(a0)
    196a:	0000                	unimp
    196c:	5000                	lw	s0,32(s0)
    196e:	00074f17          	auipc	t5,0x74
    1972:	0500                	addi	s0,sp,640
    1974:	0261                	addi	tp,tp,24
    1976:	ad1a                	fsd	ft6,152(sp)
    1978:	0006                	c.slli	zero,0x1
    197a:	5800                	lw	s0,48(s0)
    197c:	0005b517          	auipc	a0,0x5b
    1980:	0500                	addi	s0,sp,640
    1982:	0262                	slli	tp,tp,0x18
    1984:	0516                	slli	a0,a0,0x5
    1986:	0001                	nop
    1988:	6800                	flw	fs0,16(s0)
    198a:	00076f17          	auipc	t5,0x76
    198e:	0500                	addi	s0,sp,640
    1990:	05160263          	beq	a2,a7,19d4 <_tbss_end+0x19d4>
    1994:	0001                	nop
    1996:	7000                	flw	fs0,32(s0)
    1998:	0001b317          	auipc	t1,0x1b
    199c:	0500                	addi	s0,sp,640
    199e:	0264                	addi	s1,sp,268
    19a0:	0516                	slli	a0,a0,0x5
    19a2:	0001                	nop
    19a4:	7800                	flw	fs0,48(s0)
    19a6:	0006f117          	auipc	sp,0x6f
    19aa:	0500                	addi	s0,sp,640
    19ac:	0265                	addi	tp,tp,25
    19ae:	1b10                	addi	a2,sp,432
    19b0:	0008                	0x8
    19b2:	8000                	0x8000
    19b4:	0003c117          	auipc	sp,0x3c
    19b8:	0500                	addi	s0,sp,640
    19ba:	0266                	slli	tp,tp,0x19
    19bc:	2b10                	fld	fa2,16(a4)
    19be:	0008                	0x8
    19c0:	8800                	0x8800
    19c2:	00027317          	auipc	t1,0x27
    19c6:	0500                	addi	s0,sp,640
    19c8:	2c0f0267          	jalr	tp,704(t5) # 77c4a <_tbss_end+0x77c4a>
    19cc:	0000                	unimp
    19ce:	a000                	fsd	fs0,0(s0)
    19d0:	00024517          	auipc	a0,0x24
    19d4:	0500                	addi	s0,sp,640
    19d6:	0268                	addi	a0,sp,268
    19d8:	0516                	slli	a0,a0,0x5
    19da:	0001                	nop
    19dc:	a400                	fsd	fs0,8(s0)
    19de:	00017617          	auipc	a2,0x17
    19e2:	0500                	addi	s0,sp,640
    19e4:	0269                	addi	tp,tp,26
    19e6:	0516                	slli	a0,a0,0x5
    19e8:	0001                	nop
    19ea:	ac00                	fsd	fs0,24(s0)
    19ec:	00023417          	auipc	s0,0x23
    19f0:	0500                	addi	s0,sp,640
    19f2:	026a                	slli	tp,tp,0x1a
    19f4:	0516                	slli	a0,a0,0x5
    19f6:	0001                	nop
    19f8:	b400                	fsd	fs0,40(s0)
    19fa:	00011317          	auipc	t1,0x11
    19fe:	0500                	addi	s0,sp,640
    1a00:	0516026b          	0x516026b
    1a04:	0001                	nop
    1a06:	bc00                	fsd	fs0,56(s0)
    1a08:	00012217          	auipc	tp,0x12
    1a0c:	0500                	addi	s0,sp,640
    1a0e:	026c                	addi	a1,sp,268
    1a10:	0516                	slli	a0,a0,0x5
    1a12:	0001                	nop
    1a14:	c400                	sw	s0,8(s0)
    1a16:	00056517          	auipc	a0,0x56
    1a1a:	0500                	addi	s0,sp,640
    1a1c:	026d                	addi	tp,tp,27
    1a1e:	2c08                	fld	fa0,24(s0)
    1a20:	0000                	unimp
    1a22:	cc00                	sw	s0,24(s0)
    1a24:	0800                	addi	s0,sp,16
    1a26:	05bc                	addi	a5,sp,712
    1a28:	0000                	unimp
    1a2a:	0000081b          	0x81b
    1a2e:	3309                	jal	1730 <_tbss_end+0x1730>
    1a30:	0000                	unimp
    1a32:	1900                	addi	s0,sp,176
    1a34:	0800                	addi	s0,sp,16
    1a36:	05bc                	addi	a5,sp,712
    1a38:	0000                	unimp
    1a3a:	0000082b          	0x82b
    1a3e:	3309                	jal	1740 <_tbss_end+0x1740>
    1a40:	0000                	unimp
    1a42:	0700                	addi	s0,sp,896
    1a44:	0800                	addi	s0,sp,16
    1a46:	05bc                	addi	a5,sp,712
    1a48:	0000                	unimp
    1a4a:	0000083b          	0x83b
    1a4e:	3309                	jal	1750 <_tbss_end+0x1750>
    1a50:	0000                	unimp
    1a52:	1700                	addi	s0,sp,928
    1a54:	1a00                	addi	s0,sp,304
    1a56:	05f0                	addi	a2,sp,716
    1a58:	0272                	slli	tp,tp,0x1c
    1a5a:	00086207          	0x86207
    1a5e:	1700                	addi	s0,sp,928
    1a60:	048d                	addi	s1,s1,3
    1a62:	0000                	unimp
    1a64:	7505                	lui	a0,0xfffe1
    1a66:	1b02                	slli	s6,s6,0x20
    1a68:	0862                	slli	a6,a6,0x18
    1a6a:	0000                	unimp
    1a6c:	1700                	addi	s0,sp,928
    1a6e:	00000297          	auipc	t0,0x0
    1a72:	7605                	lui	a2,0xfffe1
    1a74:	1802                	slli	a6,a6,0x20
    1a76:	0872                	slli	a6,a6,0x1c
    1a78:	0000                	unimp
    1a7a:	0078                	addi	a4,sp,12
    1a7c:	fb08                	fsw	fa0,48(a4)
    1a7e:	0002                	c.slli64	zero
    1a80:	7200                	flw	fs0,32(a2)
    1a82:	0008                	0x8
    1a84:	0900                	addi	s0,sp,144
    1a86:	00000033          	add	zero,zero,zero
    1a8a:	001d                	c.nop	7
    1a8c:	3308                	fld	fa0,32(a4)
    1a8e:	0000                	unimp
    1a90:	8200                	0x8200
    1a92:	0008                	0x8
    1a94:	0900                	addi	s0,sp,144
    1a96:	00000033          	add	zero,zero,zero
    1a9a:	001d                	c.nop	7
    1a9c:	5705f01b          	0x5705f01b
    1aa0:	0302                	c.slli64	t1
    1aa2:	000008a7          	0x8a7
    1aa6:	e81c                	fsw	fa5,16(s0)
    1aa8:	0005                	c.nop	1
    1aaa:	0500                	addi	s0,sp,640
    1aac:	026e                	slli	tp,tp,0x1b
    1aae:	0006f60b          	0x6f60b
    1ab2:	1c00                	addi	s0,sp,560
    1ab4:	071a                	slli	a4,a4,0x6
    1ab6:	0000                	unimp
    1ab8:	7705                	lui	a4,0xfffe1
    1aba:	0b02                	c.slli64	s6
    1abc:	0000083b          	0x83b
    1ac0:	0800                	addi	s0,sp,16
    1ac2:	05bc                	addi	a5,sp,712
    1ac4:	0000                	unimp
    1ac6:	000008b7          	lui	a7,0x0
    1aca:	3309                	jal	17cc <_tbss_end+0x17cc>
    1acc:	0000                	unimp
    1ace:	1800                	addi	s0,sp,48
    1ad0:	1d00                	addi	s0,sp,688
    1ad2:	0000016b          	0x16b
    1ad6:	08b7040f          	0x8b7040f
    1ada:	0000                	unimp
    1adc:	cd1e                	sw	t2,152(sp)
    1ade:	0008                	0x8
    1ae0:	1400                	addi	s0,sp,544
    1ae2:	0462                	slli	s0,s0,0x18
    1ae4:	0000                	unimp
    1ae6:	0f00                	addi	s0,sp,912
    1ae8:	c204                	sw	s1,0(a2)
    1aea:	0008                	0x8
    1aec:	0f00                	addi	s0,sp,912
    1aee:	8504                	0x8504
    1af0:	0001                	nop
    1af2:	1e00                	addi	s0,sp,816
    1af4:	08e4                	addi	s1,sp,92
    1af6:	0000                	unimp
    1af8:	2c14                	fld	fa3,24(s0)
    1afa:	0000                	unimp
    1afc:	0000                	unimp
    1afe:	08ea040f          	0x8ea040f
    1b02:	0000                	unimp
    1b04:	08d9040f          	0x8d9040f
    1b08:	0000                	unimp
    1b0a:	5b08                	lw	a0,48(a4)
    1b0c:	0006                	c.slli	zero,0x1
    1b0e:	0000                	unimp
    1b10:	0009                	c.nop	2
    1b12:	0900                	addi	s0,sp,144
    1b14:	00000033          	add	zero,zero,zero
    1b18:	0002                	c.slli64	zero
    1b1a:	b51f 0006 0500      	0x5000006b51f
    1b20:	62170307          	0x62170307
    1b24:	0004                	0x4
    1b26:	1f00                	addi	s0,sp,944
    1b28:	06ae                	slli	a3,a3,0xb
    1b2a:	0000                	unimp
    1b2c:	0805                	addi	a6,a6,1
    1b2e:	04681d03          	lh	s10,70(a6) # 29998 <_tbss_end+0x29998>
    1b32:	0000                	unimp
    1b34:	f208                	fsw	fa0,32(a2)
    1b36:	0005                	c.nop	1
    1b38:	2500                	fld	fs0,8(a0)
    1b3a:	0009                	c.nop	2
    1b3c:	2000                	fld	fs0,0(s0)
    1b3e:	1500                	addi	s0,sp,672
    1b40:	091a                	slli	s2,s2,0x6
    1b42:	0000                	unimp
    1b44:	1f21                	addi	t5,t5,-24
    1b46:	0002                	c.slli64	zero
    1b48:	0600                	addi	s0,sp,768
    1b4a:	2414                	fld	fa3,8(s0)
    1b4c:	0925                	addi	s2,s2,9
    1b4e:	0000                	unimp
    1b50:	ab21                	j	2068 <_tbss_end+0x2068>
    1b52:	0005                	c.nop	1
    1b54:	0600                	addi	s0,sp,768
    1b56:	1515                	addi	a0,a0,-27
    1b58:	002c                	addi	a1,sp,8
    1b5a:	0000                	unimp
    1b5c:	0948040f          	0x948040f
    1b60:	0000                	unimp
    1b62:	00002c13          	slti	s8,zero,0
    1b66:	5c00                	lw	s0,56(s0)
    1b68:	0009                	c.nop	2
    1b6a:	1400                	addi	s0,sp,544
    1b6c:	095c                	addi	a5,sp,148
    1b6e:	0000                	unimp
    1b70:	5c14                	lw	a3,56(s0)
    1b72:	0009                	c.nop	2
    1b74:	0000                	unimp
    1b76:	0962040f          	0x962040f
    1b7a:	0000                	unimp
    1b7c:	2122                	fld	ft2,8(sp)
    1b7e:	000004b3          	add	s1,zero,zero
    1b82:	b60e6307          	0xb60e6307
    1b86:	0005                	c.nop	1
    1b88:	2100                	fld	fs0,0(a0)
    1b8a:	000003f3          	0x3f3
    1b8e:	1008                	addi	a0,sp,32
    1b90:	00097b0f          	0x97b0f
    1b94:	0f00                	addi	s0,sp,912
    1b96:	b604                	fsd	fs1,40(a2)
    1b98:	0005                	c.nop	1
    1b9a:	2100                	fld	fs0,0(a0)
    1b9c:	04b6                	slli	s1,s1,0xd
    1b9e:	0000                	unimp
    1ba0:	fc08                	fsw	fa0,56(s0)
    1ba2:	b60e                	fsd	ft3,296(sp)
    1ba4:	0005                	c.nop	1
    1ba6:	2100                	fld	fs0,0(a0)
    1ba8:	0146                	slli	sp,sp,0x11
    1baa:	0000                	unimp
    1bac:	fd08                	fsw	fa0,56(a0)
    1bae:	2c0c                	fld	fa1,24(s0)
    1bb0:	0000                	unimp
    1bb2:	2100                	fld	fs0,0(a0)
    1bb4:	0000064b          	fnmsub.s	fa2,ft0,ft0,ft0,rne
    1bb8:	fd08                	fsw	fa0,56(a0)
    1bba:	2c14                	fld	fa3,24(s0)
    1bbc:	0000                	unimp
    1bbe:	2100                	fld	fs0,0(a0)
    1bc0:	075e                	slli	a4,a4,0x17
    1bc2:	0000                	unimp
    1bc4:	fd08                	fsw	fa0,56(a0)
    1bc6:	2c1c                	fld	fa5,24(s0)
    1bc8:	0000                	unimp
    1bca:	2100                	fld	fs0,0(a0)
    1bcc:	0432                	slli	s0,s0,0xc
    1bce:	0000                	unimp
    1bd0:	ff08                	fsw	fa0,56(a4)
    1bd2:	2c0c                	fld	fa1,24(s0)
    1bd4:	0000                	unimp
    1bd6:	2100                	fld	fs0,0(a0)
    1bd8:	000004e3          	beqz	zero,23e0 <_tbss_end+0x23e0>
    1bdc:	9a09                	andi	a2,a2,-30
    1bde:	6416                	flw	fs0,68(sp)
    1be0:	0000                	unimp
    1be2:	2100                	fld	fs0,0(a0)
    1be4:	0000002f          	0x2f
    1be8:	9b09                	andi	a4,a4,-30
    1bea:	2c15                	jal	1e1e <_tbss_end+0x1e1e>
    1bec:	0000                	unimp
    1bee:	0800                	addi	s0,sp,16
    1bf0:	05b6                	slli	a1,a1,0xd
    1bf2:	0000                	unimp
    1bf4:	09e5                	addi	s3,s3,25
    1bf6:	0000                	unimp
    1bf8:	3309                	jal	18fa <_tbss_end+0x18fa>
    1bfa:	0000                	unimp
    1bfc:	0100                	addi	s0,sp,128
    1bfe:	2100                	fld	fs0,0(a0)
    1c00:	0185                	addi	gp,gp,1
    1c02:	0000                	unimp
    1c04:	9e09                	0x9e09
    1c06:	0009d517          	auipc	a0,0x9d
    1c0a:	0400                	addi	s0,sp,512
    1c0c:	000002eb          	0x2eb
    1c10:	2a0a                	fld	fs4,128(sp)
    1c12:	3316                	fld	ft6,352(sp)
    1c14:	0000                	unimp
    1c16:	0400                	addi	s0,sp,512
    1c18:	0599                	addi	a1,a1,6
    1c1a:	0000                	unimp
    1c1c:	2f0a                	fld	ft10,128(sp)
    1c1e:	0915                	addi	s2,s2,5
    1c20:	000a                	c.slli	zero,0x2
    1c22:	0f00                	addi	s0,sp,912
    1c24:	0f04                	addi	s1,sp,912
    1c26:	000a                	c.slli	zero,0x2
    1c28:	1300                	addi	s0,sp,416
    1c2a:	09f1                	addi	s3,s3,28
    1c2c:	0000                	unimp
    1c2e:	0a1e                	slli	s4,s4,0x7
    1c30:	0000                	unimp
    1c32:	5c14                	lw	a3,56(s0)
    1c34:	0009                	c.nop	2
    1c36:	0000                	unimp
    1c38:	ae04                	fsd	fs1,24(a2)
    1c3a:	0a000007          	0xa000007
    1c3e:	0f36                	slli	t5,t5,0xd
    1c40:	0942                	slli	s2,s2,0x10
    1c42:	0000                	unimp
    1c44:	0a21                	addi	s4,s4,8
    1c46:	0000                	unimp
    1c48:	0a00                	addi	s0,sp,272
    1c4a:	09fd12bb          	0x9fd12bb
    1c4e:	0000                	unimp
    1c50:	9921                	andi	a0,a0,-24
    1c52:	0006                	c.slli	zero,0x1
    1c54:	0a00                	addi	s0,sp,272
    1c56:	10be                	slli	ra,ra,0x2f
    1c58:	0a1e                	slli	s4,s4,0x7
    1c5a:	0000                	unimp
    1c5c:	0002be23          	0x2be23
    1c60:	0700                	addi	s0,sp,896
    1c62:	3304                	fld	fs1,32(a4)
    1c64:	0000                	unimp
    1c66:	0b00                	addi	s0,sp,400
    1c68:	0618                	addi	a4,sp,768
    1c6a:	0a7f                	0xa7f
    1c6c:	0000                	unimp
    1c6e:	4024                	lw	s1,64(s0)
    1c70:	0005                	c.nop	1
    1c72:	0000                	unimp
    1c74:	0d24                	addi	s1,sp,664
    1c76:	0004                	0x4
    1c78:	0100                	addi	s0,sp,128
    1c7a:	e824                	fsw	fs1,80(s0)
    1c7c:	02000003          	lb	zero,32(zero) # 20 <_tbss_end+0x20>
    1c80:	6124                	flw	fs1,64(a0)
    1c82:	0004                	0x4
    1c84:	0300                	addi	s0,sp,384
    1c86:	3724                	fld	fs1,104(a4)
    1c88:	0005                	c.nop	1
    1c8a:	0400                	addi	s0,sp,512
    1c8c:	6524                	flw	fs1,72(a0)
    1c8e:	05000007          	0x5000007
    1c92:	5424                	lw	s1,104(s0)
    1c94:	06000007          	0x6000007
    1c98:	2100                	fld	fs0,0(a0)
    1c9a:	0161                	addi	sp,sp,24
    1c9c:	0000                	unimp
    1c9e:	421c210b          	0x421c210b
    1ca2:	000a                	c.slli	zero,0x2
    1ca4:	2300                	fld	fs0,0(a4)
    1ca6:	046c                	addi	a1,sp,524
    1ca8:	0000                	unimp
    1caa:	00330407          	0x330407
    1cae:	0000                	unimp
    1cb0:	b006230b          	0xb006230b
    1cb4:	000a                	c.slli	zero,0x2
    1cb6:	2400                	fld	fs0,8(s0)
    1cb8:	0000058f          	0x58f
    1cbc:	2400                	fld	fs0,8(s0)
    1cbe:	0556                	slli	a0,a0,0x15
    1cc0:	0000                	unimp
    1cc2:	2401                	jal	1ec2 <_tbss_end+0x1ec2>
    1cc4:	066e                	slli	a2,a2,0x1b
    1cc6:	0000                	unimp
    1cc8:	0002                	c.slli64	zero
    1cca:	5321                	li	t1,-24
    1ccc:	0002                	c.slli64	zero
    1cce:	0b00                	addi	s0,sp,400
    1cd0:	1e28                	addi	a0,sp,824
    1cd2:	00000a8b          	0xa8b
    1cd6:	2321                	jal	21de <_tbss_end+0x21de>
    1cd8:	0004                	0x4
    1cda:	0c00                	addi	s0,sp,528
    1cdc:	1a29                	addi	s4,s4,-22
    1cde:	0925                	addi	s2,s2,9
    1ce0:	0000                	unimp
    1ce2:	3521                	jal	1aea <_tbss_end+0x1aea>
    1ce4:	0006                	c.slli	zero,0x1
    1ce6:	0c00                	addi	s0,sp,528
    1ce8:	1a38                	addi	a4,sp,312
    1cea:	0925                	addi	s2,s2,9
    1cec:	0000                	unimp
    1cee:	8a04                	0x8a04
    1cf0:	0d000007          	0xd000007
    1cf4:	004f167b          	0x4f167b
    1cf8:	0000                	unimp
    1cfa:	d415                	beqz	s0,1c26 <_tbss_end+0x1c26>
    1cfc:	000a                	c.slli	zero,0x2
    1cfe:	0400                	addi	s0,sp,512
    1d00:	020a                	slli	tp,tp,0x2
    1d02:	0000                	unimp
    1d04:	800d                	srli	s0,s0,0x3
    1d06:	00002c0f          	0x2c0f
    1d0a:	0400                	addi	s0,sp,512
    1d0c:	0209                	addi	tp,tp,2
    1d0e:	0000                	unimp
    1d10:	810d                	srli	a0,a0,0x3
    1d12:	3316                	fld	ft6,352(sp)
    1d14:	0000                	unimp
    1d16:	0400                	addi	s0,sp,512
    1d18:	06c2                	slli	a3,a3,0x10
    1d1a:	0000                	unimp
    1d1c:	840d                	srai	s0,s0,0x3
    1d1e:	00003a0f          	0x3a0f
    1d22:	0400                	addi	s0,sp,512
    1d24:	06c1                	addi	a3,a3,16
    1d26:	0000                	unimp
    1d28:	850d                	srai	a0,a0,0x3
    1d2a:	2516                	fld	fa0,320(sp)
    1d2c:	0000                	unimp
    1d2e:	0200                	addi	s0,sp,256
    1d30:	0404                	addi	s1,sp,512
    1d32:	049c                	addi	a5,sp,576
    1d34:	0000                	unimp
    1d36:	0802                	c.slli64	a6
    1d38:	00049403          	lh	s0,0(s1)
    1d3c:	0200                	addi	s0,sp,256
    1d3e:	0408                	addi	a0,sp,512
    1d40:	015a                	slli	sp,sp,0x16
    1d42:	0000                	unimp
    1d44:	1002                	c.slli	zero,0x20
    1d46:	00003903          	0x3903
    1d4a:	0200                	addi	s0,sp,256
    1d4c:	0320                	addi	s0,sp,392
    1d4e:	014d                	addi	sp,sp,19
    1d50:	0000                	unimp
    1d52:	2519                	jal	2358 <_tbss_end+0x2358>
    1d54:	08000003          	lb	zero,128(zero) # 80 <_tbss_end+0x80>
    1d58:	ed0d                	bnez	a0,1d92 <_tbss_end+0x1d92>
    1d5a:	0a01                	addi	s4,s4,0
    1d5c:	00000b63          	beqz	zero,1d72 <_tbss_end+0x1d72>
    1d60:	6c25                	lui	s8,0x9
    1d62:	0d00776f          	jal	a4,8e32 <_tbss_end+0x8e32>
    1d66:	01ed                	addi	gp,gp,27
    1d68:	e51a                	fsw	ft6,136(sp)
    1d6a:	000a                	c.slli	zero,0x2
    1d6c:	0000                	unimp
    1d6e:	00065217          	auipc	tp,0x65
    1d72:	0d00                	addi	s0,sp,656
    1d74:	01ed                	addi	gp,gp,27
    1d76:	e51f 000a 0400      	0x400000ae51f
    1d7c:	1b00                	addi	s0,sp,432
    1d7e:	0d08                	addi	a0,sp,656
    1d80:	01f4                	addi	a3,sp,204
    1d82:	8509                	srai	a0,a0,0x2
    1d84:	2600000b          	0x2600000b
    1d88:	f60d0073          	0xf60d0073
    1d8c:	1301                	addi	t1,t1,-32
    1d8e:	0b38                	addi	a4,sp,408
    1d90:	0000                	unimp
    1d92:	6c26                	flw	fs8,72(sp)
    1d94:	006c                	addi	a1,sp,12
    1d96:	f70d                	bnez	a4,1cc0 <_tbss_end+0x1cc0>
    1d98:	0a01                	addi	s4,s4,0
    1d9a:	0afd                	addi	s5,s5,31
    1d9c:	0000                	unimp
    1d9e:	0500                	addi	s0,sp,640
    1da0:	02f5                	addi	t0,t0,29
    1da2:	0000                	unimp
    1da4:	f80d                	bnez	s0,1cd6 <_tbss_end+0x1cd6>
    1da6:	0301                	addi	t1,t1,0
    1da8:	00000b63          	beqz	zero,1dbe <_tbss_end+0x1dbe>
    1dac:	8515                	srai	a0,a0,0x5
    1dae:	0800000b          	0x800000b
    1db2:	0ae0                	addi	s0,sp,348
    1db4:	0000                	unimp
    1db6:	00000ba7          	0xba7
    1dba:	3309                	jal	1abc <_tbss_end+0x1abc>
    1dbc:	0000                	unimp
    1dbe:	ff00                	fsw	fs0,56(a4)
    1dc0:	1500                	addi	s0,sp,672
    1dc2:	00000b97          	auipc	s7,0x0
    1dc6:	051f 0007 0d00      	0xd000007051f
    1dcc:	01fc                	addi	a5,sp,204
    1dce:	a716                	fsd	ft5,392(sp)
    1dd0:	1f00000b          	0x1f00000b
    1dd4:	0000031b          	0x31b
    1dd8:	020d                	addi	tp,tp,3
    1dda:	1602                	slli	a2,a2,0x20
    1ddc:	00000ba7          	0xba7
    1de0:	0007b627          	fsd	ft0,12(a5) # 1000c <_tbss_end+0x1000c>
    1de4:	0100                	addi	s0,sp,128
    1de6:	051a                	slli	a0,a0,0x6
    1de8:	0901                	addi	s2,s2,0
    1dea:	fa00000b          	0xfa00000b
    1dee:	0024                	addi	s1,sp,8
    1df0:	5280                	lw	s0,32(a3)
    1df2:	01000003          	lb	zero,16(zero) # 10 <_tbss_end+0x10>
    1df6:	009c                	addi	a5,sp,64
    1df8:	2800000f          	0x2800000f
    1dfc:	0075                	c.nop	29
    1dfe:	1a01                	addi	s4,s4,-32
    1e00:	1405                	addi	s0,s0,-31
    1e02:	0b09                	addi	s6,s6,2
    1e04:	0000                	unimp
    1e06:	0c1c                	addi	a5,sp,528
    1e08:	0000                	unimp
    1e0a:	7628                	flw	fa0,104(a2)
    1e0c:	0100                	addi	s0,sp,128
    1e0e:	051a                	slli	a0,a0,0x6
    1e10:	091f 000b c400      	0xc400000b091f
    1e16:	000c                	0xc
    1e18:	2900                	fld	fs0,16(a0)
    1e1a:	1c010077          	0x1c010077
    1e1e:	0b05                	addi	s6,s6,1
    1e20:	0b09                	addi	s6,s6,2
    1e22:	0000                	unimp
    1e24:	0d2c                	addi	a1,sp,664
    1e26:	0000                	unimp
    1e28:	002a                	c.slli	zero,0xa
    1e2a:	fa00000f          	0xfa00000f
    1e2e:	0024                	addi	s1,sp,8
    1e30:	0080                	addi	s0,sp,64
    1e32:	0001                	nop
    1e34:	0100                	addi	s0,sp,128
    1e36:	051e                	slli	a0,a0,0x7
    1e38:	2b0a                	fld	fs6,128(sp)
    1e3a:	0f28                	addi	a0,sp,920
    1e3c:	0000                	unimp
    1e3e:	0d44                	addi	s1,sp,660
    1e40:	0000                	unimp
    1e42:	000f1d2b          	0xf1d2b
    1e46:	6c00                	flw	fs0,24(s0)
    1e48:	000d                	c.nop	3
    1e4a:	2b00                	fld	fs0,16(a4)
    1e4c:	0f12                	slli	t5,t5,0x4
    1e4e:	0000                	unimp
    1e50:	0dd4                	addi	a3,sp,724
    1e52:	0000                	unimp
    1e54:	002c                	addi	a1,sp,8
    1e56:	0001                	nop
    1e58:	2d00                	fld	fs0,24(a0)
    1e5a:	0f34                	addi	a3,sp,920
    1e5c:	0000                	unimp
    1e5e:	402d                	c.li	zero,11
    1e60:	2d00000f          	0x2d00000f
    1e64:	0f4c                	addi	a1,sp,916
    1e66:	0000                	unimp
    1e68:	582e                	lw	a6,232(sp)
    1e6a:	4c00000f          	0x4c00000f
    1e6e:	000e                	c.slli	zero,0x3
    1e70:	2e00                	fld	fs0,24(a2)
    1e72:	0f64                	addi	s1,sp,924
    1e74:	0000                	unimp
    1e76:	00000e8b          	0xe8b
    1e7a:	702e                	flw	ft0,232(sp)
    1e7c:	e000000f          	0xe000000f
    1e80:	000e                	c.slli	zero,0x3
    1e82:	2e00                	fld	fs0,24(a2)
    1e84:	0f7c                	addi	a5,sp,924
    1e86:	0000                	unimp
    1e88:	0f56                	slli	t5,t5,0x15
    1e8a:	0000                	unimp
    1e8c:	882e                	mv	a6,a1
    1e8e:	e200000f          	0xe200000f
    1e92:	2e00000f          	0x2e00000f
    1e96:	0f94                	addi	a3,sp,976
    1e98:	0000                	unimp
    1e9a:	1000                	addi	s0,sp,32
    1e9c:	0000                	unimp
    1e9e:	a02e                	fsd	fa1,0(sp)
    1ea0:	1400000f          	0x1400000f
    1ea4:	0010                	0x10
    1ea6:	2e00                	fld	fs0,24(a2)
    1ea8:	0fac                	addi	a1,sp,984
    1eaa:	0000                	unimp
    1eac:	1034                	addi	a3,sp,40
    1eae:	0000                	unimp
    1eb0:	b72e                	fsd	fa1,424(sp)
    1eb2:	5200000f          	0x5200000f
    1eb6:	0010                	0x10
    1eb8:	2d00                	fld	fs0,24(a0)
    1eba:	00000fc3          	fmadd.s	ft11,ft0,ft0,ft0,rne
    1ebe:	000fcf2f          	0xfcf2f
    1ec2:	1800                	addi	s0,sp,48
    1ec4:	0001                	nop
    1ec6:	c400                	sw	s0,8(s0)
    1ec8:	000c                	0xc
    1eca:	2e00                	fld	fs0,24(a2)
    1ecc:	0fd4                	addi	a3,sp,980
    1ece:	0000                	unimp
    1ed0:	1091                	addi	ra,ra,-28
    1ed2:	0000                	unimp
    1ed4:	e12e                	fsw	fa1,128(sp)
    1ed6:	af00000f          	0xaf00000f
    1eda:	0010                	0x10
    1edc:	0000                	unimp
    1ede:	ef30                	fsw	fa2,88(a4)
    1ee0:	4e00000f          	0x4e00000f
    1ee4:	0025                	c.nop	9
    1ee6:	5a80                	lw	s0,48(a3)
    1ee8:	0000                	unimp
    1eea:	1100                	addi	s0,sp,160
    1eec:	000d                	c.nop	3
    1eee:	2e00                	fld	fs0,24(a2)
    1ef0:	0ff4                	addi	a3,sp,988
    1ef2:	0000                	unimp
    1ef4:	10c2                	slli	ra,ra,0x30
    1ef6:	0000                	unimp
    1ef8:	012e                	slli	sp,sp,0xb
    1efa:	0010                	0x10
    1efc:	d500                	sw	s0,40(a0)
    1efe:	0010                	0x10
    1f00:	2d00                	fld	fs0,24(a0)
    1f02:	100e                	c.slli	zero,0x23
    1f04:	0000                	unimp
    1f06:	1b2e                	slli	s6,s6,0x2b
    1f08:	0010                	0x10
    1f0a:	f900                	fsw	fs0,48(a0)
    1f0c:	0010                	0x10
    1f0e:	2e00                	fld	fs0,24(a2)
    1f10:	1028                	addi	a0,sp,40
    1f12:	0000                	unimp
    1f14:	110c                	addi	a1,sp,160
    1f16:	0000                	unimp
    1f18:	352e                	fld	fa0,232(sp)
    1f1a:	0010                	0x10
    1f1c:	2a00                	fld	fs0,16(a2)
    1f1e:	0011                	c.nop	4
    1f20:	2e00                	fld	fs0,24(a2)
    1f22:	1042                	c.slli	zero,0x30
    1f24:	0000                	unimp
    1f26:	1148                	addi	a0,sp,164
    1f28:	0000                	unimp
    1f2a:	2f00                	fld	fs0,24(a4)
    1f2c:	1050                	addi	a2,sp,36
    1f2e:	0000                	unimp
    1f30:	0130                	addi	a2,sp,136
    1f32:	0000                	unimp
    1f34:	0d31                	addi	s10,s10,12
    1f36:	0000                	unimp
    1f38:	552e                	lw	a0,232(sp)
    1f3a:	0010                	0x10
    1f3c:	6600                	flw	fs0,8(a2)
    1f3e:	0011                	c.nop	4
    1f40:	2e00                	fld	fs0,24(a2)
    1f42:	1062                	c.slli	zero,0x38
    1f44:	0000                	unimp
    1f46:	1184                	addi	s1,sp,224
    1f48:	0000                	unimp
    1f4a:	3000                	fld	fs0,32(s0)
    1f4c:	10d1                	addi	ra,ra,-12
    1f4e:	0000                	unimp
    1f50:	25f2                	fld	fa1,280(sp)
    1f52:	8000                	0x8000
    1f54:	005c                	addi	a5,sp,4
    1f56:	0000                	unimp
    1f58:	0d82                	c.slli64	s11
    1f5a:	0000                	unimp
    1f5c:	d62e                	sw	a1,44(sp)
    1f5e:	0010                	0x10
    1f60:	a200                	fsd	fs0,0(a2)
    1f62:	0011                	c.nop	4
    1f64:	2e00                	fld	fs0,24(a2)
    1f66:	000010e3          	bnez	zero,2766 <_tbss_end+0x2766>
    1f6a:	11b5                	addi	gp,gp,-19
    1f6c:	0000                	unimp
    1f6e:	f02e                	fsw	fa1,32(sp)
    1f70:	0010                	0x10
    1f72:	d900                	sw	s0,48(a0)
    1f74:	0011                	c.nop	4
    1f76:	2e00                	fld	fs0,24(a2)
    1f78:	10fd                	addi	ra,ra,-1
    1f7a:	0000                	unimp
    1f7c:	11ec                	addi	a1,sp,236
    1f7e:	0000                	unimp
    1f80:	0a2e                	slli	s4,s4,0xb
    1f82:	0011                	c.nop	4
    1f84:	ff00                	fsw	fs0,56(a4)
    1f86:	0011                	c.nop	4
    1f88:	2e00                	fld	fs0,24(a2)
    1f8a:	00001117          	auipc	sp,0x1
    1f8e:	1228                	addi	a0,sp,296
    1f90:	0000                	unimp
    1f92:	242e                	fld	fs0,200(sp)
    1f94:	0011                	c.nop	4
    1f96:	4600                	lw	s0,8(a2)
    1f98:	0012                	c.slli	zero,0x4
    1f9a:	0000                	unimp
    1f9c:	0010702f          	0x10702f
    1fa0:	4800                	lw	s0,16(s0)
    1fa2:	0001                	nop
    1fa4:	cf00                	sw	s0,24(a4)
    1fa6:	000d                	c.nop	3
    1fa8:	2e00                	fld	fs0,24(a2)
    1faa:	1075                	c.nop	-3
    1fac:	0000                	unimp
    1fae:	1264                	addi	s1,sp,300
    1fb0:	0000                	unimp
    1fb2:	822e                	mv	tp,a1
    1fb4:	0010                	0x10
    1fb6:	7700                	flw	fs0,40(a4)
    1fb8:	0012                	c.slli	zero,0x4
    1fba:	2e00                	fld	fs0,24(a2)
    1fbc:	0000108f          	0x108f
    1fc0:	0000129b          	0x129b
    1fc4:	9c2e                	add	s8,s8,a1
    1fc6:	0010                	0x10
    1fc8:	ae00                	fsd	fs0,24(a2)
    1fca:	0012                	c.slli	zero,0x4
    1fcc:	2e00                	fld	fs0,24(a2)
    1fce:	10a9                	addi	ra,ra,-22
    1fd0:	0000                	unimp
    1fd2:	12c1                	addi	t0,t0,-16
    1fd4:	0000                	unimp
    1fd6:	b62e                	fsd	fa1,296(sp)
    1fd8:	0010                	0x10
    1fda:	ea00                	fsw	fs0,16(a2)
    1fdc:	0012                	c.slli	zero,0x4
    1fde:	2e00                	fld	fs0,24(a2)
    1fe0:	000010c3          	fmadd.s	ft1,ft0,ft0,ft0,rtz
    1fe4:	1308                	addi	a0,sp,416
    1fe6:	0000                	unimp
    1fe8:	2f00                	fld	fs0,24(a4)
    1fea:	1132                	slli	sp,sp,0x2c
    1fec:	0000                	unimp
    1fee:	0160                	addi	s0,sp,140
    1ff0:	0000                	unimp
    1ff2:	00000def          	jal	s11,1ff2 <_tbss_end+0x1ff2>
    1ff6:	372e                	fld	fa4,232(sp)
    1ff8:	0011                	c.nop	4
    1ffa:	2600                	fld	fs0,8(a2)
    1ffc:	2e000013          	li	zero,736
    2000:	1144                	addi	s1,sp,164
    2002:	0000                	unimp
    2004:	1339                	addi	t1,t1,-18
    2006:	0000                	unimp
    2008:	3000                	fld	fs0,32(s0)
    200a:	1152                	slli	sp,sp,0x34
    200c:	0000                	unimp
    200e:	270e                	fld	fa4,192(sp)
    2010:	8000                	0x8000
    2012:	000e                	c.slli	zero,0x3
    2014:	0000                	unimp
    2016:	0e0a                	slli	t3,t3,0x2
    2018:	0000                	unimp
    201a:	572e                	lw	a4,232(sp)
    201c:	0011                	c.nop	4
    201e:	5700                	lw	s0,40(a4)
    2020:	00000013          	nop
    2024:	6531                	lui	a0,0xc
    2026:	0011                	c.nop	4
    2028:	3000                	fld	fs0,32(s0)
    202a:	1a800027          	0x1a800027
    202e:	0001                	nop
    2030:	2e00                	fld	fs0,24(a2)
    2032:	1166                	slli	sp,sp,0x39
    2034:	0000                	unimp
    2036:	136a                	slli	t1,t1,0x3a
    2038:	0000                	unimp
    203a:	722e                	flw	ft4,232(sp)
    203c:	0011                	c.nop	4
    203e:	7d00                	flw	fs0,56(a0)
    2040:	2f000013          	li	zero,752
    2044:	117e                	slli	sp,sp,0x3f
    2046:	0000                	unimp
    2048:	0178                	addi	a4,sp,140
    204a:	0000                	unimp
    204c:	0e76                	slli	t3,t3,0x1d
    204e:	0000                	unimp
    2050:	832e                	mv	t1,a1
    2052:	0011                	c.nop	4
    2054:	a600                	fsd	fs0,8(a2)
    2056:	2e000013          	li	zero,736
    205a:	1190                	addi	a2,sp,224
    205c:	0000                	unimp
    205e:	13c8                	addi	a0,sp,484
    2060:	0000                	unimp
    2062:	9d2e                	add	s10,s10,a1
    2064:	0011                	c.nop	4
    2066:	ec00                	fsw	fs0,24(s0)
    2068:	2e000013          	li	zero,736
    206c:	11aa                	slli	gp,gp,0x2a
    206e:	0000                	unimp
    2070:	140a                	slli	s0,s0,0x22
    2072:	0000                	unimp
    2074:	b72e                	fsd	fa1,424(sp)
    2076:	0011                	c.nop	4
    2078:	2800                	fld	fs0,16(s0)
    207a:	0014                	0x14
    207c:	2e00                	fld	fs0,24(a2)
    207e:	11c4                	addi	s1,sp,228
    2080:	0000                	unimp
    2082:	1451                	addi	s0,s0,-12
    2084:	0000                	unimp
    2086:	d12e                	sw	a1,160(sp)
    2088:	0011                	c.nop	4
    208a:	7a00                	flw	fs0,48(a2)
    208c:	0014                	0x14
    208e:	0000                	unimp
    2090:	0011df2f          	0x11df2f
    2094:	b000                	fsd	fs0,32(s0)
    2096:	0001                	nop
    2098:	ca00                	sw	s0,16(a2)
    209a:	000e                	c.slli	zero,0x3
    209c:	2e00                	fld	fs0,24(a2)
    209e:	11e4                	addi	s1,sp,236
    20a0:	0000                	unimp
    20a2:	14a8                	addi	a0,sp,616
    20a4:	0000                	unimp
    20a6:	f12e                	fsw	fa1,160(sp)
    20a8:	0011                	c.nop	4
    20aa:	bb00                	fsd	fs0,48(a4)
    20ac:	0014                	0x14
    20ae:	2e00                	fld	fs0,24(a2)
    20b0:	11fe                	slli	gp,gp,0x3f
    20b2:	0000                	unimp
    20b4:	14e0                	addi	s0,sp,620
    20b6:	0000                	unimp
    20b8:	0b2e                	slli	s6,s6,0xb
    20ba:	0012                	c.slli	zero,0x4
    20bc:	f300                	fsw	fs0,32(a4)
    20be:	0014                	0x14
    20c0:	2e00                	fld	fs0,24(a2)
    20c2:	1218                	addi	a4,sp,288
    20c4:	0000                	unimp
    20c6:	1506                	slli	a0,a0,0x21
    20c8:	0000                	unimp
    20ca:	252e                	fld	fa0,200(sp)
    20cc:	0012                	c.slli	zero,0x4
    20ce:	1900                	addi	s0,sp,176
    20d0:	0015                	c.nop	5
    20d2:	2e00                	fld	fs0,24(a2)
    20d4:	1232                	slli	tp,tp,0x2c
    20d6:	0000                	unimp
    20d8:	154c                	addi	a1,sp,676
    20da:	0000                	unimp
    20dc:	3f32                	fld	ft10,296(sp)
    20de:	0012                	c.slli	zero,0x4
    20e0:	0100                	addi	s0,sp,128
    20e2:	0060                	addi	s0,sp,12
    20e4:	4d30                	lw	a2,88(a0)
    20e6:	0012                	c.slli	zero,0x4
    20e8:	1c00                	addi	s0,sp,560
    20ea:	0028                	addi	a0,sp,8
    20ec:	1080                	addi	s0,sp,96
    20ee:	0000                	unimp
    20f0:	e500                	fsw	fs0,8(a0)
    20f2:	000e                	c.slli	zero,0x3
    20f4:	2e00                	fld	fs0,24(a2)
    20f6:	1252                	slli	tp,tp,0x34
    20f8:	0000                	unimp
    20fa:	155f 0000 3100      	0x31000000155f
    2100:	1260                	addi	s0,sp,300
    2102:	0000                	unimp
    2104:	282c                	fld	fa1,80(s0)
    2106:	8000                	0x8000
    2108:	000e                	c.slli	zero,0x3
    210a:	0000                	unimp
    210c:	612e                	flw	ft2,200(sp)
    210e:	0012                	c.slli	zero,0x4
    2110:	7200                	flw	fs0,32(a2)
    2112:	0015                	c.nop	5
    2114:	0000                	unimp
    2116:	0000                	unimp
    2118:	0000                	unimp
    211a:	00062833          	sltz	a6,a2
    211e:	0100                	addi	s0,sp,128
    2120:	090103f7          	0x90103f7
    2124:	0300000b          	0x300000b
    2128:	1271                	addi	tp,tp,-4
    212a:	0000                	unimp
    212c:	6e34                	flw	fa3,88(a2)
    212e:	0100                	addi	s0,sp,128
    2130:	091703f7          	0x91703f7
    2134:	3400000b          	0x3400000b
    2138:	0064                	addi	s1,sp,12
    213a:	f701                	bnez	a4,2042 <_tbss_end+0x2042>
    213c:	0b092203          	lw	tp,176(s2) # 5995c <_tbss_end+0x5995c>
    2140:	0000                	unimp
    2142:	7234                	flw	fa3,96(a2)
    2144:	0070                	addi	a2,sp,12
    2146:	f701                	bnez	a4,204e <_tbss_end+0x204e>
    2148:	12712e03          	lw	t3,295(sp) # 30b1 <_tbss_end+0x30b1>
    214c:	0000                	unimp
    214e:	6e35                	lui	t3,0xd
    2150:	006e                	c.slli	zero,0x1b
    2152:	f901                	bnez	a0,2062 <_tbss_end+0x2062>
    2154:	0b921103          	lh	sp,185(tp) # 66e27 <_tbss_end+0x66e27>
    2158:	0000                	unimp
    215a:	6435                	lui	s0,0xd
    215c:	0064                	addi	s1,sp,12
    215e:	fa01                	bnez	a2,206e <_tbss_end+0x206e>
    2160:	0b921103          	lh	sp,185(tp) # b9 <_tbss_end+0xb9>
    2164:	0000                	unimp
    2166:	7235                	lui	tp,0xfffed
    2168:	0072                	c.slli	zero,0x1c
    216a:	fb01                	bnez	a4,207a <_tbss_end+0x207a>
    216c:	0b850b03          	lb	s6,184(a0) # c0b8 <_tbss_end+0xc0b8>
    2170:	0000                	unimp
    2172:	6435                	lui	s0,0xd
    2174:	0030                	addi	a2,sp,8
    2176:	fc01                	bnez	s0,208e <_tbss_end+0x208e>
    2178:	0af10a03          	lb	s4,175(sp)
    217c:	0000                	unimp
    217e:	6435                	lui	s0,0xd
    2180:	0031                	c.nop	12
    2182:	fc01                	bnez	s0,209a <_tbss_end+0x209a>
    2184:	0af10e03          	lb	t3,175(sp)
    2188:	0000                	unimp
    218a:	6e35                	lui	t3,0xd
    218c:	0030                	addi	a2,sp,8
    218e:	fc01                	bnez	s0,20a6 <_tbss_end+0x20a6>
    2190:	0af11203          	lh	tp,175(sp)
    2194:	0000                	unimp
    2196:	6e35                	lui	t3,0xd
    2198:	0031                	c.nop	12
    219a:	fc01                	bnez	s0,20b2 <_tbss_end+0x20b2>
    219c:	0af11603          	lh	a2,175(sp)
    21a0:	0000                	unimp
    21a2:	6e35                	lui	t3,0xd
    21a4:	0032                	c.slli	zero,0xc
    21a6:	fc01                	bnez	s0,20be <_tbss_end+0x20be>
    21a8:	0af11a03          	lh	s4,175(sp)
    21ac:	0000                	unimp
    21ae:	7135                	addi	sp,sp,-160
    21b0:	0030                	addi	a2,sp,8
    21b2:	fd01                	bnez	a0,20ca <_tbss_end+0x20ca>
    21b4:	0af10a03          	lb	s4,175(sp)
    21b8:	0000                	unimp
    21ba:	7135                	addi	sp,sp,-160
    21bc:	0031                	c.nop	12
    21be:	fd01                	bnez	a0,20d6 <_tbss_end+0x20d6>
    21c0:	0af10e03          	lb	t3,175(sp)
    21c4:	0000                	unimp
    21c6:	6235                	lui	tp,0xd
    21c8:	0100                	addi	s0,sp,128
    21ca:	03fe                	slli	t2,t2,0x1f
    21cc:	f10a                	fsw	ft2,160(sp)
    21ce:	000a                	c.slli	zero,0x2
    21d0:	3500                	fld	fs0,40(a0)
    21d2:	6d62                	flw	fs10,24(sp)
    21d4:	0100                	addi	s0,sp,128
    21d6:	03fe                	slli	t2,t2,0x1f
    21d8:	f10d                	bnez	a0,20fa <_tbss_end+0x20fa>
    21da:	000a                	c.slli	zero,0x2
    21dc:	3500                	fld	fs0,40(a0)
    21de:	01007777          	0x1007777
    21e2:	921104c7          	fmsub.d	fs1,ft2,ft1,fs2,rne
    21e6:	3600000b          	0x3600000b
    21ea:	00000fef          	jal	t6,21ea <_tbss_end+0x21ea>
    21ee:	0006a937          	lui	s2,0x6a
    21f2:	0100                	addi	s0,sp,128
    21f4:	042e                	slli	s0,s0,0xb
    21f6:	f104                	fsw	fs1,32(a0)
    21f8:	000a                	c.slli	zero,0x2
    21fa:	3500                	fld	fs0,40(a0)
    21fc:	5f5f 0061 2e01      	0x2e0100615f5f
    2202:	0404                	addi	s1,sp,512
    2204:	0af1                	addi	s5,s5,28
    2206:	0000                	unimp
    2208:	3600                	fld	fs0,40(a2)
    220a:	1050                	addi	a2,sp,36
    220c:	0000                	unimp
    220e:	00013837          	lui	a6,0x13
    2212:	0100                	addi	s0,sp,128
    2214:	043a                	slli	s0,s0,0xe
    2216:	f104                	fsw	fs1,32(a0)
    2218:	000a                	c.slli	zero,0x2
    221a:	3700                	fld	fs0,40(a4)
    221c:	00000133          	add	sp,zero,zero
    2220:	3a01                	jal	1b30 <_tbss_end+0x1b30>
    2222:	0404                	addi	s1,sp,512
    2224:	0af1                	addi	s5,s5,28
    2226:	0000                	unimp
    2228:	00065c37          	lui	s8,0x65
    222c:	0100                	addi	s0,sp,128
    222e:	043a                	slli	s0,s0,0xe
    2230:	f104                	fsw	fs1,32(a0)
    2232:	000a                	c.slli	zero,0x2
    2234:	3700                	fld	fs0,40(a4)
    2236:	00000657          	0x657
    223a:	3a01                	jal	1b4a <_tbss_end+0x1b4a>
    223c:	0404                	addi	s1,sp,512
    223e:	0af1                	addi	s5,s5,28
    2240:	0000                	unimp
    2242:	00072737          	lui	a4,0x72
    2246:	0100                	addi	s0,sp,128
    2248:	043a                	slli	s0,s0,0xe
    224a:	f104                	fsw	fs1,32(a0)
    224c:	000a                	c.slli	zero,0x2
    224e:	3700                	fld	fs0,40(a4)
    2250:	0722                	slli	a4,a4,0x8
    2252:	0000                	unimp
    2254:	3a01                	jal	1b64 <_tbss_end+0x1b64>
    2256:	0404                	addi	s1,sp,512
    2258:	0af1                	addi	s5,s5,28
    225a:	0000                	unimp
    225c:	5f35                	li	t5,-19
    225e:	6d5f 0100 043a      	0x43a01006d5f
    2264:	f104                	fsw	fs1,32(a0)
    2266:	000a                	c.slli	zero,0x2
    2268:	0000                	unimp
    226a:	7036                	flw	ft0,108(sp)
    226c:	0010                	0x10
    226e:	3700                	fld	fs0,40(a4)
    2270:	06a9                	addi	a3,a3,10
    2272:	0000                	unimp
    2274:	4601                	li	a2,0
    2276:	0404                	addi	s1,sp,512
    2278:	0af1                	addi	s5,s5,28
    227a:	0000                	unimp
    227c:	5f35                	li	t5,-19
    227e:	615f 0100 0446      	0x4460100615f
    2284:	f104                	fsw	fs1,32(a0)
    2286:	000a                	c.slli	zero,0x2
    2288:	0000                	unimp
    228a:	d136                	sw	a3,160(sp)
    228c:	0010                	0x10
    228e:	3700                	fld	fs0,40(a4)
    2290:	0138                	addi	a4,sp,136
    2292:	0000                	unimp
    2294:	5f01                	li	t5,-32
    2296:	0804                	addi	s1,sp,16
    2298:	0af1                	addi	s5,s5,28
    229a:	0000                	unimp
    229c:	00013337          	lui	t1,0x13
    22a0:	0100                	addi	s0,sp,128
    22a2:	045f f108 000a      	0xaf108045f
    22a8:	3700                	fld	fs0,40(a4)
    22aa:	065c                	addi	a5,sp,772
    22ac:	0000                	unimp
    22ae:	5f01                	li	t5,-32
    22b0:	0804                	addi	s1,sp,16
    22b2:	0af1                	addi	s5,s5,28
    22b4:	0000                	unimp
    22b6:	00065737          	lui	a4,0x65
    22ba:	0100                	addi	s0,sp,128
    22bc:	045f f108 000a      	0xaf108045f
    22c2:	3700                	fld	fs0,40(a4)
    22c4:	00000727          	0x727
    22c8:	5f01                	li	t5,-32
    22ca:	0804                	addi	s1,sp,16
    22cc:	0af1                	addi	s5,s5,28
    22ce:	0000                	unimp
    22d0:	00072237          	lui	tp,0x72
    22d4:	0100                	addi	s0,sp,128
    22d6:	045f f108 000a      	0xaf108045f
    22dc:	3500                	fld	fs0,40(a0)
    22de:	5f5f 006d 5f01      	0x5f01006d5f5f
    22e4:	0804                	addi	s1,sp,16
    22e6:	0af1                	addi	s5,s5,28
    22e8:	0000                	unimp
    22ea:	3600                	fld	fs0,40(a2)
    22ec:	1132                	slli	sp,sp,0x2c
    22ee:	0000                	unimp
    22f0:	00013837          	lui	a6,0x13
    22f4:	0100                	addi	s0,sp,128
    22f6:	0464                	addi	s1,sp,524
    22f8:	f104                	fsw	fs1,32(a0)
    22fa:	000a                	c.slli	zero,0x2
    22fc:	3700                	fld	fs0,40(a4)
    22fe:	00000133          	add	sp,zero,zero
    2302:	6401                	0x6401
    2304:	0404                	addi	s1,sp,512
    2306:	0af1                	addi	s5,s5,28
    2308:	0000                	unimp
    230a:	00065c37          	lui	s8,0x65
    230e:	0100                	addi	s0,sp,128
    2310:	0464                	addi	s1,sp,524
    2312:	f104                	fsw	fs1,32(a0)
    2314:	000a                	c.slli	zero,0x2
    2316:	3700                	fld	fs0,40(a4)
    2318:	00000657          	0x657
    231c:	6401                	0x6401
    231e:	0404                	addi	s1,sp,512
    2320:	0af1                	addi	s5,s5,28
    2322:	0000                	unimp
    2324:	00072737          	lui	a4,0x72
    2328:	0100                	addi	s0,sp,128
    232a:	0464                	addi	s1,sp,524
    232c:	f104                	fsw	fs1,32(a0)
    232e:	000a                	c.slli	zero,0x2
    2330:	3700                	fld	fs0,40(a4)
    2332:	0722                	slli	a4,a4,0x8
    2334:	0000                	unimp
    2336:	6401                	0x6401
    2338:	0404                	addi	s1,sp,512
    233a:	0af1                	addi	s5,s5,28
    233c:	0000                	unimp
    233e:	5f35                	li	t5,-19
    2340:	6d5f 0100 0464      	0x46401006d5f
    2346:	f104                	fsw	fs1,32(a0)
    2348:	000a                	c.slli	zero,0x2
    234a:	0000                	unimp
    234c:	5236                	lw	tp,108(sp)
    234e:	0011                	c.nop	4
    2350:	3700                	fld	fs0,40(a4)
    2352:	06a9                	addi	a3,a3,10
    2354:	0000                	unimp
    2356:	8701                	c.srai64	a4
    2358:	0404                	addi	s1,sp,512
    235a:	0af1                	addi	s5,s5,28
    235c:	0000                	unimp
    235e:	5f35                	li	t5,-19
    2360:	615f 0100 0487      	0x4870100615f
    2366:	f104                	fsw	fs1,32(a0)
    2368:	000a                	c.slli	zero,0x2
    236a:	0000                	unimp
    236c:	6536                	flw	fa0,76(sp)
    236e:	0011                	c.nop	4
    2370:	3500                	fld	fs0,40(a0)
    2372:	5f5f 0078 9501      	0x950100785f5f
    2378:	0504                	addi	s1,sp,640
    237a:	0af1                	addi	s5,s5,28
    237c:	0000                	unimp
    237e:	3800                	fld	fs0,48(s0)
    2380:	6d35                	lui	s10,0xd
    2382:	0031                	c.nop	12
    2384:	a501                	j	2984 <_tbss_end+0x2984>
    2386:	0f04                	addi	s1,sp,912
    2388:	0af1                	addi	s5,s5,28
    238a:	0000                	unimp
    238c:	6d35                	lui	s10,0xd
    238e:	0030                	addi	a2,sp,8
    2390:	a501                	j	2990 <_tbss_end+0x2990>
    2392:	1304                	addi	s1,sp,416
    2394:	0af1                	addi	s5,s5,28
    2396:	0000                	unimp
    2398:	df36                	sw	a3,188(sp)
    239a:	0011                	c.nop	4
    239c:	3700                	fld	fs0,40(a4)
    239e:	0138                	addi	a4,sp,136
    23a0:	0000                	unimp
    23a2:	b001                	j	1ba2 <_tbss_end+0x1ba2>
    23a4:	0804                	addi	s1,sp,16
    23a6:	0af1                	addi	s5,s5,28
    23a8:	0000                	unimp
    23aa:	00013337          	lui	t1,0x13
    23ae:	0100                	addi	s0,sp,128
    23b0:	04b0                	addi	a2,sp,584
    23b2:	f108                	fsw	fa0,32(a0)
    23b4:	000a                	c.slli	zero,0x2
    23b6:	3700                	fld	fs0,40(a4)
    23b8:	065c                	addi	a5,sp,772
    23ba:	0000                	unimp
    23bc:	b001                	j	1bbc <_tbss_end+0x1bbc>
    23be:	0804                	addi	s1,sp,16
    23c0:	0af1                	addi	s5,s5,28
    23c2:	0000                	unimp
    23c4:	00065737          	lui	a4,0x65
    23c8:	0100                	addi	s0,sp,128
    23ca:	04b0                	addi	a2,sp,584
    23cc:	f108                	fsw	fa0,32(a0)
    23ce:	000a                	c.slli	zero,0x2
    23d0:	3700                	fld	fs0,40(a4)
    23d2:	00000727          	0x727
    23d6:	b001                	j	1bd6 <_tbss_end+0x1bd6>
    23d8:	0804                	addi	s1,sp,16
    23da:	0af1                	addi	s5,s5,28
    23dc:	0000                	unimp
    23de:	00072237          	lui	tp,0x72
    23e2:	0100                	addi	s0,sp,128
    23e4:	04b0                	addi	a2,sp,584
    23e6:	f108                	fsw	fa0,32(a0)
    23e8:	000a                	c.slli	zero,0x2
    23ea:	3500                	fld	fs0,40(a0)
    23ec:	5f5f 006d b001      	0xb001006d5f5f
    23f2:	0804                	addi	s1,sp,16
    23f4:	0af1                	addi	s5,s5,28
    23f6:	0000                	unimp
    23f8:	3600                	fld	fs0,40(a2)
    23fa:	124d                	addi	tp,tp,-13
    23fc:	0000                	unimp
    23fe:	0005ef37          	lui	t5,0x5e
    2402:	0100                	addi	s0,sp,128
    2404:	04b1                	addi	s1,s1,12
    2406:	f108                	fsw	fa0,32(a0)
    2408:	000a                	c.slli	zero,0x2
    240a:	3700                	fld	fs0,40(a4)
    240c:	05f4                	addi	a3,sp,716
    240e:	0000                	unimp
    2410:	b101                	j	2010 <_tbss_end+0x2010>
    2412:	0804                	addi	s1,sp,16
    2414:	0af1                	addi	s5,s5,28
    2416:	0000                	unimp
    2418:	0005f937          	lui	s2,0x5f
    241c:	0100                	addi	s0,sp,128
    241e:	04b1                	addi	s1,s1,12
    2420:	f108                	fsw	fa0,32(a0)
    2422:	000a                	c.slli	zero,0x2
    2424:	3700                	fld	fs0,40(a4)
    2426:	05fe                	slli	a1,a1,0x1f
    2428:	0000                	unimp
    242a:	b101                	j	202a <_tbss_end+0x202a>
    242c:	0804                	addi	s1,sp,16
    242e:	0af1                	addi	s5,s5,28
    2430:	0000                	unimp
    2432:	00041e37          	lui	t3,0x41
    2436:	0100                	addi	s0,sp,128
    2438:	04b1                	addi	s1,s1,12
    243a:	f108                	fsw	fa0,32(a0)
    243c:	000a                	c.slli	zero,0x2
    243e:	3700                	fld	fs0,40(a4)
    2440:	04d4                	addi	a3,sp,580
    2442:	0000                	unimp
    2444:	b101                	j	2044 <_tbss_end+0x2044>
    2446:	0804                	addi	s1,sp,16
    2448:	0af1                	addi	s5,s5,28
    244a:	0000                	unimp
    244c:	00040837          	lui	a6,0x40
    2450:	0100                	addi	s0,sp,128
    2452:	04b1                	addi	s1,s1,12
    2454:	f108                	fsw	fa0,32(a0)
    2456:	000a                	c.slli	zero,0x2
    2458:	3700                	fld	fs0,40(a4)
    245a:	000004cf          	fnmadd.s	fs1,ft0,ft0,ft0,rne
    245e:	b101                	j	205e <_tbss_end+0x205e>
    2460:	0804                	addi	s1,sp,16
    2462:	0af1                	addi	s5,s5,28
    2464:	0000                	unimp
    2466:	3600                	fld	fs0,40(a2)
    2468:	1260                	addi	s0,sp,300
    246a:	0000                	unimp
    246c:	5f35                	li	t5,-19
    246e:	785f 0100 04b6      	0x4b60100785f
    2474:	f105                	bnez	a0,2394 <_tbss_end+0x2394>
    2476:	000a                	c.slli	zero,0x2
    2478:	0000                	unimp
    247a:	3538                	fld	fa4,104(a0)
    247c:	5f5f 0078 be01      	0xbe0100785f5f
    2482:	0504                	addi	s1,sp,640
    2484:	0af1                	addi	s5,s5,28
    2486:	0000                	unimp
    2488:	0000                	unimp
    248a:	0f00                	addi	s0,sp,912
    248c:	0904                	addi	s1,sp,144
    248e:	0000000b          	0xb
    2492:	00000b3b          	0xb3b
    2496:	0004                	0x4
    2498:	05b4                	addi	a3,sp,712
    249a:	0000                	unimp
    249c:	0104                	addi	s1,sp,128
    249e:	07c0                	addi	s0,sp,964
    24a0:	0000                	unimp
    24a2:	100c                	addi	a1,sp,32
    24a4:	0005                	c.nop	1
    24a6:	4100                	lw	s0,0(a0)
    24a8:	98000003          	lb	zero,-1664(zero) # fffff980 <__global_pointer$+0x7fffc5dc>
    24ac:	0012                	c.slli	zero,0x4
    24ae:	0200                	addi	s0,sp,256
    24b0:	0504                	addi	s1,sp,640
    24b2:	6e69                	lui	t3,0x1a
    24b4:	0074                	addi	a3,sp,12
    24b6:	0e070403          	lb	s0,224(a4) # 650e0 <_tbss_end+0x650e0>
    24ba:	03000003          	lb	zero,48(zero) # 30 <_tbss_end+0x30>
    24be:	0508                	addi	a0,sp,640
    24c0:	0211                	addi	tp,tp,4
    24c2:	0000                	unimp
    24c4:	55041003          	lh	zero,1360(s0) # d550 <_tbss_end+0xd550>
    24c8:	0001                	nop
    24ca:	0300                	addi	s0,sp,384
    24cc:	0601                	addi	a2,a2,0
    24ce:	0680                	addi	s0,sp,832
    24d0:	0000                	unimp
    24d2:	7e080103          	lb	sp,2016(a6) # 407e0 <_tbss_end+0x407e0>
    24d6:	0006                	c.slli	zero,0x1
    24d8:	0300                	addi	s0,sp,384
    24da:	0502                	c.slli64	a0
    24dc:	0000                	unimp
    24de:	0000                	unimp
    24e0:	2e070203          	lb	tp,736(a4)
    24e4:	03000003          	lb	zero,48(zero) # 30 <_tbss_end+0x30>
    24e8:	0504                	addi	s1,sp,640
    24ea:	0216                	slli	tp,tp,0x5
    24ec:	0000                	unimp
    24ee:	09070403          	lb	s0,144(a4)
    24f2:	03000003          	lb	zero,48(zero) # 30 <_tbss_end+0x30>
    24f6:	0708                	addi	a0,sp,896
    24f8:	0304                	addi	s1,sp,384
    24fa:	0000                	unimp
    24fc:	f804                	fsw	fs1,48(s0)
    24fe:	0004                	0x4
    2500:	0100                	addi	s0,sp,128
    2502:	0d0c                	addi	a1,sp,656
    2504:	001d                	c.nop	7
    2506:	0000                	unimp
    2508:	c804                	sw	s1,16(s0)
    250a:	0004                	0x4
    250c:	0200                	addi	s0,sp,256
    250e:	0e2c                	addi	a1,sp,792
    2510:	0055                	c.nop	21
    2512:	0000                	unimp
    2514:	1104                	addi	s1,sp,160
    2516:	0006                	c.slli	zero,0x1
    2518:	0200                	addi	s0,sp,256
    251a:	0e72                	slli	t3,t3,0x1c
    251c:	0055                	c.nop	21
    251e:	0000                	unimp
    2520:	e804                	fsw	fs1,16(s0)
    2522:	0006                	c.slli	zero,0x1
    2524:	0200                	addi	s0,sp,256
    2526:	1791                	addi	a5,a5,-28
    2528:	001d                	c.nop	7
    252a:	0000                	unimp
    252c:	fb05                	bnez	a4,245c <_tbss_end+0x245c>
    252e:	03000003          	lb	zero,48(zero) # 30 <_tbss_end+0x30>
    2532:	0165                	addi	sp,sp,25
    2534:	00002417          	auipc	s0,0x2
    2538:	0600                	addi	s0,sp,768
    253a:	0204                	addi	s1,sp,256
    253c:	03a6                	slli	t2,t2,0x9
    253e:	00c9                	addi	ra,ra,18
    2540:	0000                	unimp
    2542:	0003e207          	0x3e207
    2546:	0200                	addi	s0,sp,256
    2548:	0ca8                	addi	a0,sp,600
    254a:	009a                	slli	ra,ra,0x6
    254c:	0000                	unimp
    254e:	0002d607          	0x2d607
    2552:	0200                	addi	s0,sp,256
    2554:	13a9                	addi	t2,t2,-22
    2556:	00c9                	addi	ra,ra,18
    2558:	0000                	unimp
    255a:	0800                	addi	s0,sp,16
    255c:	0040                	addi	s0,sp,4
    255e:	0000                	unimp
    2560:	00d9                	addi	ra,ra,22
    2562:	0000                	unimp
    2564:	2409                	jal	2766 <_tbss_end+0x2766>
    2566:	0000                	unimp
    2568:	0300                	addi	s0,sp,384
    256a:	0a00                	addi	s0,sp,272
    256c:	0208                	addi	a0,sp,256
    256e:	00fd09a3          	sb	a5,19(s10) # d013 <_tbss_end+0xd013>
    2572:	0000                	unimp
    2574:	00044c0b          	0x44c0b
    2578:	0200                	addi	s0,sp,256
    257a:	07a5                	addi	a5,a5,9
    257c:	001d                	c.nop	7
    257e:	0000                	unimp
    2580:	0b00                	addi	s0,sp,400
    2582:	00000603          	lb	a2,0(zero) # 0 <_tbss_end>
    2586:	aa02                	fsd	ft0,272(sp)
    2588:	a705                	j	2ca8 <_tbss_end+0x2ca8>
    258a:	0000                	unimp
    258c:	0400                	addi	s0,sp,512
    258e:	0400                	addi	s0,sp,512
    2590:	04ed                	addi	s1,s1,27
    2592:	0000                	unimp
    2594:	ab02                	fsd	ft0,400(sp)
    2596:	0000d903          	lhu	s2,0(ra)
    259a:	0400                	addi	s0,sp,512
    259c:	056e                	slli	a0,a0,0x1b
    259e:	0000                	unimp
    25a0:	af02                	fsd	ft0,408(sp)
    25a2:	00006a1b          	0x6a1b
    25a6:	0c00                	addi	s0,sp,528
    25a8:	0404                	addi	s1,sp,512
    25aa:	0691                	addi	a3,a3,4
    25ac:	0000                	unimp
    25ae:	1604                	addi	s1,sp,800
    25b0:	5c19                	li	s8,-26
    25b2:	0000                	unimp
    25b4:	0d00                	addi	s0,sp,656
    25b6:	0485                	addi	s1,s1,1
    25b8:	0000                	unimp
    25ba:	0418                	addi	a4,sp,512
    25bc:	017d082f          	0x17d082f
    25c0:	0000                	unimp
    25c2:	0007a80b          	0x7a80b
    25c6:	0400                	addi	s0,sp,512
    25c8:	1331                	addi	t1,t1,-20
    25ca:	017d                	addi	sp,sp,31
    25cc:	0000                	unimp
    25ce:	0e00                	addi	s0,sp,784
    25d0:	6b5f 0400 0732      	0x73204006b5f
    25d6:	001d                	c.nop	7
    25d8:	0000                	unimp
    25da:	0b04                	addi	s1,sp,400
    25dc:	05e0                	addi	s0,sp,716
    25de:	0000                	unimp
    25e0:	3204                	fld	fs1,32(a2)
    25e2:	00001d0b          	0x1d0b
    25e6:	0800                	addi	s0,sp,16
    25e8:	00026d0b          	0x26d0b
    25ec:	0400                	addi	s0,sp,512
    25ee:	1432                	slli	s0,s0,0x2c
    25f0:	001d                	c.nop	7
    25f2:	0000                	unimp
    25f4:	0b0c                	addi	a1,sp,400
    25f6:	000001f3          	0x1f3
    25fa:	3204                	fld	fs1,32(a2)
    25fc:	00001d1b          	0x1d1b
    2600:	1000                	addi	s0,sp,32
    2602:	5f0e                	lw	t5,224(sp)
    2604:	0078                	addi	a4,sp,12
    2606:	3304                	fld	fs1,32(a4)
    2608:	0001830b          	0x1830b
    260c:	1400                	addi	s0,sp,544
    260e:	0f00                	addi	s0,sp,912
    2610:	2304                	fld	fs1,0(a4)
    2612:	0001                	nop
    2614:	0800                	addi	s0,sp,16
    2616:	00000117          	auipc	sp,0x0
    261a:	00000193          	li	gp,0
    261e:	2409                	jal	2820 <_tbss_end+0x2820>
    2620:	0000                	unimp
    2622:	0000                	unimp
    2624:	0d00                	addi	s0,sp,656
    2626:	02b9                	addi	t0,t0,14
    2628:	0000                	unimp
    262a:	0424                	addi	s1,sp,520
    262c:	02160837          	lui	a6,0x2160
    2630:	0000                	unimp
    2632:	00018d0b          	0x18d0b
    2636:	0400                	addi	s0,sp,512
    2638:	0939                	addi	s2,s2,14
    263a:	001d                	c.nop	7
    263c:	0000                	unimp
    263e:	0b00                	addi	s0,sp,400
    2640:	0746                	slli	a4,a4,0x11
    2642:	0000                	unimp
    2644:	3a04                	fld	fs1,48(a2)
    2646:	1d09                	addi	s10,s10,-30
    2648:	0000                	unimp
    264a:	0400                	addi	s0,sp,512
    264c:	0001a90b          	0x1a90b
    2650:	0400                	addi	s0,sp,512
    2652:	001d093b          	0x1d093b
    2656:	0000                	unimp
    2658:	0b08                	addi	a0,sp,400
    265a:	0799                	addi	a5,a5,6
    265c:	0000                	unimp
    265e:	3c04                	fld	fs1,56(s0)
    2660:	1d09                	addi	s10,s10,-30
    2662:	0000                	unimp
    2664:	0c00                	addi	s0,sp,528
    2666:	0004a20b          	0x4a20b
    266a:	0400                	addi	s0,sp,512
    266c:	093d                	addi	s2,s2,15
    266e:	001d                	c.nop	7
    2670:	0000                	unimp
    2672:	0b10                	addi	a2,sp,400
    2674:	0442                	slli	s0,s0,0x10
    2676:	0000                	unimp
    2678:	3e04                	fld	fs1,56(a2)
    267a:	1d09                	addi	s10,s10,-30
    267c:	0000                	unimp
    267e:	1400                	addi	s0,sp,544
    2680:	0006d10b          	0x6d10b
    2684:	0400                	addi	s0,sp,512
    2686:	001d093f 0b180000 	0xb180000001d093f
    268e:	00000577          	0x577
    2692:	4004                	lw	s1,0(s0)
    2694:	1d09                	addi	s10,s10,-30
    2696:	0000                	unimp
    2698:	1c00                	addi	s0,sp,560
    269a:	00072c0b          	0x72c0b
    269e:	0400                	addi	s0,sp,512
    26a0:	0941                	addi	s2,s2,16
    26a2:	001d                	c.nop	7
    26a4:	0000                	unimp
    26a6:	0020                	addi	s0,sp,8
    26a8:	c610                	sw	a2,8(a2)
    26aa:	0001                	nop
    26ac:	0800                	addi	s0,sp,16
    26ae:	0401                	addi	s0,s0,0
    26b0:	084a                	slli	a6,a6,0x12
    26b2:	0000025b          	0x25b
    26b6:	0002600b          	0x2600b
    26ba:	0400                	addi	s0,sp,512
    26bc:	025b0a4b          	fnmsub.d	fs4,fs6,ft5,ft0,rne
    26c0:	0000                	unimp
    26c2:	0b00                	addi	s0,sp,400
    26c4:	054a                	slli	a0,a0,0x12
    26c6:	0000                	unimp
    26c8:	4c04                	lw	s1,24(s0)
    26ca:	5b09                	li	s6,-30
    26cc:	0002                	c.slli64	zero
    26ce:	8000                	0x8000
    26d0:	7511                	lui	a0,0xfffe4
    26d2:	0006                	c.slli	zero,0x1
    26d4:	0400                	addi	s0,sp,512
    26d6:	0a4e                	slli	s4,s4,0x13
    26d8:	00000117          	auipc	sp,0x0
    26dc:	0100                	addi	s0,sp,128
    26de:	eb11                	bnez	a4,26f2 <_tbss_end+0x26f2>
    26e0:	0001                	nop
    26e2:	0400                	addi	s0,sp,512
    26e4:	0a51                	addi	s4,s4,20
    26e6:	00000117          	auipc	sp,0x0
    26ea:	0104                	addi	s1,sp,128
    26ec:	0800                	addi	s0,sp,16
    26ee:	0115                	addi	sp,sp,5
    26f0:	0000                	unimp
    26f2:	0000026b          	0x26b
    26f6:	2409                	jal	28f8 <_tbss_end+0x28f8>
    26f8:	0000                	unimp
    26fa:	1f00                	addi	s0,sp,944
    26fc:	1000                	addi	s0,sp,32
    26fe:	000004ab          	0x4ab
    2702:	0190                	addi	a2,sp,192
    2704:	5d04                	lw	s1,56(a0)
    2706:	ae08                	fsd	fa0,24(a2)
    2708:	0002                	c.slli64	zero
    270a:	0b00                	addi	s0,sp,400
    270c:	07a8                	addi	a0,sp,968
    270e:	0000                	unimp
    2710:	5e04                	lw	s1,56(a2)
    2712:	ae12                	fsd	ft4,280(sp)
    2714:	0002                	c.slli64	zero
    2716:	0000                	unimp
    2718:	0005c70b          	0x5c70b
    271c:	0400                	addi	s0,sp,512
    271e:	065f 001d 0000      	0x1d065f
    2724:	0b04                	addi	s1,sp,400
    2726:	0268                	addi	a0,sp,268
    2728:	0000                	unimp
    272a:	6104                	flw	fs1,0(a0)
    272c:	b409                	j	212e <_tbss_end+0x212e>
    272e:	0002                	c.slli64	zero
    2730:	0800                	addi	s0,sp,16
    2732:	0001c60b          	0x1c60b
    2736:	0400                	addi	s0,sp,512
    2738:	1e62                	slli	t3,t3,0x38
    273a:	0216                	slli	tp,tp,0x5
    273c:	0000                	unimp
    273e:	0088                	addi	a0,sp,64
    2740:	026b040f          	0x26b040f
    2744:	0000                	unimp
    2746:	c408                	sw	a0,8(s0)
    2748:	0002                	c.slli64	zero
    274a:	c400                	sw	s0,8(s0)
    274c:	0002                	c.slli64	zero
    274e:	0900                	addi	s0,sp,144
    2750:	0024                	addi	s1,sp,8
    2752:	0000                	unimp
    2754:	001f 040f 02ca      	0x2ca040f001f
    275a:	0000                	unimp
    275c:	0d12                	slli	s10,s10,0x4
    275e:	0792                	slli	a5,a5,0x4
    2760:	0000                	unimp
    2762:	0408                	addi	a0,sp,512
    2764:	0875                	addi	a6,a6,29
    2766:	000002f3          	0x2f3
    276a:	0001a30b          	0x1a30b
    276e:	0400                	addi	s0,sp,512
    2770:	1176                	slli	sp,sp,0x3d
    2772:	000002f3          	0x2f3
    2776:	0b00                	addi	s0,sp,400
    2778:	0622                	slli	a2,a2,0x8
    277a:	0000                	unimp
    277c:	7704                	flw	fs1,40(a4)
    277e:	1d06                	slli	s10,s10,0x21
    2780:	0000                	unimp
    2782:	0400                	addi	s0,sp,512
    2784:	0f00                	addi	s0,sp,912
    2786:	4004                	lw	s1,0(s0)
    2788:	0000                	unimp
    278a:	0d00                	addi	s0,sp,656
    278c:	000005a3          	sb	zero,11(zero) # b <_tbss_end+0xb>
    2790:	0468                	addi	a0,sp,524
    2792:	08b5                	addi	a7,a7,13
    2794:	043c                	addi	a5,sp,520
    2796:	0000                	unimp
    2798:	5f0e                	lw	t5,224(sp)
    279a:	0070                	addi	a2,sp,12
    279c:	b604                	fsd	fs1,40(a2)
    279e:	f312                	fsw	ft4,164(sp)
    27a0:	0002                	c.slli64	zero
    27a2:	0000                	unimp
    27a4:	5f0e                	lw	t5,224(sp)
    27a6:	0072                	c.slli	zero,0x1c
    27a8:	b704                	fsd	fs1,40(a4)
    27aa:	00001d07          	0x1d07
    27ae:	0400                	addi	s0,sp,512
    27b0:	5f0e                	lw	t5,224(sp)
    27b2:	b8040077          	0xb8040077
    27b6:	00001d07          	0x1d07
    27ba:	0800                	addi	s0,sp,16
    27bc:	0001e40b          	0x1e40b
    27c0:	0400                	addi	s0,sp,512
    27c2:	09b9                	addi	s3,s3,14
    27c4:	00000047          	fmsub.s	ft0,ft0,ft0,ft0,rne
    27c8:	0b0c                	addi	a1,sp,400
    27ca:	02e5                	addi	t0,t0,25
    27cc:	0000                	unimp
    27ce:	ba04                	fsd	fs1,48(a2)
    27d0:	4709                	li	a4,2
    27d2:	0000                	unimp
    27d4:	0e00                	addi	s0,sp,784
    27d6:	5f0e                	lw	t5,224(sp)
    27d8:	6662                	flw	fa2,24(sp)
    27da:	0400                	addi	s0,sp,512
    27dc:	02cb11bb          	0x2cb11bb
    27e0:	0000                	unimp
    27e2:	0b10                	addi	a2,sp,400
    27e4:	013d                	addi	sp,sp,15
    27e6:	0000                	unimp
    27e8:	bc04                	fsd	fs1,56(s0)
    27ea:	00001d07          	0x1d07
    27ee:	1800                	addi	s0,sp,48
    27f0:	0001d40b          	0x1d40b
    27f4:	0400                	addi	s0,sp,512
    27f6:	01150ac3          	fmadd.s	fs5,fa0,fa7,ft0,rne
    27fa:	0000                	unimp
    27fc:	0b1c                	addi	a5,sp,400
    27fe:	050a                	slli	a0,a0,0x2
    2800:	0000                	unimp
    2802:	c504                	sw	s1,8(a0)
    2804:	c01d                	beqz	s0,282a <_tbss_end+0x282a>
    2806:	0005                	c.nop	1
    2808:	2000                	fld	fs0,0(s0)
    280a:	00043b0b          	0x43b0b
    280e:	0400                	addi	s0,sp,512
    2810:	05ef1dc7          	0x5ef1dc7
    2814:	0000                	unimp
    2816:	0b24                	addi	s1,sp,408
    2818:	0000060b          	0x60b
    281c:	ca04                	sw	s1,16(a2)
    281e:	130d                	addi	t1,t1,-29
    2820:	0006                	c.slli	zero,0x1
    2822:	2800                	fld	fs0,16(s0)
    2824:	0001960b          	0x1960b
    2828:	0400                	addi	s0,sp,512
    282a:	062d09cb          	fnmsub.q	fs3,fs10,ft2,ft0,rne
    282e:	0000                	unimp
    2830:	0e2c                	addi	a1,sp,792
    2832:	755f 0062 ce04      	0xce040062755f
    2838:	cb11                	beqz	a4,284c <_tbss_end+0x284c>
    283a:	0002                	c.slli64	zero
    283c:	3000                	fld	fs0,32(s0)
    283e:	5f0e                	lw	t5,224(sp)
    2840:	7075                	c.lui	zero,0xffffd
    2842:	0400                	addi	s0,sp,512
    2844:	02f312cf          	fnmadd.d	ft5,ft6,fa5,ft0,rtz
    2848:	0000                	unimp
    284a:	0e38                	addi	a4,sp,792
    284c:	755f 0072 d004      	0xd0040072755f
    2852:	00001d07          	0x1d07
    2856:	3c00                	fld	fs0,56(s0)
    2858:	00019d0b          	0x19d0b
    285c:	0400                	addi	s0,sp,512
    285e:	063311d3          	fadd.q	ft3,ft6,ft3,rtz
    2862:	0000                	unimp
    2864:	0b40                	addi	s0,sp,404
    2866:	0714                	addi	a3,sp,896
    2868:	0000                	unimp
    286a:	d404                	sw	s1,40(s0)
    286c:	4311                	li	t1,4
    286e:	0006                	c.slli	zero,0x1
    2870:	4300                	lw	s0,0(a4)
    2872:	5f0e                	lw	t5,224(sp)
    2874:	626c                	flw	fa1,68(a2)
    2876:	0400                	addi	s0,sp,512
    2878:	02cb11d7          	0x2cb11d7
    287c:	0000                	unimp
    287e:	0b44                	addi	s1,sp,404
    2880:	0619                	addi	a2,a2,6
    2882:	0000                	unimp
    2884:	da04                	sw	s1,48(a2)
    2886:	00001d07          	0x1d07
    288a:	4c00                	lw	s0,24(s0)
    288c:	00047d0b          	0x47d0b
    2890:	0400                	addi	s0,sp,512
    2892:	00760adb          	0x760adb
    2896:	0000                	unimp
    2898:	0b50                	addi	a2,sp,404
    289a:	010d                	addi	sp,sp,3
    289c:	0000                	unimp
    289e:	de04                	sw	s1,56(a2)
    28a0:	5a12                	lw	s4,36(sp)
    28a2:	0004                	0x4
    28a4:	5400                	lw	s0,40(s0)
    28a6:	0004020b          	0x4020b
    28aa:	0400                	addi	s0,sp,512
    28ac:	0ce2                	slli	s9,s9,0x18
    28ae:	0109                	addi	sp,sp,2
    28b0:	0000                	unimp
    28b2:	0b58                	addi	a4,sp,404
    28b4:	02cd                	addi	t0,t0,19
    28b6:	0000                	unimp
    28b8:	e404                	fsw	fs1,8(s0)
    28ba:	fd0e                	fsw	ft3,184(sp)
    28bc:	0000                	unimp
    28be:	5c00                	lw	s0,56(s0)
    28c0:	0005810b          	0x5810b
    28c4:	0400                	addi	s0,sp,512
    28c6:	09e5                	addi	s3,s3,25
    28c8:	001d                	c.nop	7
    28ca:	0000                	unimp
    28cc:	0064                	addi	s1,sp,12
    28ce:	00008e13          	mv	t3,ra
    28d2:	5a00                	lw	s0,48(a2)
    28d4:	0004                	0x4
    28d6:	1400                	addi	s0,sp,544
    28d8:	045a                	slli	s0,s0,0x16
    28da:	0000                	unimp
    28dc:	1514                	addi	a3,sp,672
    28de:	0001                	nop
    28e0:	1400                	addi	s0,sp,544
    28e2:	05ae                	slli	a1,a1,0xb
    28e4:	0000                	unimp
    28e6:	1d14                	addi	a3,sp,688
    28e8:	0000                	unimp
    28ea:	0000                	unimp
    28ec:	0465040f          	0x465040f
    28f0:	0000                	unimp
    28f2:	5a15                	li	s4,-27
    28f4:	0004                	0x4
    28f6:	1600                	addi	s0,sp,800
    28f8:	05e8                	addi	a0,sp,716
    28fa:	0000                	unimp
    28fc:	0428                	addi	a0,sp,520
    28fe:	3904                	fld	fs1,48(a0)
    2900:	0802                	c.slli64	a6
    2902:	05ae                	slli	a1,a1,0xb
    2904:	0000                	unimp
    2906:	00056717          	auipc	a4,0x56
    290a:	0400                	addi	s0,sp,512
    290c:	1d07023b          	0x1d07023b
    2910:	0000                	unimp
    2912:	0000                	unimp
    2914:	0006e117          	auipc	sp,0x6e
    2918:	0400                	addi	s0,sp,512
    291a:	0240                	addi	s0,sp,260
    291c:	00069f0b          	0x69f0b
    2920:	0400                	addi	s0,sp,512
    2922:	0006c917          	auipc	s2,0x6c
    2926:	0400                	addi	s0,sp,512
    2928:	0240                	addi	s0,sp,260
    292a:	9f14                	0x9f14
    292c:	0006                	c.slli	zero,0x1
    292e:	0800                	addi	s0,sp,16
    2930:	00028017          	auipc	zero,0x28
    2934:	0400                	addi	s0,sp,512
    2936:	0240                	addi	s0,sp,260
    2938:	9f1e                	add	t5,t5,t2
    293a:	0006                	c.slli	zero,0x1
    293c:	0c00                	addi	s0,sp,528
    293e:	0005c217          	auipc	tp,0x5c
    2942:	0400                	addi	s0,sp,512
    2944:	0242                	slli	tp,tp,0x10
    2946:	1d08                	addi	a0,sp,688
    2948:	0000                	unimp
    294a:	1000                	addi	s0,sp,32
    294c:	00002417          	auipc	s0,0x2
    2950:	0400                	addi	s0,sp,512
    2952:	9f080243          	fmadd.q	ft4,fa6,fa6,fs3,rne
    2956:	0008                	0x8
    2958:	1400                	addi	s0,sp,544
    295a:	0002a017          	auipc	zero,0x2a
    295e:	0400                	addi	s0,sp,512
    2960:	0246                	slli	tp,tp,0x11
    2962:	00001d07          	0x1d07
    2966:	3000                	fld	fs0,32(s0)
    2968:	00078217          	auipc	tp,0x78
    296c:	0400                	addi	s0,sp,512
    296e:	b4160247          	0xb4160247
    2972:	0008                	0x8
    2974:	3400                	fld	fs0,40(s0)
    2976:	0004bd17          	auipc	s10,0x4b
    297a:	0400                	addi	s0,sp,512
    297c:	0249                	addi	tp,tp,18
    297e:	00001d07          	0x1d07
    2982:	3800                	fld	fs0,48(s0)
    2984:	0005d617          	auipc	a2,0x5d
    2988:	0400                	addi	s0,sp,512
    298a:	c50a024b          	0xc50a024b
    298e:	0008                	0x8
    2990:	3c00                	fld	fs0,56(s0)
    2992:	0003da17          	auipc	s4,0x3d
    2996:	0400                	addi	s0,sp,512
    2998:	024e                	slli	tp,tp,0x13
    299a:	00017d13          	andi	s10,sp,0
    299e:	4000                	lw	s0,0(s0)
    29a0:	0001ff17          	auipc	t5,0x1f
    29a4:	0400                	addi	s0,sp,512
    29a6:	1d07024f          	0x1d07024f
    29aa:	0000                	unimp
    29ac:	4400                	lw	s0,8(s0)
    29ae:	00077d17          	auipc	s10,0x77
    29b2:	0400                	addi	s0,sp,512
    29b4:	0250                	addi	a2,sp,260
    29b6:	00017d13          	andi	s10,sp,0
    29ba:	4800                	lw	s0,16(s0)
    29bc:	0004d917          	auipc	s2,0x4d
    29c0:	0400                	addi	s0,sp,512
    29c2:	0251                	addi	tp,tp,20
    29c4:	cb14                	sw	a3,16(a4)
    29c6:	0008                	0x8
    29c8:	4c00                	lw	s0,24(s0)
    29ca:	0002dd17          	auipc	s10,0x2d
    29ce:	0400                	addi	s0,sp,512
    29d0:	0254                	addi	a3,sp,260
    29d2:	00001d07          	0x1d07
    29d6:	5000                	lw	s0,32(s0)
    29d8:	00022c17          	auipc	s8,0x22
    29dc:	0400                	addi	s0,sp,512
    29de:	0255                	addi	tp,tp,21
    29e0:	ae09                	j	2cf2 <_tbss_end+0x2cf2>
    29e2:	0005                	c.nop	1
    29e4:	5400                	lw	s0,40(s0)
    29e6:	00056017          	auipc	zero,0x56
    29ea:	0400                	addi	s0,sp,512
    29ec:	0278                	addi	a4,sp,268
    29ee:	00087a07          	0x87a07
    29f2:	5800                	lw	s0,48(s0)
    29f4:	ab18                	fsd	fa4,16(a4)
    29f6:	0004                	0x4
    29f8:	0400                	addi	s0,sp,512
    29fa:	027c                	addi	a5,sp,268
    29fc:	0002ae13          	slti	t3,t0,0
    2a00:	4800                	lw	s0,16(s0)
    2a02:	1801                	addi	a6,a6,-32
    2a04:	03b8                	addi	a4,sp,456
    2a06:	0000                	unimp
    2a08:	7d04                	flw	fs1,56(a0)
    2a0a:	1202                	slli	tp,tp,0x20
    2a0c:	0000026b          	0x26b
    2a10:	014c                	addi	a1,sp,132
    2a12:	fb18                	fsw	fa4,48(a4)
    2a14:	0006                	c.slli	zero,0x1
    2a16:	0400                	addi	s0,sp,512
    2a18:	0281                	addi	t0,t0,0
    2a1a:	dc0c                	sw	a1,56(s0)
    2a1c:	0008                	0x8
    2a1e:	dc00                	sw	s0,56(s0)
    2a20:	1802                	slli	a6,a6,0x20
    2a22:	01dc                	addi	a5,sp,196
    2a24:	0000                	unimp
    2a26:	8604                	0x8604
    2a28:	1002                	c.slli	zero,0x20
    2a2a:	0660                	addi	s0,sp,780
    2a2c:	0000                	unimp
    2a2e:	02e0                	addi	s0,sp,332
    2a30:	c118                	sw	a4,0(a0)
    2a32:	0001                	nop
    2a34:	0400                	addi	s0,sp,512
    2a36:	0288                	addi	a0,sp,320
    2a38:	e80a                	fsw	ft2,16(sp)
    2a3a:	0008                	0x8
    2a3c:	ec00                	fsw	fs0,24(s0)
    2a3e:	0002                	c.slli64	zero
    2a40:	05b4040f          	0x5b4040f
    2a44:	0000                	unimp
    2a46:	87080103          	lb	sp,-1936(a6) # 215f870 <_tbss_end+0x215f870>
    2a4a:	0006                	c.slli	zero,0x1
    2a4c:	1500                	addi	s0,sp,672
    2a4e:	05b4                	addi	a3,sp,712
    2a50:	0000                	unimp
    2a52:	043c040f          	0x43c040f
    2a56:	0000                	unimp
    2a58:	00008e13          	mv	t3,ra
    2a5c:	e400                	fsw	fs0,8(s0)
    2a5e:	0005                	c.nop	1
    2a60:	1400                	addi	s0,sp,544
    2a62:	045a                	slli	s0,s0,0x16
    2a64:	0000                	unimp
    2a66:	1514                	addi	a3,sp,672
    2a68:	0001                	nop
    2a6a:	1400                	addi	s0,sp,544
    2a6c:	05e4                	addi	s1,sp,716
    2a6e:	0000                	unimp
    2a70:	1d14                	addi	a3,sp,688
    2a72:	0000                	unimp
    2a74:	0000                	unimp
    2a76:	05bb040f          	0x5bb040f
    2a7a:	0000                	unimp
    2a7c:	e415                	bnez	s0,2aa8 <_tbss_end+0x2aa8>
    2a7e:	0005                	c.nop	1
    2a80:	0f00                	addi	s0,sp,912
    2a82:	c604                	sw	s1,8(a2)
    2a84:	0005                	c.nop	1
    2a86:	1300                	addi	s0,sp,416
    2a88:	0082                	c.slli64	ra
    2a8a:	0000                	unimp
    2a8c:	00000613          	li	a2,0
    2a90:	5a14                	lw	a3,48(a2)
    2a92:	0004                	0x4
    2a94:	1400                	addi	s0,sp,544
    2a96:	0115                	addi	sp,sp,5
    2a98:	0000                	unimp
    2a9a:	8214                	0x8214
    2a9c:	0000                	unimp
    2a9e:	1400                	addi	s0,sp,544
    2aa0:	001d                	c.nop	7
    2aa2:	0000                	unimp
    2aa4:	0f00                	addi	s0,sp,912
    2aa6:	f504                	fsw	fs1,40(a0)
    2aa8:	0005                	c.nop	1
    2aaa:	1300                	addi	s0,sp,416
    2aac:	001d                	c.nop	7
    2aae:	0000                	unimp
    2ab0:	062d                	addi	a2,a2,11
    2ab2:	0000                	unimp
    2ab4:	5a14                	lw	a3,48(a2)
    2ab6:	0004                	0x4
    2ab8:	1400                	addi	s0,sp,544
    2aba:	0115                	addi	sp,sp,5
    2abc:	0000                	unimp
    2abe:	0f00                	addi	s0,sp,912
    2ac0:	1904                	addi	s1,sp,176
    2ac2:	0006                	c.slli	zero,0x1
    2ac4:	0800                	addi	s0,sp,16
    2ac6:	0040                	addi	s0,sp,4
    2ac8:	0000                	unimp
    2aca:	00000643          	fmadd.s	fa2,ft0,ft0,ft0,rne
    2ace:	2409                	jal	2cd0 <_tbss_end+0x2cd0>
    2ad0:	0000                	unimp
    2ad2:	0200                	addi	s0,sp,256
    2ad4:	0800                	addi	s0,sp,16
    2ad6:	0040                	addi	s0,sp,4
    2ad8:	0000                	unimp
    2ada:	00000653          	fadd.s	fa2,ft0,ft0,rne
    2ade:	2409                	jal	2ce0 <_tbss_end+0x2ce0>
    2ae0:	0000                	unimp
    2ae2:	0000                	unimp
    2ae4:	0500                	addi	s0,sp,640
    2ae6:	01f8                	addi	a4,sp,204
    2ae8:	0000                	unimp
    2aea:	1f04                	addi	s1,sp,944
    2aec:	1a01                	addi	s4,s4,-32
    2aee:	02f9                	addi	t0,t0,30
    2af0:	0000                	unimp
    2af2:	db19                	beqz	a4,2a08 <_tbss_end+0x2a08>
    2af4:	0006                	c.slli	zero,0x1
    2af6:	0c00                	addi	s0,sp,528
    2af8:	2304                	fld	fs1,0(a4)
    2afa:	0801                	addi	a6,a6,0
    2afc:	0699                	addi	a3,a3,6
    2afe:	0000                	unimp
    2b00:	0007a817          	auipc	a6,0x7a
    2b04:	0400                	addi	s0,sp,512
    2b06:	0125                	addi	sp,sp,9
    2b08:	9911                	andi	a0,a0,-28
    2b0a:	0006                	c.slli	zero,0x1
    2b0c:	0000                	unimp
    2b0e:	0002fd17          	auipc	s10,0x2f
    2b12:	0400                	addi	s0,sp,512
    2b14:	0126                	slli	sp,sp,0x9
    2b16:	00001d07          	0x1d07
    2b1a:	0400                	addi	s0,sp,512
    2b1c:	00058917          	auipc	s2,0x58
    2b20:	0400                	addi	s0,sp,512
    2b22:	9f0b0127          	0x9f0b0127
    2b26:	0006                	c.slli	zero,0x1
    2b28:	0800                	addi	s0,sp,16
    2b2a:	0f00                	addi	s0,sp,912
    2b2c:	6004                	flw	fs1,0(s0)
    2b2e:	0006                	c.slli	zero,0x1
    2b30:	0f00                	addi	s0,sp,912
    2b32:	5304                	lw	s1,32(a4)
    2b34:	0006                	c.slli	zero,0x1
    2b36:	1900                	addi	s0,sp,176
    2b38:	001c                	0x1c
    2b3a:	0000                	unimp
    2b3c:	040e                	slli	s0,s0,0x3
    2b3e:	de08013f 17000006 	0x17000006de08013f
    2b46:	0645                	addi	a2,a2,17
    2b48:	0000                	unimp
    2b4a:	4004                	lw	s1,0(s0)
    2b4c:	1201                	addi	tp,tp,-32
    2b4e:	06de                	slli	a3,a3,0x17
    2b50:	0000                	unimp
    2b52:	1700                	addi	s0,sp,928
    2b54:	0418                	addi	a4,sp,512
    2b56:	0000                	unimp
    2b58:	4104                	lw	s1,0(a0)
    2b5a:	1201                	addi	tp,tp,-32
    2b5c:	06de                	slli	a3,a3,0x17
    2b5e:	0000                	unimp
    2b60:	1706                	slli	a4,a4,0x21
    2b62:	068c                	addi	a1,sp,832
    2b64:	0000                	unimp
    2b66:	4204                	lw	s1,0(a2)
    2b68:	1201                	addi	tp,tp,-32
    2b6a:	004e                	c.slli	zero,0x13
    2b6c:	0000                	unimp
    2b6e:	000c                	0xc
    2b70:	4e08                	lw	a0,24(a2)
    2b72:	0000                	unimp
    2b74:	ee00                	fsw	fs0,24(a2)
    2b76:	0006                	c.slli	zero,0x1
    2b78:	0900                	addi	s0,sp,144
    2b7a:	0024                	addi	s1,sp,8
    2b7c:	0000                	unimp
    2b7e:	0002                	c.slli64	zero
    2b80:	d01a                	sw	t1,32(sp)
    2b82:	5904                	lw	s1,48(a0)
    2b84:	0702                	c.slli64	a4
    2b86:	00000803          	lb	a6,0(zero) # 0 <_tbss_end>
    2b8a:	00045417          	auipc	s0,0x45
    2b8e:	0400                	addi	s0,sp,512
    2b90:	2418025b          	0x2418025b
    2b94:	0000                	unimp
    2b96:	0000                	unimp
    2b98:	00066117          	auipc	sp,0x66
    2b9c:	0400                	addi	s0,sp,512
    2b9e:	025c                	addi	a5,sp,260
    2ba0:	ae12                	fsd	ft4,280(sp)
    2ba2:	0005                	c.nop	1
    2ba4:	0400                	addi	s0,sp,512
    2ba6:	0003cd17          	auipc	s10,0x3c
    2baa:	0400                	addi	s0,sp,512
    2bac:	025d                	addi	tp,tp,23
    2bae:	0310                	addi	a2,sp,384
    2bb0:	0008                	0x8
    2bb2:	0800                	addi	s0,sp,16
    2bb4:	00073717          	auipc	a4,0x73
    2bb8:	0400                	addi	s0,sp,512
    2bba:	025e                	slli	tp,tp,0x17
    2bbc:	00019317          	auipc	t1,0x19
    2bc0:	2400                	fld	fs0,8(s0)
    2bc2:	00028817          	auipc	a6,0x28
    2bc6:	0400                	addi	s0,sp,512
    2bc8:	025f 1d0f 0000      	0x1d0f025f
    2bce:	4800                	lw	s0,16(s0)
    2bd0:	0007a317          	auipc	t1,0x7a
    2bd4:	0400                	addi	s0,sp,512
    2bd6:	0260                	addi	s0,sp,268
    2bd8:	632c                	flw	fa1,64(a4)
    2bda:	0000                	unimp
    2bdc:	5000                	lw	s0,32(s0)
    2bde:	00074f17          	auipc	t5,0x74
    2be2:	0400                	addi	s0,sp,512
    2be4:	0261                	addi	tp,tp,24
    2be6:	a51a                	fsd	ft6,136(sp)
    2be8:	0006                	c.slli	zero,0x1
    2bea:	5800                	lw	s0,48(s0)
    2bec:	0005b517          	auipc	a0,0x5b
    2bf0:	0400                	addi	s0,sp,512
    2bf2:	0262                	slli	tp,tp,0x18
    2bf4:	fd16                	fsw	ft5,184(sp)
    2bf6:	0000                	unimp
    2bf8:	6800                	flw	fs0,16(s0)
    2bfa:	00076f17          	auipc	t5,0x76
    2bfe:	0400                	addi	s0,sp,512
    2c00:	fd160263          	beq	a2,a7,23c4 <_tbss_end+0x23c4>
    2c04:	0000                	unimp
    2c06:	7000                	flw	fs0,32(s0)
    2c08:	0001b317          	auipc	t1,0x1b
    2c0c:	0400                	addi	s0,sp,512
    2c0e:	0264                	addi	s1,sp,268
    2c10:	fd16                	fsw	ft5,184(sp)
    2c12:	0000                	unimp
    2c14:	7800                	flw	fs0,48(s0)
    2c16:	0006f117          	auipc	sp,0x6f
    2c1a:	0400                	addi	s0,sp,512
    2c1c:	0265                	addi	tp,tp,25
    2c1e:	1310                	addi	a2,sp,416
    2c20:	0008                	0x8
    2c22:	8000                	0x8000
    2c24:	0003c117          	auipc	sp,0x3c
    2c28:	0400                	addi	s0,sp,512
    2c2a:	0266                	slli	tp,tp,0x19
    2c2c:	2310                	fld	fa2,0(a4)
    2c2e:	0008                	0x8
    2c30:	8800                	0x8800
    2c32:	00027317          	auipc	t1,0x27
    2c36:	0400                	addi	s0,sp,512
    2c38:	1d0f0267          	jalr	tp,464(t5) # 78dca <_tbss_end+0x78dca>
    2c3c:	0000                	unimp
    2c3e:	a000                	fsd	fs0,0(s0)
    2c40:	00024517          	auipc	a0,0x24
    2c44:	0400                	addi	s0,sp,512
    2c46:	0268                	addi	a0,sp,268
    2c48:	fd16                	fsw	ft5,184(sp)
    2c4a:	0000                	unimp
    2c4c:	a400                	fsd	fs0,8(s0)
    2c4e:	00017617          	auipc	a2,0x17
    2c52:	0400                	addi	s0,sp,512
    2c54:	0269                	addi	tp,tp,26
    2c56:	fd16                	fsw	ft5,184(sp)
    2c58:	0000                	unimp
    2c5a:	ac00                	fsd	fs0,24(s0)
    2c5c:	00023417          	auipc	s0,0x23
    2c60:	0400                	addi	s0,sp,512
    2c62:	026a                	slli	tp,tp,0x1a
    2c64:	fd16                	fsw	ft5,184(sp)
    2c66:	0000                	unimp
    2c68:	b400                	fsd	fs0,40(s0)
    2c6a:	00011317          	auipc	t1,0x11
    2c6e:	0400                	addi	s0,sp,512
    2c70:	fd16026b          	0xfd16026b
    2c74:	0000                	unimp
    2c76:	bc00                	fsd	fs0,56(s0)
    2c78:	00012217          	auipc	tp,0x12
    2c7c:	0400                	addi	s0,sp,512
    2c7e:	026c                	addi	a1,sp,268
    2c80:	fd16                	fsw	ft5,184(sp)
    2c82:	0000                	unimp
    2c84:	c400                	sw	s0,8(s0)
    2c86:	00056517          	auipc	a0,0x56
    2c8a:	0400                	addi	s0,sp,512
    2c8c:	026d                	addi	tp,tp,27
    2c8e:	1d08                	addi	a0,sp,688
    2c90:	0000                	unimp
    2c92:	cc00                	sw	s0,24(s0)
    2c94:	0800                	addi	s0,sp,16
    2c96:	05b4                	addi	a3,sp,712
    2c98:	0000                	unimp
    2c9a:	00000813          	li	a6,0
    2c9e:	2409                	jal	2ea0 <_tbss_end+0x2ea0>
    2ca0:	0000                	unimp
    2ca2:	1900                	addi	s0,sp,176
    2ca4:	0800                	addi	s0,sp,16
    2ca6:	05b4                	addi	a3,sp,712
    2ca8:	0000                	unimp
    2caa:	00000823          	sb	zero,16(zero) # 10 <_tbss_end+0x10>
    2cae:	2409                	jal	2eb0 <_tbss_end+0x2eb0>
    2cb0:	0000                	unimp
    2cb2:	0700                	addi	s0,sp,896
    2cb4:	0800                	addi	s0,sp,16
    2cb6:	05b4                	addi	a3,sp,712
    2cb8:	0000                	unimp
    2cba:	00000833          	add	a6,zero,zero
    2cbe:	2409                	jal	2ec0 <_tbss_end+0x2ec0>
    2cc0:	0000                	unimp
    2cc2:	1700                	addi	s0,sp,928
    2cc4:	1a00                	addi	s0,sp,304
    2cc6:	04f0                	addi	a2,sp,588
    2cc8:	0272                	slli	tp,tp,0x1c
    2cca:	00085a07          	0x85a07
    2cce:	1700                	addi	s0,sp,928
    2cd0:	048d                	addi	s1,s1,3
    2cd2:	0000                	unimp
    2cd4:	7504                	flw	fs1,40(a0)
    2cd6:	1b02                	slli	s6,s6,0x20
    2cd8:	085a                	slli	a6,a6,0x16
    2cda:	0000                	unimp
    2cdc:	1700                	addi	s0,sp,928
    2cde:	00000297          	auipc	t0,0x0
    2ce2:	7604                	flw	fs1,40(a2)
    2ce4:	1802                	slli	a6,a6,0x20
    2ce6:	086a                	slli	a6,a6,0x1a
    2ce8:	0000                	unimp
    2cea:	0078                	addi	a4,sp,12
    2cec:	f308                	fsw	fa0,32(a4)
    2cee:	0002                	c.slli64	zero
    2cf0:	6a00                	flw	fs0,16(a2)
    2cf2:	0008                	0x8
    2cf4:	0900                	addi	s0,sp,144
    2cf6:	0024                	addi	s1,sp,8
    2cf8:	0000                	unimp
    2cfa:	001d                	c.nop	7
    2cfc:	2408                	fld	fa0,8(s0)
    2cfe:	0000                	unimp
    2d00:	7a00                	flw	fs0,48(a2)
    2d02:	0008                	0x8
    2d04:	0900                	addi	s0,sp,144
    2d06:	0024                	addi	s1,sp,8
    2d08:	0000                	unimp
    2d0a:	001d                	c.nop	7
    2d0c:	5704f01b          	0x5704f01b
    2d10:	0302                	c.slli64	t1
    2d12:	089f 0000 e81c      	0xe81c0000089f
    2d18:	0005                	c.nop	1
    2d1a:	0400                	addi	s0,sp,512
    2d1c:	026e                	slli	tp,tp,0x1b
    2d1e:	0006ee0b          	0x6ee0b
    2d22:	1c00                	addi	s0,sp,560
    2d24:	071a                	slli	a4,a4,0x6
    2d26:	0000                	unimp
    2d28:	7704                	flw	fs1,40(a4)
    2d2a:	0b02                	c.slli64	s6
    2d2c:	00000833          	add	a6,zero,zero
    2d30:	0800                	addi	s0,sp,16
    2d32:	05b4                	addi	a3,sp,712
    2d34:	0000                	unimp
    2d36:	000008af          	0x8af
    2d3a:	2409                	jal	2f3c <_tbss_end+0x2f3c>
    2d3c:	0000                	unimp
    2d3e:	1800                	addi	s0,sp,48
    2d40:	1d00                	addi	s0,sp,688
    2d42:	0000016b          	0x16b
    2d46:	08af040f          	0x8af040f
    2d4a:	0000                	unimp
    2d4c:	c51e                	sw	t2,136(sp)
    2d4e:	0008                	0x8
    2d50:	1400                	addi	s0,sp,544
    2d52:	045a                	slli	s0,s0,0x16
    2d54:	0000                	unimp
    2d56:	0f00                	addi	s0,sp,912
    2d58:	ba04                	fsd	fs1,48(a2)
    2d5a:	0008                	0x8
    2d5c:	0f00                	addi	s0,sp,912
    2d5e:	7d04                	flw	fs1,56(a0)
    2d60:	0001                	nop
    2d62:	1e00                	addi	s0,sp,816
    2d64:	08dc                	addi	a5,sp,84
    2d66:	0000                	unimp
    2d68:	1d14                	addi	a3,sp,688
    2d6a:	0000                	unimp
    2d6c:	0000                	unimp
    2d6e:	08e2040f          	0x8e2040f
    2d72:	0000                	unimp
    2d74:	08d1040f          	0x8d1040f
    2d78:	0000                	unimp
    2d7a:	5308                	lw	a0,32(a4)
    2d7c:	0006                	c.slli	zero,0x1
    2d7e:	f800                	fsw	fs0,48(s0)
    2d80:	0008                	0x8
    2d82:	0900                	addi	s0,sp,144
    2d84:	0024                	addi	s1,sp,8
    2d86:	0000                	unimp
    2d88:	0002                	c.slli64	zero
    2d8a:	b51f 0006 0400      	0x4000006b51f
    2d90:	5a170307          	0x5a170307
    2d94:	0004                	0x4
    2d96:	1f00                	addi	s0,sp,944
    2d98:	06ae                	slli	a3,a3,0xb
    2d9a:	0000                	unimp
    2d9c:	0804                	addi	s1,sp,16
    2d9e:	04601d03          	lh	s10,70(zero) # 46 <_tbss_end+0x46>
    2da2:	0000                	unimp
    2da4:	ea08                	fsw	fa0,16(a2)
    2da6:	0005                	c.nop	1
    2da8:	1d00                	addi	s0,sp,688
    2daa:	0009                	c.nop	2
    2dac:	2000                	fld	fs0,0(s0)
    2dae:	1500                	addi	s0,sp,672
    2db0:	0912                	slli	s2,s2,0x4
    2db2:	0000                	unimp
    2db4:	1f21                	addi	t5,t5,-24
    2db6:	0002                	c.slli64	zero
    2db8:	0500                	addi	s0,sp,640
    2dba:	2414                	fld	fa3,8(s0)
    2dbc:	091d                	addi	s2,s2,7
    2dbe:	0000                	unimp
    2dc0:	ab21                	j	32d8 <_tbss_end+0x32d8>
    2dc2:	0005                	c.nop	1
    2dc4:	0500                	addi	s0,sp,640
    2dc6:	1515                	addi	a0,a0,-27
    2dc8:	001d                	c.nop	7
    2dca:	0000                	unimp
    2dcc:	0940040f          	0x940040f
    2dd0:	0000                	unimp
    2dd2:	00001d13          	slli	s10,zero,0x0
    2dd6:	5400                	lw	s0,40(s0)
    2dd8:	0009                	c.nop	2
    2dda:	1400                	addi	s0,sp,544
    2ddc:	0954                	addi	a3,sp,148
    2dde:	0000                	unimp
    2de0:	5414                	lw	a3,40(s0)
    2de2:	0009                	c.nop	2
    2de4:	0000                	unimp
    2de6:	095a040f          	0x95a040f
    2dea:	0000                	unimp
    2dec:	2122                	fld	ft2,8(sp)
    2dee:	000004b3          	add	s1,zero,zero
    2df2:	6306                	flw	ft6,64(sp)
    2df4:	ae0e                	fsd	ft3,280(sp)
    2df6:	0005                	c.nop	1
    2df8:	2100                	fld	fs0,0(a0)
    2dfa:	000003f3          	0x3f3
    2dfe:	730f1007          	0x730f1007
    2e02:	0009                	c.nop	2
    2e04:	0f00                	addi	s0,sp,912
    2e06:	ae04                	fsd	fs1,24(a2)
    2e08:	0005                	c.nop	1
    2e0a:	2100                	fld	fs0,0(a0)
    2e0c:	04b6                	slli	s1,s1,0xd
    2e0e:	0000                	unimp
    2e10:	ae0efc07          	0xae0efc07
    2e14:	0005                	c.nop	1
    2e16:	2100                	fld	fs0,0(a0)
    2e18:	0146                	slli	sp,sp,0x11
    2e1a:	0000                	unimp
    2e1c:	1d0cfd07          	0x1d0cfd07
    2e20:	0000                	unimp
    2e22:	2100                	fld	fs0,0(a0)
    2e24:	0000064b          	fnmsub.s	fa2,ft0,ft0,ft0,rne
    2e28:	1d14fd07          	0x1d14fd07
    2e2c:	0000                	unimp
    2e2e:	2100                	fld	fs0,0(a0)
    2e30:	075e                	slli	a4,a4,0x17
    2e32:	0000                	unimp
    2e34:	1d1cfd07          	0x1d1cfd07
    2e38:	0000                	unimp
    2e3a:	2100                	fld	fs0,0(a0)
    2e3c:	0432                	slli	s0,s0,0xc
    2e3e:	0000                	unimp
    2e40:	1d0cff07          	0x1d0cff07
    2e44:	0000                	unimp
    2e46:	2100                	fld	fs0,0(a0)
    2e48:	000004e3          	beqz	zero,3650 <_tbss_end+0x3650>
    2e4c:	9a08                	0x9a08
    2e4e:	5516                	lw	a0,100(sp)
    2e50:	0000                	unimp
    2e52:	2100                	fld	fs0,0(a0)
    2e54:	0000002f          	0x2f
    2e58:	9b08                	0x9b08
    2e5a:	1d15                	addi	s10,s10,-27
    2e5c:	0000                	unimp
    2e5e:	0800                	addi	s0,sp,16
    2e60:	05ae                	slli	a1,a1,0xb
    2e62:	0000                	unimp
    2e64:	09dd                	addi	s3,s3,23
    2e66:	0000                	unimp
    2e68:	2409                	jal	306a <_tbss_end+0x306a>
    2e6a:	0000                	unimp
    2e6c:	0100                	addi	s0,sp,128
    2e6e:	2100                	fld	fs0,0(a0)
    2e70:	0185                	addi	gp,gp,1
    2e72:	0000                	unimp
    2e74:	9e08                	0x9e08
    2e76:	0009cd17          	auipc	s10,0x9c
    2e7a:	0400                	addi	s0,sp,512
    2e7c:	000002eb          	0x2eb
    2e80:	2a09                	jal	2f92 <_tbss_end+0x2f92>
    2e82:	2416                	fld	fs0,320(sp)
    2e84:	0000                	unimp
    2e86:	0400                	addi	s0,sp,512
    2e88:	0599                	addi	a1,a1,6
    2e8a:	0000                	unimp
    2e8c:	2f09                	jal	359e <_tbss_end+0x359e>
    2e8e:	0115                	addi	sp,sp,5
    2e90:	000a                	c.slli	zero,0x2
    2e92:	0f00                	addi	s0,sp,912
    2e94:	0704                	addi	s1,sp,896
    2e96:	000a                	c.slli	zero,0x2
    2e98:	1300                	addi	s0,sp,416
    2e9a:	09e9                	addi	s3,s3,26
    2e9c:	0000                	unimp
    2e9e:	0a16                	slli	s4,s4,0x5
    2ea0:	0000                	unimp
    2ea2:	5414                	lw	a3,40(s0)
    2ea4:	0009                	c.nop	2
    2ea6:	0000                	unimp
    2ea8:	ae04                	fsd	fs1,24(a2)
    2eaa:	09000007          	0x9000007
    2eae:	0f36                	slli	t5,t5,0xd
    2eb0:	093a                	slli	s2,s2,0xe
    2eb2:	0000                	unimp
    2eb4:	0a21                	addi	s4,s4,8
    2eb6:	0000                	unimp
    2eb8:	0900                	addi	s0,sp,144
    2eba:	09f512bb          	0x9f512bb
    2ebe:	0000                	unimp
    2ec0:	9921                	andi	a0,a0,-24
    2ec2:	0006                	c.slli	zero,0x1
    2ec4:	0900                	addi	s0,sp,144
    2ec6:	10be                	slli	ra,ra,0x2f
    2ec8:	0a16                	slli	s4,s4,0x5
    2eca:	0000                	unimp
    2ecc:	0002be23          	0x2be23
    2ed0:	0700                	addi	s0,sp,896
    2ed2:	2404                	fld	fs1,8(s0)
    2ed4:	0000                	unimp
    2ed6:	0a00                	addi	s0,sp,272
    2ed8:	0618                	addi	a4,sp,768
    2eda:	00000a77          	0xa77
    2ede:	4024                	lw	s1,64(s0)
    2ee0:	0005                	c.nop	1
    2ee2:	0000                	unimp
    2ee4:	0d24                	addi	s1,sp,664
    2ee6:	0004                	0x4
    2ee8:	0100                	addi	s0,sp,128
    2eea:	e824                	fsw	fs1,80(s0)
    2eec:	02000003          	lb	zero,32(zero) # 20 <_tbss_end+0x20>
    2ef0:	6124                	flw	fs1,64(a0)
    2ef2:	0004                	0x4
    2ef4:	0300                	addi	s0,sp,384
    2ef6:	3724                	fld	fs1,104(a4)
    2ef8:	0005                	c.nop	1
    2efa:	0400                	addi	s0,sp,512
    2efc:	6524                	flw	fs1,72(a0)
    2efe:	05000007          	0x5000007
    2f02:	5424                	lw	s1,104(s0)
    2f04:	06000007          	0x6000007
    2f08:	2100                	fld	fs0,0(a0)
    2f0a:	0161                	addi	sp,sp,24
    2f0c:	0000                	unimp
    2f0e:	210a                	fld	ft2,128(sp)
    2f10:	3a1c                	fld	fa5,48(a2)
    2f12:	000a                	c.slli	zero,0x2
    2f14:	2300                	fld	fs0,0(a4)
    2f16:	046c                	addi	a1,sp,524
    2f18:	0000                	unimp
    2f1a:	00240407          	0x240407
    2f1e:	0000                	unimp
    2f20:	230a                	fld	ft6,128(sp)
    2f22:	a806                	fsd	ft1,16(sp)
    2f24:	000a                	c.slli	zero,0x2
    2f26:	2400                	fld	fs0,8(s0)
    2f28:	0000058f          	0x58f
    2f2c:	2400                	fld	fs0,8(s0)
    2f2e:	0556                	slli	a0,a0,0x15
    2f30:	0000                	unimp
    2f32:	2401                	jal	3132 <_tbss_end+0x3132>
    2f34:	066e                	slli	a2,a2,0x1b
    2f36:	0000                	unimp
    2f38:	0002                	c.slli64	zero
    2f3a:	5321                	li	t1,-24
    2f3c:	0002                	c.slli64	zero
    2f3e:	0a00                	addi	s0,sp,272
    2f40:	1e28                	addi	a0,sp,824
    2f42:	00000a83          	lb	s5,0(zero) # 0 <_tbss_end>
    2f46:	2321                	jal	344e <_tbss_end+0x344e>
    2f48:	0004                	0x4
    2f4a:	0b00                	addi	s0,sp,400
    2f4c:	1a29                	addi	s4,s4,-22
    2f4e:	091d                	addi	s2,s2,7
    2f50:	0000                	unimp
    2f52:	3521                	jal	2d5a <_tbss_end+0x2d5a>
    2f54:	0006                	c.slli	zero,0x1
    2f56:	0b00                	addi	s0,sp,400
    2f58:	1a38                	addi	a4,sp,312
    2f5a:	091d                	addi	s2,s2,7
    2f5c:	0000                	unimp
    2f5e:	8a04                	0x8a04
    2f60:	0c000007          	0xc000007
    2f64:	0040167b          	0x40167b
    2f68:	0000                	unimp
    2f6a:	cc15                	beqz	s0,2fa6 <_tbss_end+0x2fa6>
    2f6c:	000a                	c.slli	zero,0x2
    2f6e:	0300                	addi	s0,sp,384
    2f70:	0404                	addi	s1,sp,512
    2f72:	049c                	addi	a5,sp,576
    2f74:	0000                	unimp
    2f76:	94030803          	lb	a6,-1728(t1) # 135aa <_tbss_end+0x135aa>
    2f7a:	0004                	0x4
    2f7c:	0300                	addi	s0,sp,384
    2f7e:	0408                	addi	a0,sp,512
    2f80:	015a                	slli	sp,sp,0x16
    2f82:	0000                	unimp
    2f84:	39031003          	lh	zero,912(t1)
    2f88:	0000                	unimp
    2f8a:	0300                	addi	s0,sp,384
    2f8c:	0320                	addi	s0,sp,392
    2f8e:	014d                	addi	sp,sp,19
    2f90:	0000                	unimp
    2f92:	d808                	sw	a0,48(s0)
    2f94:	000a                	c.slli	zero,0x2
    2f96:	1000                	addi	s0,sp,32
    2f98:	0900000b          	0x900000b
    2f9c:	0024                	addi	s1,sp,8
    2f9e:	0000                	unimp
    2fa0:	00ff                	0xff
    2fa2:	0015                	c.nop	5
    2fa4:	1f00000b          	0x1f00000b
    2fa8:	0705                	addi	a4,a4,1
    2faa:	0000                	unimp
    2fac:	fc0c                	fsw	fa1,56(s0)
    2fae:	1601                	addi	a2,a2,-32
    2fb0:	0b10                	addi	a2,sp,400
    2fb2:	0000                	unimp
    2fb4:	1b1f 0003 0c00      	0xc0000031b1f
    2fba:	0202                	c.slli64	tp
    2fbc:	1016                	c.slli	zero,0x25
    2fbe:	2500000b          	0x2500000b
    2fc2:	0b22                	slli	s6,s6,0x8
    2fc4:	0000                	unimp
    2fc6:	b20d                	j	28e8 <_tbss_end+0x28e8>
    2fc8:	0f02                	c.slli64	t5
    2fca:	0305                	addi	t1,t1,1
    2fcc:	2a68                	fld	fa0,208(a2)
    2fce:	8000                	0x8000
	...

Disassembly of section .debug_abbrev:

00000000 <.debug_abbrev>:
   0:	1101                	addi	sp,sp,-32
   2:	2501                	jal	602 <_tbss_end+0x602>
   4:	130e                	slli	t1,t1,0x23
   6:	1b0e030b          	0x1b0e030b
   a:	110e                	slli	sp,sp,0x23
   c:	1201                	addi	tp,tp,-32
   e:	1006                	c.slli	zero,0x21
  10:	02000017          	auipc	zero,0x2000
  14:	0024                	addi	s1,sp,8
  16:	0b3e0b0b          	0xb3e0b0b
  1a:	00000e03          	lb	t3,0(zero) # 0 <_tbss_end>
  1e:	0b002403          	lw	s0,176(zero) # b0 <_tbss_end+0xb0>
  22:	030b3e0b          	0x30b3e0b
  26:	0008                	0x8
  28:	0400                	addi	s0,sp,512
  2a:	0016                	c.slli	zero,0x5
  2c:	0b3a0e03          	lb	t3,179(s4) # 3fa45 <_tbss_end+0x3fa45>
  30:	0b390b3b          	0xb390b3b
  34:	1349                	addi	t1,t1,-14
  36:	0000                	unimp
  38:	1605                	addi	a2,a2,-31
  3a:	0300                	addi	s0,sp,384
  3c:	3a0e                	fld	fs4,224(sp)
  3e:	39053b0b          	0x39053b0b
  42:	0013490b          	0x13490b
  46:	0600                	addi	s0,sp,768
  48:	0b0b0117          	auipc	sp,0xb0b0
  4c:	0b3a                	slli	s6,s6,0xe
  4e:	0b390b3b          	0xb390b3b
  52:	1301                	addi	t1,t1,-32
  54:	0000                	unimp
  56:	03000d07          	0x3000d07
  5a:	3a0e                	fld	fs4,224(sp)
  5c:	390b3b0b          	0x390b3b0b
  60:	0013490b          	0x13490b
  64:	0800                	addi	s0,sp,16
  66:	0101                	addi	sp,sp,0
  68:	1349                	addi	t1,t1,-14
  6a:	1301                	addi	t1,t1,-32
  6c:	0000                	unimp
  6e:	2109                	jal	470 <_tbss_end+0x470>
  70:	4900                	lw	s0,16(a0)
  72:	000b2f13          	slti	t5,s6,0
  76:	0a00                	addi	s0,sp,272
  78:	0b0b0113          	addi	sp,s6,176 # 1a9fc <_tbss_end+0x1a9fc>
  7c:	0b3a                	slli	s6,s6,0xe
  7e:	0b390b3b          	0xb390b3b
  82:	1301                	addi	t1,t1,-32
  84:	0000                	unimp
  86:	03000d0b          	0x3000d0b
  8a:	3a0e                	fld	fs4,224(sp)
  8c:	390b3b0b          	0x390b3b0b
  90:	3813490b          	0x3813490b
  94:	0c00000b          	0xc00000b
  98:	0b0b000f          	0xb0b000f
  9c:	0000                	unimp
  9e:	130d                	addi	t1,t1,-29
  a0:	0301                	addi	t1,t1,0
  a2:	0b0e                	slli	s6,s6,0x3
  a4:	3b0b3a0b          	0x3b0b3a0b
  a8:	010b390b          	0x10b390b
  ac:	0e000013          	li	zero,224
  b0:	000d                	c.nop	3
  b2:	0b3a0803          	lb	a6,179(s4)
  b6:	0b390b3b          	0xb390b3b
  ba:	1349                	addi	t1,t1,-14
  bc:	0b38                	addi	a4,sp,408
  be:	0000                	unimp
  c0:	0b000f0f          	0xb000f0f
  c4:	0013490b          	0x13490b
  c8:	1000                	addi	s0,sp,32
  ca:	0e030113          	addi	sp,t1,224
  ce:	0b3a050b          	0xb3a050b
  d2:	0b390b3b          	0xb390b3b
  d6:	1301                	addi	t1,t1,-32
  d8:	0000                	unimp
  da:	0d11                	addi	s10,s10,4
  dc:	0300                	addi	s0,sp,384
  de:	3a0e                	fld	fs4,224(sp)
  e0:	390b3b0b          	0x390b3b0b
  e4:	3813490b          	0x3813490b
  e8:	0005                	c.nop	1
  ea:	1200                	addi	s0,sp,288
  ec:	0015                	c.nop	5
  ee:	00001927          	0x1927
  f2:	27011513          	0x27011513
  f6:	4919                	li	s2,6
  f8:	00130113          	addi	sp,t1,1
  fc:	1400                	addi	s0,sp,544
  fe:	0005                	c.nop	1
 100:	1349                	addi	t1,t1,-14
 102:	0000                	unimp
 104:	2615                	jal	428 <_tbss_end+0x428>
 106:	4900                	lw	s0,16(a0)
 108:	16000013          	li	zero,352
 10c:	0e030113          	addi	sp,t1,224
 110:	0b3a050b          	0xb3a050b
 114:	0b39053b          	0xb39053b
 118:	1301                	addi	t1,t1,-32
 11a:	0000                	unimp
 11c:	03000d17          	auipc	s10,0x3000
 120:	3a0e                	fld	fs4,224(sp)
 122:	39053b0b          	0x39053b0b
 126:	3813490b          	0x3813490b
 12a:	1800000b          	0x1800000b
 12e:	000d                	c.nop	3
 130:	0b3a0e03          	lb	t3,179(s4)
 134:	0b39053b          	0xb39053b
 138:	1349                	addi	t1,t1,-14
 13a:	0538                	addi	a4,sp,648
 13c:	0000                	unimp
 13e:	1319                	addi	t1,t1,-26
 140:	0301                	addi	t1,t1,0
 142:	0b0e                	slli	s6,s6,0x3
 144:	3b0b3a0b          	0x3b0b3a0b
 148:	3905                	jal	fffffd78 <__global_pointer$+0x7fffc9d4>
 14a:	0013010b          	0x13010b
 14e:	1a00                	addi	s0,sp,304
 150:	0b0b0113          	addi	sp,s6,176
 154:	0b3a                	slli	s6,s6,0xe
 156:	0b39053b          	0xb39053b
 15a:	1301                	addi	t1,t1,-32
 15c:	0000                	unimp
 15e:	0b01171b          	0xb01171b
 162:	3b0b3a0b          	0x3b0b3a0b
 166:	3905                	jal	fffffd96 <__global_pointer$+0x7fffc9f2>
 168:	0013010b          	0x13010b
 16c:	1c00                	addi	s0,sp,560
 16e:	000d                	c.nop	3
 170:	0b3a0e03          	lb	t3,179(s4)
 174:	0b39053b          	0xb39053b
 178:	1349                	addi	t1,t1,-14
 17a:	0000                	unimp
 17c:	131d                	addi	t1,t1,-25
 17e:	0300                	addi	s0,sp,384
 180:	3c0e                	fld	fs8,224(sp)
 182:	0019                	c.nop	6
 184:	1e00                	addi	s0,sp,816
 186:	0115                	addi	sp,sp,5
 188:	13011927          	0x13011927
 18c:	0000                	unimp
 18e:	341f 0300 3a0e      	0x3a0e0300341f
 194:	39053b0b          	0x39053b0b
 198:	3f13490b          	0x3f13490b
 19c:	3c19                	jal	fffffbb2 <__global_pointer$+0x7fffc80e>
 19e:	0019                	c.nop	6
 1a0:	2000                	fld	fs0,0(s0)
 1a2:	0021                	c.nop	8
 1a4:	0000                	unimp
 1a6:	3421                	jal	fffffbae <__global_pointer$+0x7fffc80a>
 1a8:	0300                	addi	s0,sp,384
 1aa:	3a0e                	fld	fs4,224(sp)
 1ac:	390b3b0b          	0x390b3b0b
 1b0:	3f13490b          	0x3f13490b
 1b4:	3c19                	jal	fffffbca <__global_pointer$+0x7fffc826>
 1b6:	0019                	c.nop	6
 1b8:	2200                	fld	fs0,0(a2)
 1ba:	0026                	c.slli	zero,0x9
 1bc:	0000                	unimp
 1be:	03010423          	sb	a6,40(sp) # b0b0070 <_tbss_end+0xb0b0070>
 1c2:	3e0e                	fld	ft8,224(sp)
 1c4:	490b0b0b          	0x490b0b0b
 1c8:	3b0b3a13          	sltiu	s4,s6,944
 1cc:	010b390b          	0x10b390b
 1d0:	24000013          	li	zero,576
 1d4:	0028                	addi	a0,sp,8
 1d6:	0b1c0e03          	lb	t3,177(s8) # 24a89 <_tbss_end+0x24a89>
 1da:	0000                	unimp
 1dc:	0d25                	addi	s10,s10,9
 1de:	0300                	addi	s0,sp,384
 1e0:	3a08                	fld	fa0,48(a2)
 1e2:	39053b0b          	0x39053b0b
 1e6:	3813490b          	0x3813490b
 1ea:	2600000b          	0x2600000b
 1ee:	000d                	c.nop	3
 1f0:	0b3a0803          	lb	a6,179(s4)
 1f4:	0b39053b          	0xb39053b
 1f8:	1349                	addi	t1,t1,-14
 1fa:	0000                	unimp
 1fc:	3f012e27          	fsw	fa6,1020(sp)
 200:	0319                	addi	t1,t1,6
 202:	3a0e                	fld	fs4,224(sp)
 204:	39053b0b          	0x39053b0b
 208:	4919270b          	0x4919270b
 20c:	12011113          	0x12011113
 210:	4006                	0x4006
 212:	9718                	0x9718
 214:	1942                	slli	s2,s2,0x30
 216:	1301                	addi	t1,t1,-32
 218:	0000                	unimp
 21a:	0528                	addi	a0,sp,648
 21c:	0300                	addi	s0,sp,384
 21e:	3a08                	fld	fa0,48(a2)
 220:	39053b0b          	0x39053b0b
 224:	0213490b          	0x213490b
 228:	29000017          	auipc	zero,0x29000
 22c:	011d                	addi	sp,sp,7
 22e:	1331                	addi	t1,t1,-20
 230:	0152                	slli	sp,sp,0x14
 232:	1755                	addi	a4,a4,-11
 234:	0b58                	addi	a4,sp,404
 236:	0559                	addi	a0,a0,22
 238:	00000b57          	0xb57
 23c:	052a                	slli	a0,a0,0xa
 23e:	3100                	fld	fs0,32(a0)
 240:	00170213          	addi	tp,a4,1 # 75bb5 <_tbss_end+0x75bb5>
 244:	2b00                	fld	fs0,16(a4)
 246:	1755010b          	0x1755010b
 24a:	0000                	unimp
 24c:	342c                	fld	fa1,104(s0)
 24e:	3100                	fld	fs0,32(a0)
 250:	2d000013          	li	zero,720
 254:	0034                	addi	a3,sp,8
 256:	1331                	addi	t1,t1,-20
 258:	1702                	slli	a4,a4,0x20
 25a:	0000                	unimp
 25c:	0b2e                	slli	s6,s6,0xb
 25e:	3101                	jal	fffffe5e <__global_pointer$+0x7fffcaba>
 260:	01175513          	srli	a0,a4,0x11
 264:	2f000013          	li	zero,752
 268:	1331010b          	0x1331010b
 26c:	0111                	addi	sp,sp,4
 26e:	0612                	slli	a2,a2,0x4
 270:	1301                	addi	t1,t1,-32
 272:	0000                	unimp
 274:	0b30                	addi	a2,sp,408
 276:	3101                	jal	fffffe76 <__global_pointer$+0x7fffcad2>
 278:	00175513          	srli	a0,a4,0x1
 27c:	3100                	fld	fs0,32(a0)
 27e:	012e                	slli	sp,sp,0xb
 280:	0b3a0e03          	lb	t3,179(s4)
 284:	0b39053b          	0xb39053b
 288:	13491927          	0x13491927
 28c:	0b20                	addi	s0,sp,408
 28e:	1301                	addi	t1,t1,-32
 290:	0000                	unimp
 292:	0532                	slli	a0,a0,0xc
 294:	0300                	addi	s0,sp,384
 296:	3a08                	fld	fa0,48(a2)
 298:	39053b0b          	0x39053b0b
 29c:	0013490b          	0x13490b
 2a0:	3300                	fld	fs0,32(a4)
 2a2:	0034                	addi	a3,sp,8
 2a4:	0b3a0803          	lb	a6,179(s4)
 2a8:	0b39053b          	0xb39053b
 2ac:	1349                	addi	t1,t1,-14
 2ae:	0000                	unimp
 2b0:	0b34                	addi	a3,sp,408
 2b2:	0101                	addi	sp,sp,0
 2b4:	35000013          	li	zero,848
 2b8:	0034                	addi	a3,sp,8
 2ba:	0b3a0e03          	lb	t3,179(s4)
 2be:	0b39053b          	0xb39053b
 2c2:	1349                	addi	t1,t1,-14
 2c4:	0000                	unimp
 2c6:	0b36                	slli	s6,s6,0xd
 2c8:	0001                	nop
 2ca:	0000                	unimp
 2cc:	1101                	addi	sp,sp,-32
 2ce:	2501                	jal	8ce <_tbss_end+0x8ce>
 2d0:	130e                	slli	t1,t1,0x23
 2d2:	1b0e030b          	0x1b0e030b
 2d6:	110e                	slli	sp,sp,0x23
 2d8:	1201                	addi	tp,tp,-32
 2da:	1006                	c.slli	zero,0x21
 2dc:	02000017          	auipc	zero,0x2000
 2e0:	0024                	addi	s1,sp,8
 2e2:	0b3e0b0b          	0xb3e0b0b
 2e6:	00000e03          	lb	t3,0(zero) # 0 <_tbss_end>
 2ea:	0b002403          	lw	s0,176(zero) # b0 <_tbss_end+0xb0>
 2ee:	030b3e0b          	0x30b3e0b
 2f2:	0008                	0x8
 2f4:	0400                	addi	s0,sp,512
 2f6:	0016                	c.slli	zero,0x5
 2f8:	0b3a0e03          	lb	t3,179(s4)
 2fc:	0b390b3b          	0xb390b3b
 300:	1349                	addi	t1,t1,-14
 302:	0000                	unimp
 304:	1605                	addi	a2,a2,-31
 306:	0300                	addi	s0,sp,384
 308:	3a0e                	fld	fs4,224(sp)
 30a:	39053b0b          	0x39053b0b
 30e:	0013490b          	0x13490b
 312:	0600                	addi	s0,sp,768
 314:	0b0b0117          	auipc	sp,0xb0b0
 318:	0b3a                	slli	s6,s6,0xe
 31a:	0b390b3b          	0xb390b3b
 31e:	1301                	addi	t1,t1,-32
 320:	0000                	unimp
 322:	03000d07          	0x3000d07
 326:	3a0e                	fld	fs4,224(sp)
 328:	390b3b0b          	0x390b3b0b
 32c:	0013490b          	0x13490b
 330:	0800                	addi	s0,sp,16
 332:	0101                	addi	sp,sp,0
 334:	1349                	addi	t1,t1,-14
 336:	1301                	addi	t1,t1,-32
 338:	0000                	unimp
 33a:	2109                	jal	73c <_tbss_end+0x73c>
 33c:	4900                	lw	s0,16(a0)
 33e:	000b2f13          	slti	t5,s6,0
 342:	0a00                	addi	s0,sp,272
 344:	0b0b0113          	addi	sp,s6,176
 348:	0b3a                	slli	s6,s6,0xe
 34a:	0b390b3b          	0xb390b3b
 34e:	1301                	addi	t1,t1,-32
 350:	0000                	unimp
 352:	03000d0b          	0x3000d0b
 356:	3a0e                	fld	fs4,224(sp)
 358:	390b3b0b          	0x390b3b0b
 35c:	3813490b          	0x3813490b
 360:	0c00000b          	0xc00000b
 364:	0b0b000f          	0xb0b000f
 368:	0000                	unimp
 36a:	130d                	addi	t1,t1,-29
 36c:	0301                	addi	t1,t1,0
 36e:	0b0e                	slli	s6,s6,0x3
 370:	3b0b3a0b          	0x3b0b3a0b
 374:	010b390b          	0x10b390b
 378:	0e000013          	li	zero,224
 37c:	000d                	c.nop	3
 37e:	0b3a0803          	lb	a6,179(s4)
 382:	0b390b3b          	0xb390b3b
 386:	1349                	addi	t1,t1,-14
 388:	0b38                	addi	a4,sp,408
 38a:	0000                	unimp
 38c:	0b000f0f          	0xb000f0f
 390:	0013490b          	0x13490b
 394:	1000                	addi	s0,sp,32
 396:	0e030113          	addi	sp,t1,224
 39a:	0b3a050b          	0xb3a050b
 39e:	0b390b3b          	0xb390b3b
 3a2:	1301                	addi	t1,t1,-32
 3a4:	0000                	unimp
 3a6:	0d11                	addi	s10,s10,4
 3a8:	0300                	addi	s0,sp,384
 3aa:	3a0e                	fld	fs4,224(sp)
 3ac:	390b3b0b          	0x390b3b0b
 3b0:	3813490b          	0x3813490b
 3b4:	0005                	c.nop	1
 3b6:	1200                	addi	s0,sp,288
 3b8:	0015                	c.nop	5
 3ba:	00001927          	0x1927
 3be:	27011513          	0x27011513
 3c2:	4919                	li	s2,6
 3c4:	00130113          	addi	sp,t1,1
 3c8:	1400                	addi	s0,sp,544
 3ca:	0005                	c.nop	1
 3cc:	1349                	addi	t1,t1,-14
 3ce:	0000                	unimp
 3d0:	2615                	jal	6f4 <_tbss_end+0x6f4>
 3d2:	4900                	lw	s0,16(a0)
 3d4:	16000013          	li	zero,352
 3d8:	0e030113          	addi	sp,t1,224
 3dc:	0b3a050b          	0xb3a050b
 3e0:	0b39053b          	0xb39053b
 3e4:	1301                	addi	t1,t1,-32
 3e6:	0000                	unimp
 3e8:	03000d17          	auipc	s10,0x3000
 3ec:	3a0e                	fld	fs4,224(sp)
 3ee:	39053b0b          	0x39053b0b
 3f2:	3813490b          	0x3813490b
 3f6:	1800000b          	0x1800000b
 3fa:	000d                	c.nop	3
 3fc:	0b3a0e03          	lb	t3,179(s4)
 400:	0b39053b          	0xb39053b
 404:	1349                	addi	t1,t1,-14
 406:	0538                	addi	a4,sp,648
 408:	0000                	unimp
 40a:	1319                	addi	t1,t1,-26
 40c:	0301                	addi	t1,t1,0
 40e:	0b0e                	slli	s6,s6,0x3
 410:	3b0b3a0b          	0x3b0b3a0b
 414:	3905                	jal	44 <_tbss_end+0x44>
 416:	0013010b          	0x13010b
 41a:	1a00                	addi	s0,sp,304
 41c:	0b0b0113          	addi	sp,s6,176
 420:	0b3a                	slli	s6,s6,0xe
 422:	0b39053b          	0xb39053b
 426:	1301                	addi	t1,t1,-32
 428:	0000                	unimp
 42a:	0b01171b          	0xb01171b
 42e:	3b0b3a0b          	0x3b0b3a0b
 432:	3905                	jal	62 <_tbss_end+0x62>
 434:	0013010b          	0x13010b
 438:	1c00                	addi	s0,sp,560
 43a:	000d                	c.nop	3
 43c:	0b3a0e03          	lb	t3,179(s4)
 440:	0b39053b          	0xb39053b
 444:	1349                	addi	t1,t1,-14
 446:	0000                	unimp
 448:	131d                	addi	t1,t1,-25
 44a:	0300                	addi	s0,sp,384
 44c:	3c0e                	fld	fs8,224(sp)
 44e:	0019                	c.nop	6
 450:	1e00                	addi	s0,sp,816
 452:	0115                	addi	sp,sp,5
 454:	13011927          	0x13011927
 458:	0000                	unimp
 45a:	341f 0300 3a0e      	0x3a0e0300341f
 460:	39053b0b          	0x39053b0b
 464:	3f13490b          	0x3f13490b
 468:	3c19                	jal	fffffe7e <__global_pointer$+0x7fffcada>
 46a:	0019                	c.nop	6
 46c:	2000                	fld	fs0,0(s0)
 46e:	0021                	c.nop	8
 470:	0000                	unimp
 472:	3421                	jal	fffffe7a <__global_pointer$+0x7fffcad6>
 474:	0300                	addi	s0,sp,384
 476:	3a0e                	fld	fs4,224(sp)
 478:	390b3b0b          	0x390b3b0b
 47c:	3f13490b          	0x3f13490b
 480:	3c19                	jal	fffffe96 <__global_pointer$+0x7fffcaf2>
 482:	0019                	c.nop	6
 484:	2200                	fld	fs0,0(a2)
 486:	0026                	c.slli	zero,0x9
 488:	0000                	unimp
 48a:	03010423          	sb	a6,40(sp) # b0b033c <_tbss_end+0xb0b033c>
 48e:	3e0e                	fld	ft8,224(sp)
 490:	490b0b0b          	0x490b0b0b
 494:	3b0b3a13          	sltiu	s4,s6,944
 498:	010b390b          	0x10b390b
 49c:	24000013          	li	zero,576
 4a0:	0028                	addi	a0,sp,8
 4a2:	0b1c0e03          	lb	t3,177(s8)
 4a6:	0000                	unimp
 4a8:	0d25                	addi	s10,s10,9
 4aa:	0300                	addi	s0,sp,384
 4ac:	3a08                	fld	fa0,48(a2)
 4ae:	39053b0b          	0x39053b0b
 4b2:	3813490b          	0x3813490b
 4b6:	2600000b          	0x2600000b
 4ba:	000d                	c.nop	3
 4bc:	0b3a0803          	lb	a6,179(s4)
 4c0:	0b39053b          	0xb39053b
 4c4:	1349                	addi	t1,t1,-14
 4c6:	0000                	unimp
 4c8:	3f012e27          	fsw	fa6,1020(sp)
 4cc:	0319                	addi	t1,t1,6
 4ce:	3a0e                	fld	fs4,224(sp)
 4d0:	39053b0b          	0x39053b0b
 4d4:	4919270b          	0x4919270b
 4d8:	12011113          	0x12011113
 4dc:	4006                	0x4006
 4de:	9718                	0x9718
 4e0:	1942                	slli	s2,s2,0x30
 4e2:	1301                	addi	t1,t1,-32
 4e4:	0000                	unimp
 4e6:	0528                	addi	a0,sp,648
 4e8:	0300                	addi	s0,sp,384
 4ea:	3a08                	fld	fa0,48(a2)
 4ec:	39053b0b          	0x39053b0b
 4f0:	0213490b          	0x213490b
 4f4:	29000017          	auipc	zero,0x29000
 4f8:	0034                	addi	a3,sp,8
 4fa:	0b3a0803          	lb	a6,179(s4)
 4fe:	0b39053b          	0xb39053b
 502:	1349                	addi	t1,t1,-14
 504:	1702                	slli	a4,a4,0x20
 506:	0000                	unimp
 508:	1d2a                	slli	s10,s10,0x2a
 50a:	3101                	jal	10a <_tbss_end+0x10a>
 50c:	55015213          	0x55015213
 510:	590b5817          	auipc	a6,0x590b5
 514:	5705                	li	a4,-31
 516:	2b00000b          	0x2b00000b
 51a:	0005                	c.nop	1
 51c:	1331                	addi	t1,t1,-20
 51e:	1702                	slli	a4,a4,0x20
 520:	0000                	unimp
 522:	0b2c                	addi	a1,sp,408
 524:	5501                	li	a0,-32
 526:	2d000017          	auipc	zero,0x2d000
 52a:	0034                	addi	a3,sp,8
 52c:	1331                	addi	t1,t1,-20
 52e:	0000                	unimp
 530:	342e                	fld	fs0,232(sp)
 532:	3100                	fld	fs0,32(a0)
 534:	00170213          	addi	tp,a4,1
 538:	2f00                	fld	fs0,24(a4)
 53a:	1331010b          	0x1331010b
 53e:	1755                	addi	a4,a4,-11
 540:	1301                	addi	t1,t1,-32
 542:	0000                	unimp
 544:	0b30                	addi	a2,sp,408
 546:	3101                	jal	146 <_tbss_end+0x146>
 548:	12011113          	0x12011113
 54c:	0106                	slli	sp,sp,0x1
 54e:	31000013          	li	zero,784
 552:	1331010b          	0x1331010b
 556:	0111                	addi	sp,sp,4
 558:	0612                	slli	a2,a2,0x4
 55a:	0000                	unimp
 55c:	3432                	fld	fs0,296(sp)
 55e:	3100                	fld	fs0,32(a0)
 560:	00180213          	addi	tp,a6,1 # 590b5511 <_tbss_end+0x590b5511>
 564:	3300                	fld	fs0,32(a4)
 566:	012e                	slli	sp,sp,0xb
 568:	0b3a0e03          	lb	t3,179(s4)
 56c:	0b39053b          	0xb39053b
 570:	13491927          	0x13491927
 574:	0b20                	addi	s0,sp,408
 576:	1301                	addi	t1,t1,-32
 578:	0000                	unimp
 57a:	0534                	addi	a3,sp,648
 57c:	0300                	addi	s0,sp,384
 57e:	3a08                	fld	fa0,48(a2)
 580:	39053b0b          	0x39053b0b
 584:	0013490b          	0x13490b
 588:	3500                	fld	fs0,40(a0)
 58a:	0034                	addi	a3,sp,8
 58c:	0b3a0803          	lb	a6,179(s4)
 590:	0b39053b          	0xb39053b
 594:	1349                	addi	t1,t1,-14
 596:	0000                	unimp
 598:	0b36                	slli	s6,s6,0xd
 59a:	0101                	addi	sp,sp,0
 59c:	37000013          	li	zero,880
 5a0:	0034                	addi	a3,sp,8
 5a2:	0b3a0e03          	lb	t3,179(s4)
 5a6:	0b39053b          	0xb39053b
 5aa:	1349                	addi	t1,t1,-14
 5ac:	0000                	unimp
 5ae:	0b38                	addi	a4,sp,408
 5b0:	0001                	nop
 5b2:	0000                	unimp
 5b4:	1101                	addi	sp,sp,-32
 5b6:	2501                	jal	bb6 <_tbss_end+0xbb6>
 5b8:	130e                	slli	t1,t1,0x23
 5ba:	1b0e030b          	0x1b0e030b
 5be:	100e                	c.slli	zero,0x23
 5c0:	02000017          	auipc	zero,0x2000
 5c4:	0024                	addi	s1,sp,8
 5c6:	0b3e0b0b          	0xb3e0b0b
 5ca:	00000803          	lb	a6,0(zero) # 0 <_tbss_end>
 5ce:	0b002403          	lw	s0,176(zero) # b0 <_tbss_end+0xb0>
 5d2:	030b3e0b          	0x30b3e0b
 5d6:	000e                	c.slli	zero,0x3
 5d8:	0400                	addi	s0,sp,512
 5da:	0016                	c.slli	zero,0x5
 5dc:	0b3a0e03          	lb	t3,179(s4)
 5e0:	0b390b3b          	0xb390b3b
 5e4:	1349                	addi	t1,t1,-14
 5e6:	0000                	unimp
 5e8:	1605                	addi	a2,a2,-31
 5ea:	0300                	addi	s0,sp,384
 5ec:	3a0e                	fld	fs4,224(sp)
 5ee:	39053b0b          	0x39053b0b
 5f2:	0013490b          	0x13490b
 5f6:	0600                	addi	s0,sp,768
 5f8:	0b0b0117          	auipc	sp,0xb0b0
 5fc:	0b3a                	slli	s6,s6,0xe
 5fe:	0b390b3b          	0xb390b3b
 602:	1301                	addi	t1,t1,-32
 604:	0000                	unimp
 606:	03000d07          	0x3000d07
 60a:	3a0e                	fld	fs4,224(sp)
 60c:	390b3b0b          	0x390b3b0b
 610:	0013490b          	0x13490b
 614:	0800                	addi	s0,sp,16
 616:	0101                	addi	sp,sp,0
 618:	1349                	addi	t1,t1,-14
 61a:	1301                	addi	t1,t1,-32
 61c:	0000                	unimp
 61e:	2109                	jal	a20 <_tbss_end+0xa20>
 620:	4900                	lw	s0,16(a0)
 622:	000b2f13          	slti	t5,s6,0
 626:	0a00                	addi	s0,sp,272
 628:	0b0b0113          	addi	sp,s6,176
 62c:	0b3a                	slli	s6,s6,0xe
 62e:	0b390b3b          	0xb390b3b
 632:	1301                	addi	t1,t1,-32
 634:	0000                	unimp
 636:	03000d0b          	0x3000d0b
 63a:	3a0e                	fld	fs4,224(sp)
 63c:	390b3b0b          	0x390b3b0b
 640:	3813490b          	0x3813490b
 644:	0c00000b          	0xc00000b
 648:	0b0b000f          	0xb0b000f
 64c:	0000                	unimp
 64e:	130d                	addi	t1,t1,-29
 650:	0301                	addi	t1,t1,0
 652:	0b0e                	slli	s6,s6,0x3
 654:	3b0b3a0b          	0x3b0b3a0b
 658:	010b390b          	0x10b390b
 65c:	0e000013          	li	zero,224
 660:	000d                	c.nop	3
 662:	0b3a0803          	lb	a6,179(s4)
 666:	0b390b3b          	0xb390b3b
 66a:	1349                	addi	t1,t1,-14
 66c:	0b38                	addi	a4,sp,408
 66e:	0000                	unimp
 670:	0b000f0f          	0xb000f0f
 674:	0013490b          	0x13490b
 678:	1000                	addi	s0,sp,32
 67a:	0e030113          	addi	sp,t1,224
 67e:	0b3a050b          	0xb3a050b
 682:	0b390b3b          	0xb390b3b
 686:	1301                	addi	t1,t1,-32
 688:	0000                	unimp
 68a:	0d11                	addi	s10,s10,4
 68c:	0300                	addi	s0,sp,384
 68e:	3a0e                	fld	fs4,224(sp)
 690:	390b3b0b          	0x390b3b0b
 694:	3813490b          	0x3813490b
 698:	0005                	c.nop	1
 69a:	1200                	addi	s0,sp,288
 69c:	0015                	c.nop	5
 69e:	00001927          	0x1927
 6a2:	27011513          	0x27011513
 6a6:	4919                	li	s2,6
 6a8:	00130113          	addi	sp,t1,1
 6ac:	1400                	addi	s0,sp,544
 6ae:	0005                	c.nop	1
 6b0:	1349                	addi	t1,t1,-14
 6b2:	0000                	unimp
 6b4:	2615                	jal	9d8 <_tbss_end+0x9d8>
 6b6:	4900                	lw	s0,16(a0)
 6b8:	16000013          	li	zero,352
 6bc:	0e030113          	addi	sp,t1,224
 6c0:	0b3a050b          	0xb3a050b
 6c4:	0b39053b          	0xb39053b
 6c8:	1301                	addi	t1,t1,-32
 6ca:	0000                	unimp
 6cc:	03000d17          	auipc	s10,0x3000
 6d0:	3a0e                	fld	fs4,224(sp)
 6d2:	39053b0b          	0x39053b0b
 6d6:	3813490b          	0x3813490b
 6da:	1800000b          	0x1800000b
 6de:	000d                	c.nop	3
 6e0:	0b3a0e03          	lb	t3,179(s4)
 6e4:	0b39053b          	0xb39053b
 6e8:	1349                	addi	t1,t1,-14
 6ea:	0538                	addi	a4,sp,648
 6ec:	0000                	unimp
 6ee:	1319                	addi	t1,t1,-26
 6f0:	0301                	addi	t1,t1,0
 6f2:	0b0e                	slli	s6,s6,0x3
 6f4:	3b0b3a0b          	0x3b0b3a0b
 6f8:	3905                	jal	328 <_tbss_end+0x328>
 6fa:	0013010b          	0x13010b
 6fe:	1a00                	addi	s0,sp,304
 700:	0b0b0113          	addi	sp,s6,176
 704:	0b3a                	slli	s6,s6,0xe
 706:	0b39053b          	0xb39053b
 70a:	1301                	addi	t1,t1,-32
 70c:	0000                	unimp
 70e:	0b01171b          	0xb01171b
 712:	3b0b3a0b          	0x3b0b3a0b
 716:	3905                	jal	346 <_tbss_end+0x346>
 718:	0013010b          	0x13010b
 71c:	1c00                	addi	s0,sp,560
 71e:	000d                	c.nop	3
 720:	0b3a0e03          	lb	t3,179(s4)
 724:	0b39053b          	0xb39053b
 728:	1349                	addi	t1,t1,-14
 72a:	0000                	unimp
 72c:	131d                	addi	t1,t1,-25
 72e:	0300                	addi	s0,sp,384
 730:	3c0e                	fld	fs8,224(sp)
 732:	0019                	c.nop	6
 734:	1e00                	addi	s0,sp,816
 736:	0115                	addi	sp,sp,5
 738:	13011927          	0x13011927
 73c:	0000                	unimp
 73e:	341f 0300 3a0e      	0x3a0e0300341f
 744:	39053b0b          	0x39053b0b
 748:	3f13490b          	0x3f13490b
 74c:	3c19                	jal	162 <_tbss_end+0x162>
 74e:	0019                	c.nop	6
 750:	2000                	fld	fs0,0(s0)
 752:	0021                	c.nop	8
 754:	0000                	unimp
 756:	3421                	jal	15e <_tbss_end+0x15e>
 758:	0300                	addi	s0,sp,384
 75a:	3a0e                	fld	fs4,224(sp)
 75c:	390b3b0b          	0x390b3b0b
 760:	3f13490b          	0x3f13490b
 764:	3c19                	jal	17a <_tbss_end+0x17a>
 766:	0019                	c.nop	6
 768:	2200                	fld	fs0,0(a2)
 76a:	0026                	c.slli	zero,0x9
 76c:	0000                	unimp
 76e:	03010423          	sb	a6,40(sp) # b0b0620 <_tbss_end+0xb0b0620>
 772:	3e0e                	fld	ft8,224(sp)
 774:	490b0b0b          	0x490b0b0b
 778:	3b0b3a13          	sltiu	s4,s6,944
 77c:	010b390b          	0x10b390b
 780:	24000013          	li	zero,576
 784:	0028                	addi	a0,sp,8
 786:	0b1c0e03          	lb	t3,177(s8)
 78a:	0000                	unimp
 78c:	3425                	jal	1b4 <_tbss_end+0x1b4>
 78e:	4700                	lw	s0,8(a4)
 790:	3b0b3a13          	sltiu	s4,s6,944
 794:	3905                	jal	3c4 <_tbss_end+0x3c4>
 796:	0018020b          	0x18020b
	...

Disassembly of section .debug_loc:

00000000 <.debug_loc>:
       0:	0000                	unimp
       2:	0000                	unimp
       4:	0054                	addi	a3,sp,4
       6:	0000                	unimp
       8:	0006                	c.slli	zero,0x1
       a:	935a                	add	t1,t1,s6
       c:	5b04                	lw	s1,48(a4)
       e:	00540493          	addi	s1,s0,5 # 25c61 <_tbss_end+0x25c61>
      12:	0000                	unimp
      14:	00c2                	slli	ra,ra,0x10
      16:	0000                	unimp
      18:	0006                	c.slli	zero,0x1
      1a:	0af503f3          	0xaf503f3
      1e:	9f25                	0x9f25
      20:	00c2                	slli	ra,ra,0x10
      22:	0000                	unimp
      24:	0102                	c.slli64	sp
      26:	0000                	unimp
      28:	0006                	c.slli	zero,0x1
      2a:	935a                	add	t1,t1,s6
      2c:	5b04                	lw	s1,48(a4)
      2e:	01020493          	addi	s1,tp,16 # 14c88 <_tbss_end+0x14c88>
      32:	0000                	unimp
      34:	0176                	slli	sp,sp,0x1d
      36:	0000                	unimp
      38:	0006                	c.slli	zero,0x1
      3a:	0af503f3          	0xaf503f3
      3e:	9f25                	0x9f25
      40:	0176                	slli	sp,sp,0x1d
      42:	0000                	unimp
      44:	0198                	addi	a4,sp,192
      46:	0000                	unimp
      48:	0006                	c.slli	zero,0x1
      4a:	935a                	add	t1,t1,s6
      4c:	5b04                	lw	s1,48(a4)
      4e:	01980493          	addi	s1,a6,25
      52:	0000                	unimp
      54:	0214                	addi	a3,sp,256
      56:	0000                	unimp
      58:	0006                	c.slli	zero,0x1
      5a:	0af503f3          	0xaf503f3
      5e:	9f25                	0x9f25
      60:	0214                	addi	a3,sp,256
      62:	0000                	unimp
      64:	0250                	addi	a2,sp,260
      66:	0000                	unimp
      68:	0006                	c.slli	zero,0x1
      6a:	935a                	add	t1,t1,s6
      6c:	5b04                	lw	s1,48(a4)
      6e:	02500493          	li	s1,37
      72:	0000                	unimp
      74:	0256                	slli	tp,tp,0x15
      76:	0000                	unimp
      78:	0006                	c.slli	zero,0x1
      7a:	0af503f3          	0xaf503f3
      7e:	9f25                	0x9f25
      80:	0256                	slli	tp,tp,0x15
      82:	0000                	unimp
      84:	034c                	addi	a1,sp,388
      86:	0000                	unimp
      88:	0006                	c.slli	zero,0x1
      8a:	935a                	add	t1,t1,s6
      8c:	5b04                	lw	s1,48(a4)
      8e:	034c0493          	addi	s1,s8,52
      92:	0000                	unimp
      94:	0358                	addi	a4,sp,388
      96:	0000                	unimp
      98:	0006                	c.slli	zero,0x1
      9a:	0af503f3          	0xaf503f3
      9e:	9f25                	0x9f25
      a0:	0358                	addi	a4,sp,388
      a2:	0000                	unimp
      a4:	035e                	slli	t1,t1,0x17
      a6:	0000                	unimp
      a8:	0006                	c.slli	zero,0x1
      aa:	935a                	add	t1,t1,s6
      ac:	5b04                	lw	s1,48(a4)
      ae:	00000493          	li	s1,0
	...
      ba:	0000                	unimp
      bc:	005c                	addi	a5,sp,4
      be:	0000                	unimp
      c0:	0006                	c.slli	zero,0x1
      c2:	935c                	0x935c
      c4:	5d04                	lw	s1,56(a0)
      c6:	005c0493          	addi	s1,s8,5
      ca:	0000                	unimp
      cc:	00c2                	slli	ra,ra,0x10
      ce:	0000                	unimp
      d0:	0006                	c.slli	zero,0x1
      d2:	0cf503f3          	0xcf503f3
      d6:	9f25                	0x9f25
      d8:	00c2                	slli	ra,ra,0x10
      da:	0000                	unimp
      dc:	0102                	c.slli64	sp
      de:	0000                	unimp
      e0:	0006                	c.slli	zero,0x1
      e2:	935c                	0x935c
      e4:	5d04                	lw	s1,56(a0)
      e6:	01020493          	addi	s1,tp,16 # 10 <_tbss_end+0x10>
      ea:	0000                	unimp
      ec:	0176                	slli	sp,sp,0x1d
      ee:	0000                	unimp
      f0:	0006                	c.slli	zero,0x1
      f2:	0cf503f3          	0xcf503f3
      f6:	9f25                	0x9f25
      f8:	0176                	slli	sp,sp,0x1d
      fa:	0000                	unimp
      fc:	01ae                	slli	gp,gp,0xb
      fe:	0000                	unimp
     100:	0006                	c.slli	zero,0x1
     102:	935c                	0x935c
     104:	5d04                	lw	s1,56(a0)
     106:	01ae0493          	addi	s1,t3,26 # 1a01a <_tbss_end+0x1a01a>
     10a:	0000                	unimp
     10c:	0214                	addi	a3,sp,256
     10e:	0000                	unimp
     110:	0006                	c.slli	zero,0x1
     112:	0cf503f3          	0xcf503f3
     116:	9f25                	0x9f25
     118:	0214                	addi	a3,sp,256
     11a:	0000                	unimp
     11c:	0294                	addi	a3,sp,320
     11e:	0000                	unimp
     120:	0006                	c.slli	zero,0x1
     122:	935c                	0x935c
     124:	5d04                	lw	s1,56(a0)
     126:	02940493          	addi	s1,s0,41
     12a:	0000                	unimp
     12c:	0358                	addi	a4,sp,388
     12e:	0000                	unimp
     130:	0006                	c.slli	zero,0x1
     132:	0cf503f3          	0xcf503f3
     136:	9f25                	0x9f25
     138:	0358                	addi	a4,sp,388
     13a:	0000                	unimp
     13c:	035e                	slli	t1,t1,0x17
     13e:	0000                	unimp
     140:	0006                	c.slli	zero,0x1
     142:	935c                	0x935c
     144:	5d04                	lw	s1,56(a0)
     146:	00000493          	li	s1,0
	...
     152:	0000                	unimp
     154:	0172                	slli	sp,sp,0x1c
     156:	0000                	unimp
     158:	0002                	c.slli64	zero
     15a:	9f30                	0x9f30
     15c:	0176                	slli	sp,sp,0x1d
     15e:	0000                	unimp
     160:	035e                	slli	t1,t1,0x17
     162:	0000                	unimp
     164:	0002                	c.slli64	zero
     166:	9f30                	0x9f30
	...
     174:	001a                	c.slli	zero,0x6
     176:	0000                	unimp
     178:	0006                	c.slli	zero,0x1
     17a:	935c                	0x935c
     17c:	5d04                	lw	s1,56(a0)
     17e:	001a0493          	addi	s1,s4,1
     182:	0000                	unimp
     184:	0028                	addi	a0,sp,8
     186:	0000                	unimp
     188:	0006                	c.slli	zero,0x1
     18a:	935c                	0x935c
     18c:	6104                	flw	fs1,0(a0)
     18e:	00c20493          	addi	s1,tp,12 # c <_tbss_end+0xc>
     192:	0000                	unimp
     194:	00c6                	slli	ra,ra,0x11
     196:	0000                	unimp
     198:	0006                	c.slli	zero,0x1
     19a:	935c                	0x935c
     19c:	6104                	flw	fs1,0(a0)
     19e:	00d00493          	li	s1,13
     1a2:	0000                	unimp
     1a4:	00d4                	addi	a3,sp,68
     1a6:	0000                	unimp
     1a8:	0006                	c.slli	zero,0x1
     1aa:	935c                	0x935c
     1ac:	5d04                	lw	s1,56(a0)
     1ae:	00d40493          	addi	s1,s0,13
     1b2:	0000                	unimp
     1b4:	00e8                	addi	a0,sp,76
     1b6:	0000                	unimp
     1b8:	0006                	c.slli	zero,0x1
     1ba:	935c                	0x935c
     1bc:	6104                	flw	fs1,0(a0)
     1be:	01760493          	addi	s1,a2,23 # 19c65 <_tbss_end+0x19c65>
     1c2:	0000                	unimp
     1c4:	017c                	addi	a5,sp,140
     1c6:	0000                	unimp
     1c8:	0006                	c.slli	zero,0x1
     1ca:	935c                	0x935c
     1cc:	6104                	flw	fs1,0(a0)
     1ce:	02140493          	addi	s1,s0,33
     1d2:	0000                	unimp
     1d4:	026c                	addi	a1,sp,268
     1d6:	0000                	unimp
     1d8:	0006                	c.slli	zero,0x1
     1da:	935c                	0x935c
     1dc:	5d04                	lw	s1,56(a0)
     1de:	026c0493          	addi	s1,s8,38
     1e2:	0000                	unimp
     1e4:	027a                	slli	tp,tp,0x1e
     1e6:	0000                	unimp
     1e8:	0006                	c.slli	zero,0x1
     1ea:	935c                	0x935c
     1ec:	6104                	flw	fs1,0(a0)
     1ee:	03580493          	addi	s1,a6,53
     1f2:	0000                	unimp
     1f4:	035e                	slli	t1,t1,0x17
     1f6:	0000                	unimp
     1f8:	0006                	c.slli	zero,0x1
     1fa:	935c                	0x935c
     1fc:	5d04                	lw	s1,56(a0)
     1fe:	00000493          	li	s1,0
	...
     20a:	0000                	unimp
     20c:	004c                	addi	a1,sp,4
     20e:	0000                	unimp
     210:	0006                	c.slli	zero,0x1
     212:	935a                	add	t1,t1,s6
     214:	5b04                	lw	s1,48(a4)
     216:	00c20493          	addi	s1,tp,12 # c <_tbss_end+0xc>
     21a:	0000                	unimp
     21c:	0102                	c.slli64	sp
     21e:	0000                	unimp
     220:	0006                	c.slli	zero,0x1
     222:	9356                	add	t1,t1,s5
     224:	5b04                	lw	s1,48(a4)
     226:	01760493          	addi	s1,a2,23
     22a:	0000                	unimp
     22c:	018c                	addi	a1,sp,192
     22e:	0000                	unimp
     230:	0006                	c.slli	zero,0x1
     232:	9356                	add	t1,t1,s5
     234:	5b04                	lw	s1,48(a4)
     236:	018c0493          	addi	s1,s8,24
     23a:	0000                	unimp
     23c:	0190                	addi	a2,sp,192
     23e:	0000                	unimp
     240:	0006                	c.slli	zero,0x1
     242:	9356                	add	t1,t1,s5
     244:	5f04                	lw	s1,56(a4)
     246:	01900493          	li	s1,25
     24a:	0000                	unimp
     24c:	0198                	addi	a4,sp,192
     24e:	0000                	unimp
     250:	0006                	c.slli	zero,0x1
     252:	935a                	add	t1,t1,s6
     254:	5f04                	lw	s1,56(a4)
     256:	02140493          	addi	s1,s0,33
     25a:	0000                	unimp
     25c:	0228                	addi	a0,sp,264
     25e:	0000                	unimp
     260:	0006                	c.slli	zero,0x1
     262:	9356                	add	t1,t1,s5
     264:	5b04                	lw	s1,48(a4)
     266:	02280493          	addi	s1,a6,34
     26a:	0000                	unimp
     26c:	0256                	slli	tp,tp,0x15
     26e:	0000                	unimp
     270:	0006                	c.slli	zero,0x1
     272:	9356                	add	t1,t1,s5
     274:	5f04                	lw	s1,56(a4)
     276:	02560493          	addi	s1,a2,37
     27a:	0000                	unimp
     27c:	025a                	slli	tp,tp,0x16
     27e:	0000                	unimp
     280:	0006                	c.slli	zero,0x1
     282:	9356                	add	t1,t1,s5
     284:	5b04                	lw	s1,48(a4)
     286:	025a0493          	addi	s1,s4,37
     28a:	0000                	unimp
     28c:	027e                	slli	tp,tp,0x1f
     28e:	0000                	unimp
     290:	0006                	c.slli	zero,0x1
     292:	9356                	add	t1,t1,s5
     294:	5f04                	lw	s1,56(a4)
     296:	03580493          	addi	s1,a6,53
     29a:	0000                	unimp
     29c:	035a                	slli	t1,t1,0x16
     29e:	0000                	unimp
     2a0:	0006                	c.slli	zero,0x1
     2a2:	9356                	add	t1,t1,s5
     2a4:	5b04                	lw	s1,48(a4)
     2a6:	035a0493          	addi	s1,s4,53
     2aa:	0000                	unimp
     2ac:	035e                	slli	t1,t1,0x17
     2ae:	0000                	unimp
     2b0:	0006                	c.slli	zero,0x1
     2b2:	9356                	add	t1,t1,s5
     2b4:	5f04                	lw	s1,56(a4)
     2b6:	00000493          	li	s1,0
     2ba:	0000                	unimp
     2bc:	0000                	unimp
     2be:	0000                	unimp
     2c0:	0004                	0x4
     2c2:	0000                	unimp
     2c4:	003c                	addi	a5,sp,8
     2c6:	0000                	unimp
     2c8:	0001                	nop
     2ca:	3c5c                	fld	fa5,184(s0)
     2cc:	0000                	unimp
     2ce:	4800                	lw	s0,16(s0)
     2d0:	0000                	unimp
     2d2:	0900                	addi	s0,sp,144
     2d4:	7c00                	flw	fs0,56(s0)
     2d6:	7e00                	flw	fs0,56(a2)
     2d8:	0800                	addi	s0,sp,16
     2da:	1aff                	0x1aff
     2dc:	9f24                	0x9f24
     2de:	0048                	addi	a0,sp,4
     2e0:	0000                	unimp
     2e2:	00be                	slli	ra,ra,0xf
     2e4:	0000                	unimp
     2e6:	0001                	nop
     2e8:	c260                	sw	s0,68(a2)
     2ea:	0000                	unimp
     2ec:	d400                	sw	s0,40(s0)
     2ee:	0000                	unimp
     2f0:	0100                	addi	s0,sp,128
     2f2:	5c00                	lw	s0,56(s0)
     2f4:	00d4                	addi	a3,sp,68
     2f6:	0000                	unimp
     2f8:	00d8                	addi	a4,sp,68
     2fa:	0000                	unimp
     2fc:	f731000b          	0xf731000b
     300:	7c2c                	flw	fa1,120(s0)
     302:	f700                	fsw	fs0,40(a4)
     304:	1b2c                	addi	a1,sp,440
     306:	d89f00f7          	0xd89f00f7
     30a:	0000                	unimp
     30c:	7200                	flw	fs0,32(a2)
     30e:	0001                	nop
     310:	0100                	addi	s0,sp,128
     312:	6000                	flw	fs0,0(s0)
     314:	0176                	slli	sp,sp,0x1d
     316:	0000                	unimp
     318:	0184                	addi	s1,sp,192
     31a:	0000                	unimp
     31c:	0001                	nop
     31e:	8460                	0x8460
     320:	0001                	nop
     322:	8800                	0x8800
     324:	0001                	nop
     326:	0900                	addi	s0,sp,144
     328:	8000                	0x8000
     32a:	7e00                	flw	fs0,56(a2)
     32c:	0800                	addi	s0,sp,16
     32e:	1aff                	0x1aff
     330:	9f24                	0x9f24
     332:	0188                	addi	a0,sp,192
     334:	0000                	unimp
     336:	0214                	addi	a3,sp,256
     338:	0000                	unimp
     33a:	0001                	nop
     33c:	1460                	addi	s0,sp,556
     33e:	0002                	c.slli64	zero
     340:	1000                	addi	s0,sp,32
     342:	01000003          	lb	zero,16(zero) # 10 <_tbss_end+0x10>
     346:	5c00                	lw	s0,56(s0)
     348:	0358                	addi	a4,sp,388
     34a:	0000                	unimp
     34c:	035e                	slli	t1,t1,0x17
     34e:	0000                	unimp
     350:	0001                	nop
     352:	005c                	addi	a5,sp,4
     354:	0000                	unimp
     356:	0000                	unimp
     358:	0000                	unimp
     35a:	0600                	addi	s0,sp,768
     35c:	0000                	unimp
     35e:	1a00                	addi	s0,sp,304
     360:	0000                	unimp
     362:	0100                	addi	s0,sp,128
     364:	5d00                	lw	s0,56(a0)
     366:	001a                	c.slli	zero,0x6
     368:	0000                	unimp
     36a:	0028                	addi	a0,sp,8
     36c:	0000                	unimp
     36e:	0001                	nop
     370:	c261                	beqz	a2,430 <_tbss_end+0x430>
     372:	0000                	unimp
     374:	c600                	sw	s0,8(a2)
     376:	0000                	unimp
     378:	0100                	addi	s0,sp,128
     37a:	6100                	flw	fs0,0(a0)
     37c:	00d0                	addi	a2,sp,68
     37e:	0000                	unimp
     380:	00d4                	addi	a3,sp,68
     382:	0000                	unimp
     384:	0001                	nop
     386:	d45d                	beqz	s0,334 <_tbss_end+0x334>
     388:	0000                	unimp
     38a:	e800                	fsw	fs0,16(s0)
     38c:	0000                	unimp
     38e:	0100                	addi	s0,sp,128
     390:	6100                	flw	fs0,0(a0)
     392:	0176                	slli	sp,sp,0x1d
     394:	0000                	unimp
     396:	017c                	addi	a5,sp,140
     398:	0000                	unimp
     39a:	0001                	nop
     39c:	1461                	addi	s0,s0,-8
     39e:	0002                	c.slli64	zero
     3a0:	6c00                	flw	fs0,24(s0)
     3a2:	0002                	c.slli64	zero
     3a4:	0100                	addi	s0,sp,128
     3a6:	5d00                	lw	s0,56(a0)
     3a8:	026c                	addi	a1,sp,268
     3aa:	0000                	unimp
     3ac:	026e                	slli	tp,tp,0x1b
     3ae:	0000                	unimp
     3b0:	0001                	nop
     3b2:	6e61                	lui	t3,0x18
     3b4:	0002                	c.slli64	zero
     3b6:	1c00                	addi	s0,sp,560
     3b8:	01000003          	lb	zero,16(zero) # 10 <_tbss_end+0x10>
     3bc:	5d00                	lw	s0,56(a0)
     3be:	0358                	addi	a4,sp,388
     3c0:	0000                	unimp
     3c2:	035e                	slli	t1,t1,0x17
     3c4:	0000                	unimp
     3c6:	0001                	nop
     3c8:	005d                	c.nop	23
     3ca:	0000                	unimp
     3cc:	0000                	unimp
     3ce:	0000                	unimp
     3d0:	0800                	addi	s0,sp,16
     3d2:	0000                	unimp
     3d4:	5000                	lw	s0,32(s0)
     3d6:	0000                	unimp
     3d8:	0100                	addi	s0,sp,128
     3da:	5a00                	lw	s0,48(a2)
     3dc:	0050                	addi	a2,sp,4
     3de:	0000                	unimp
     3e0:	0090                	addi	a2,sp,64
     3e2:	0000                	unimp
     3e4:	0001                	nop
     3e6:	c256                	sw	s5,4(sp)
     3e8:	0000                	unimp
     3ea:	4400                	lw	s0,8(s0)
     3ec:	0001                	nop
     3ee:	0100                	addi	s0,sp,128
     3f0:	5600                	lw	s0,40(a2)
     3f2:	0176                	slli	sp,sp,0x1d
     3f4:	0000                	unimp
     3f6:	0190                	addi	a2,sp,192
     3f8:	0000                	unimp
     3fa:	0001                	nop
     3fc:	9056                	c.add	zero,s5
     3fe:	0001                	nop
     400:	9800                	0x9800
     402:	0001                	nop
     404:	0100                	addi	s0,sp,128
     406:	5a00                	lw	s0,48(a2)
     408:	01a4                	addi	s1,sp,200
     40a:	0000                	unimp
     40c:	0286                	slli	t0,t0,0x1
     40e:	0000                	unimp
     410:	0001                	nop
     412:	8656                	mv	a2,s5
     414:	0002                	c.slli64	zero
     416:	9400                	0x9400
     418:	0002                	c.slli64	zero
     41a:	0100                	addi	s0,sp,128
     41c:	5a00                	lw	s0,48(a2)
     41e:	0294                	addi	a3,sp,320
     420:	0000                	unimp
     422:	034c                	addi	a1,sp,388
     424:	0000                	unimp
     426:	0006                	c.slli	zero,0x1
     428:	007a                	c.slli	zero,0x1e
     42a:	9f24007b          	0x9f24007b
     42e:	0358                	addi	a4,sp,388
     430:	0000                	unimp
     432:	035e                	slli	t1,t1,0x17
     434:	0000                	unimp
     436:	0001                	nop
     438:	0056                	c.slli	zero,0x15
     43a:	0000                	unimp
     43c:	0000                	unimp
     43e:	0000                	unimp
     440:	0800                	addi	s0,sp,16
     442:	0000                	unimp
     444:	6600                	flw	fs0,8(a2)
     446:	0000                	unimp
     448:	0100                	addi	s0,sp,128
     44a:	5b00                	lw	s0,48(a4)
     44c:	00c2                	slli	ra,ra,0x10
     44e:	0000                	unimp
     450:	0100                	addi	s0,sp,128
     452:	0000                	unimp
     454:	0001                	nop
     456:	0001005b          	0x1005b
     45a:	1a00                	addi	s0,sp,304
     45c:	0001                	nop
     45e:	0100                	addi	s0,sp,128
     460:	5f00                	lw	s0,56(a4)
     462:	0176                	slli	sp,sp,0x1d
     464:	0000                	unimp
     466:	018c                	addi	a1,sp,192
     468:	0000                	unimp
     46a:	0001                	nop
     46c:	00018c5b          	0x18c5b
     470:	9c00                	0x9c00
     472:	0001                	nop
     474:	0100                	addi	s0,sp,128
     476:	5f00                	lw	s0,56(a4)
     478:	01a4                	addi	s1,sp,200
     47a:	0000                	unimp
     47c:	01de                	slli	gp,gp,0x17
     47e:	0000                	unimp
     480:	0001                	nop
     482:	1261                	addi	tp,tp,-8
     484:	0002                	c.slli64	zero
     486:	1400                	addi	s0,sp,544
     488:	0002                	c.slli64	zero
     48a:	0100                	addi	s0,sp,128
     48c:	5f00                	lw	s0,56(a4)
     48e:	0214                	addi	a3,sp,256
     490:	0000                	unimp
     492:	0228                	addi	a0,sp,264
     494:	0000                	unimp
     496:	0001                	nop
     498:	0002285b          	0x2285b
     49c:	5600                	lw	s0,40(a2)
     49e:	0002                	c.slli64	zero
     4a0:	0100                	addi	s0,sp,128
     4a2:	5f00                	lw	s0,56(a4)
     4a4:	0256                	slli	tp,tp,0x15
     4a6:	0000                	unimp
     4a8:	025a                	slli	tp,tp,0x16
     4aa:	0000                	unimp
     4ac:	0001                	nop
     4ae:	00025a5b          	0x25a5b
     4b2:	7e00                	flw	fs0,56(a2)
     4b4:	0002                	c.slli64	zero
     4b6:	0100                	addi	s0,sp,128
     4b8:	5f00                	lw	s0,56(a4)
     4ba:	0294                	addi	a3,sp,320
     4bc:	0000                	unimp
     4be:	02fe                	slli	t0,t0,0x1f
     4c0:	0000                	unimp
     4c2:	0001                	nop
     4c4:	fe56                	fsw	fs5,60(sp)
     4c6:	0002                	c.slli64	zero
     4c8:	3e00                	fld	fs0,56(a2)
     4ca:	01000003          	lb	zero,16(zero) # 10 <_tbss_end+0x10>
     4ce:	5f00                	lw	s0,56(a4)
     4d0:	0358                	addi	a4,sp,388
     4d2:	0000                	unimp
     4d4:	035a                	slli	t1,t1,0x16
     4d6:	0000                	unimp
     4d8:	0001                	nop
     4da:	00035a5b          	0x35a5b
     4de:	5e00                	lw	s0,56(a2)
     4e0:	01000003          	lb	zero,16(zero) # 10 <_tbss_end+0x10>
     4e4:	5f00                	lw	s0,56(a4)
	...
     4ee:	018c                	addi	a1,sp,192
     4f0:	0000                	unimp
     4f2:	01b2                	slli	gp,gp,0xc
     4f4:	0000                	unimp
     4f6:	0001                	nop
     4f8:	0002945b          	0x2945b
     4fc:	9800                	0x9800
     4fe:	0002                	c.slli64	zero
     500:	0100                	addi	s0,sp,128
     502:	5e00                	lw	s0,56(a2)
	...
     50c:	00be                	slli	ra,ra,0xf
     50e:	0000                	unimp
     510:	00c2                	slli	ra,ra,0x10
     512:	0000                	unimp
     514:	0001                	nop
     516:	fe5e                	fsw	fs7,60(sp)
     518:	0002                	c.slli64	zero
     51a:	5800                	lw	s0,48(s0)
     51c:	01000003          	lb	zero,16(zero) # 10 <_tbss_end+0x10>
     520:	5e00                	lw	s0,56(a2)
	...
     52a:	0100                	addi	s0,sp,128
     52c:	0000                	unimp
     52e:	0102                	c.slli64	sp
     530:	0000                	unimp
     532:	0002                	c.slli64	zero
     534:	9f31                	0x9f31
     536:	0102                	c.slli64	sp
     538:	0000                	unimp
     53a:	0172                	slli	sp,sp,0x1c
     53c:	0000                	unimp
     53e:	0001                	nop
     540:	0002125b          	0x2125b
     544:	1400                	addi	s0,sp,544
     546:	0002                	c.slli64	zero
     548:	0100                	addi	s0,sp,128
     54a:	5b00                	lw	s0,48(a4)
	...
     554:	0184                	addi	s1,sp,192
     556:	0000                	unimp
     558:	0194                	addi	a3,sp,192
     55a:	0000                	unimp
     55c:	0001                	nop
     55e:	645d                	lui	s0,0x17
     560:	0002                	c.slli64	zero
     562:	8200                	0x8200
     564:	0002                	c.slli64	zero
     566:	0100                	addi	s0,sp,128
     568:	6000                	flw	fs0,0(s0)
	...
     572:	003a                	c.slli	zero,0xe
     574:	0000                	unimp
     576:	0058                	addi	a4,sp,4
     578:	0000                	unimp
     57a:	0001                	nop
     57c:	fa5e                	fsw	fs7,52(sp)
     57e:	0000                	unimp
     580:	0200                	addi	s0,sp,256
     582:	0001                	nop
     584:	0100                	addi	s0,sp,128
     586:	5e00                	lw	s0,56(a2)
     588:	0184                	addi	s1,sp,192
     58a:	0000                	unimp
     58c:	01a0                	addi	s0,sp,200
     58e:	0000                	unimp
     590:	0001                	nop
     592:	445e                	lw	s0,212(sp)
     594:	0002                	c.slli64	zero
     596:	5600                	lw	s0,40(a2)
     598:	0002                	c.slli64	zero
     59a:	0100                	addi	s0,sp,128
     59c:	5b00                	lw	s0,48(a4)
     59e:	0264                	addi	s1,sp,268
     5a0:	0000                	unimp
     5a2:	0350                	addi	a2,sp,388
     5a4:	0000                	unimp
     5a6:	0001                	nop
     5a8:	0000005b          	0x5b
     5ac:	0000                	unimp
     5ae:	0000                	unimp
     5b0:	1800                	addi	s0,sp,48
     5b2:	0000                	unimp
     5b4:	3c00                	fld	fs0,56(s0)
     5b6:	0000                	unimp
     5b8:	0100                	addi	s0,sp,128
     5ba:	5c00                	lw	s0,56(s0)
     5bc:	003c                	addi	a5,sp,8
     5be:	0000                	unimp
     5c0:	0048                	addi	a0,sp,4
     5c2:	0000                	unimp
     5c4:	0009                	c.nop	2
     5c6:	007c                	addi	a5,sp,12
     5c8:	007e                	c.slli	zero,0x1f
     5ca:	ff08                	fsw	fa0,56(a4)
     5cc:	241a                	fld	fs0,384(sp)
     5ce:	489f 0000 be00      	0xbe000000489f
     5d4:	0000                	unimp
     5d6:	0100                	addi	s0,sp,128
     5d8:	6000                	flw	fs0,0(s0)
     5da:	00c2                	slli	ra,ra,0x10
     5dc:	0000                	unimp
     5de:	00d0                	addi	a2,sp,68
     5e0:	0000                	unimp
     5e2:	0001                	nop
     5e4:	005c                	addi	a5,sp,4
     5e6:	0000                	unimp
     5e8:	0000                	unimp
     5ea:	0000                	unimp
     5ec:	2800                	fld	fs0,16(s0)
     5ee:	0000                	unimp
     5f0:	3400                	fld	fs0,40(s0)
     5f2:	0000                	unimp
     5f4:	0100                	addi	s0,sp,128
     5f6:	5d00                	lw	s0,56(a0)
	...
     600:	0054                	addi	a3,sp,4
     602:	0000                	unimp
     604:	00a4                	addi	s1,sp,72
     606:	0000                	unimp
     608:	0001                	nop
     60a:	a45a                	fsd	fs6,8(sp)
     60c:	0000                	unimp
     60e:	be00                	fsd	fs0,56(a2)
     610:	0000                	unimp
     612:	0500                	addi	s0,sp,640
     614:	8000                	0x8000
     616:	4000                	lw	s0,0(s0)
     618:	9f25                	0x9f25
	...
     622:	005e                	c.slli	zero,0x17
     624:	0000                	unimp
     626:	00be                	slli	ra,ra,0xf
     628:	0000                	unimp
     62a:	0001                	nop
     62c:	005c                	addi	a5,sp,4
     62e:	0000                	unimp
     630:	0000                	unimp
     632:	0000                	unimp
     634:	6600                	flw	fs0,8(a2)
     636:	0000                	unimp
     638:	7a00                	flw	fs0,48(a2)
     63a:	0000                	unimp
     63c:	0100                	addi	s0,sp,128
     63e:	5b00                	lw	s0,48(a4)
     640:	007a                	c.slli	zero,0x1e
     642:	0000                	unimp
     644:	00bc                	addi	a5,sp,72
     646:	0000                	unimp
     648:	0001                	nop
     64a:	005e                	c.slli	zero,0x17
     64c:	0000                	unimp
     64e:	0000                	unimp
     650:	0000                	unimp
     652:	9800                	0x9800
     654:	0000                	unimp
     656:	ae00                	fsd	fs0,24(a2)
     658:	0000                	unimp
     65a:	0100                	addi	s0,sp,128
     65c:	5d00                	lw	s0,56(a0)
     65e:	00ae                	slli	ra,ra,0xb
     660:	0000                	unimp
     662:	00be                	slli	ra,ra,0xf
     664:	0000                	unimp
     666:	0001                	nop
     668:	005a                	c.slli	zero,0x16
     66a:	0000                	unimp
     66c:	0000                	unimp
     66e:	0000                	unimp
     670:	5e00                	lw	s0,56(a2)
     672:	0000                	unimp
     674:	6800                	flw	fs0,16(s0)
     676:	0000                	unimp
     678:	0100                	addi	s0,sp,128
     67a:	5e00                	lw	s0,56(a2)
     67c:	006e                	c.slli	zero,0x1b
     67e:	0000                	unimp
     680:	0076                	c.slli	zero,0x1d
     682:	0000                	unimp
     684:	0001                	nop
     686:	7a5d                	lui	s4,0xffff7
     688:	0000                	unimp
     68a:	9800                	0x9800
     68c:	0000                	unimp
     68e:	0100                	addi	s0,sp,128
     690:	5d00                	lw	s0,56(a0)
	...
     69a:	008e                	slli	ra,ra,0x3
     69c:	0000                	unimp
     69e:	009a                	slli	ra,ra,0x6
     6a0:	0000                	unimp
     6a2:	0001                	nop
     6a4:	a25f 0000 aa00      	0xaa000000a25f
     6aa:	0000                	unimp
     6ac:	0100                	addi	s0,sp,128
     6ae:	5600                	lw	s0,40(a2)
	...
     6b8:	006e                	c.slli	zero,0x1b
     6ba:	0000                	unimp
     6bc:	008e                	slli	ra,ra,0x3
     6be:	0000                	unimp
     6c0:	0001                	nop
     6c2:	8e5f 0000 a200      	0xa20000008e5f
     6c8:	0000                	unimp
     6ca:	0600                	addi	s0,sp,768
     6cc:	7c00                	flw	fs0,56(s0)
     6ce:	7b00                	flw	fs0,48(a4)
     6d0:	1e00                	addi	s0,sp,816
     6d2:	a29f 0000 be00      	0xbe000000a29f
     6d8:	0000                	unimp
     6da:	0100                	addi	s0,sp,128
     6dc:	5b00                	lw	s0,48(a4)
	...
     6e6:	0334                	addi	a3,sp,392
     6e8:	0000                	unimp
     6ea:	0356                	slli	t1,t1,0x15
     6ec:	0000                	unimp
     6ee:	0001                	nop
     6f0:	0061                	c.nop	24
     6f2:	0000                	unimp
     6f4:	0000                	unimp
     6f6:	0000                	unimp
     6f8:	3400                	fld	fs0,40(s0)
     6fa:	42000003          	lb	zero,1056(zero) # 420 <_tbss_end+0x420>
     6fe:	10000003          	lb	zero,256(zero) # 100 <_tbss_end+0x100>
     702:	8c00                	0x8c00
     704:	0a00                	addi	s0,sp,272
     706:	ffff                	0xffff
     708:	7d1a                	flw	fs10,164(sp)
     70a:	0a00                	addi	s0,sp,272
     70c:	ffff                	0xffff
     70e:	401a                	0x401a
     710:	2224                	fld	fs1,64(a2)
     712:	429f 0003 4800      	0x48000003429f
     718:	15000003          	lb	zero,336(zero) # 150 <_tbss_end+0x150>
     71c:	8c00                	0x8c00
     71e:	0a00                	addi	s0,sp,272
     720:	ffff                	0xffff
     722:	8c1a                	mv	s8,t1
     724:	4000                	lw	s0,0(s0)
     726:	7625                	lui	a2,0xfffe9
     728:	2200                	fld	fs0,0(a2)
     72a:	ff0a                	fsw	ft2,188(sp)
     72c:	1aff                	0x1aff
     72e:	2440                	fld	fs0,136(s0)
     730:	9f22                	add	t5,t5,s0
	...
     73a:	0294                	addi	a3,sp,320
     73c:	0000                	unimp
     73e:	02ce                	slli	t0,t0,0x13
     740:	0000                	unimp
     742:	0001                	nop
     744:	ce6d                	beqz	a2,83e <_tbss_end+0x83e>
     746:	0002                	c.slli64	zero
     748:	1c00                	addi	s0,sp,560
     74a:	05000003          	lb	zero,80(zero) # 50 <_tbss_end+0x50>
     74e:	7d00                	flw	fs0,56(a0)
     750:	4000                	lw	s0,0(s0)
     752:	9f25                	0x9f25
	...
     75c:	0294                	addi	a3,sp,320
     75e:	0000                	unimp
     760:	02d2                	slli	t0,t0,0x14
     762:	0000                	unimp
     764:	0001                	nop
     766:	d25f 0002 1c00      	0x1c000002d25f
     76c:	07000003          	lb	zero,112(zero) # 70 <_tbss_end+0x70>
     770:	7d00                	flw	fs0,56(a0)
     772:	4000                	lw	s0,0(s0)
     774:	4024                	lw	s1,64(s0)
     776:	9f25                	0x9f25
	...
     780:	0298                	addi	a4,sp,320
     782:	0000                	unimp
     784:	02ae                	slli	t0,t0,0xb
     786:	0000                	unimp
     788:	0001                	nop
     78a:	ae5e                	fsd	fs7,280(sp)
     78c:	0002                	c.slli64	zero
     78e:	f400                	fsw	fs0,40(s0)
     790:	0002                	c.slli64	zero
     792:	0100                	addi	s0,sp,128
     794:	6c00                	flw	fs0,24(s0)
	...
     79e:	02c8                	addi	a0,sp,324
     7a0:	0000                	unimp
     7a2:	02e4                	addi	s1,sp,332
     7a4:	0000                	unimp
     7a6:	0001                	nop
     7a8:	e460                	fsw	fs0,76(s0)
     7aa:	0002                	c.slli64	zero
     7ac:	fe00                	fsw	fs0,56(a2)
     7ae:	0002                	c.slli64	zero
     7b0:	0100                	addi	s0,sp,128
     7b2:	5e00                	lw	s0,56(a2)
	...
     7bc:	0294                	addi	a3,sp,320
     7be:	0000                	unimp
     7c0:	029a                	slli	t0,t0,0x6
     7c2:	0000                	unimp
     7c4:	0001                	nop
     7c6:	a261                	j	94e <_tbss_end+0x94e>
     7c8:	0002                	c.slli64	zero
     7ca:	aa00                	fsd	fs0,16(a2)
     7cc:	0002                	c.slli64	zero
     7ce:	0100                	addi	s0,sp,128
     7d0:	6000                	flw	fs0,0(s0)
     7d2:	02aa                	slli	t0,t0,0xa
     7d4:	0000                	unimp
     7d6:	02ae                	slli	t0,t0,0xb
     7d8:	0000                	unimp
     7da:	0008                	0x8
     7dc:	0076                	c.slli	zero,0x1d
     7de:	2540                	fld	fs0,136(a0)
     7e0:	0081                	addi	ra,ra,0
     7e2:	9f21                	0x9f21
     7e4:	02ae                	slli	t0,t0,0xb
     7e6:	0000                	unimp
     7e8:	02c8                	addi	a0,sp,324
     7ea:	0000                	unimp
     7ec:	0001                	nop
     7ee:	0060                	addi	s0,sp,12
     7f0:	0000                	unimp
     7f2:	0000                	unimp
     7f4:	0000                	unimp
     7f6:	c400                	sw	s0,8(s0)
     7f8:	0002                	c.slli64	zero
     7fa:	ca00                	sw	s0,16(a2)
     7fc:	0002                	c.slli64	zero
     7fe:	0100                	addi	s0,sp,128
     800:	6100                	flw	fs0,0(a0)
     802:	02d8                	addi	a4,sp,324
     804:	0000                	unimp
     806:	02e0                	addi	s0,sp,332
     808:	0000                	unimp
     80a:	0001                	nop
     80c:	e05f 0002 e400      	0xe4000002e05f
     812:	0002                	c.slli64	zero
     814:	0a00                	addi	s0,sp,272
     816:	7600                	flw	fs0,40(a2)
     818:	4000                	lw	s0,0(s0)
     81a:	4024                	lw	s1,64(s0)
     81c:	8125                	srli	a0,a0,0x9
     81e:	2100                	fld	fs0,0(a0)
     820:	e49f 0002 3e00      	0x3e000002e49f
     826:	01000003          	lb	zero,16(zero) # 10 <_tbss_end+0x10>
     82a:	5f00                	lw	s0,56(a4)
	...
     834:	02a2                	slli	t0,t0,0x8
     836:	0000                	unimp
     838:	02ce                	slli	t0,t0,0x13
     83a:	0000                	unimp
     83c:	0001                	nop
     83e:	ce6e                	sw	s11,28(sp)
     840:	0002                	c.slli64	zero
     842:	fa00                	fsw	fs0,48(a2)
     844:	0002                	c.slli64	zero
     846:	0100                	addi	s0,sp,128
     848:	6d00                	flw	fs0,24(a0)
     84a:	02fa                	slli	t0,t0,0x1e
     84c:	0000                	unimp
     84e:	0302                	c.slli64	t1
     850:	0000                	unimp
     852:	000a                	c.slli	zero,0x2
     854:	007d                	c.nop	31
     856:	2440                	fld	fs0,136(s0)
     858:	2540                	fld	fs0,136(a0)
     85a:	0080                	addi	s0,sp,64
     85c:	9f1e                	add	t5,t5,t2
	...
     866:	0314                	addi	a3,sp,384
     868:	0000                	unimp
     86a:	0348                	addi	a0,sp,388
     86c:	0000                	unimp
     86e:	0001                	nop
     870:	006c                	addi	a1,sp,12
     872:	0000                	unimp
     874:	0000                	unimp
     876:	0000                	unimp
     878:	1400                	addi	s0,sp,544
     87a:	20000003          	lb	zero,512(zero) # 200 <_tbss_end+0x200>
     87e:	06000003          	lb	zero,96(zero) # 60 <_tbss_end+0x60>
     882:	7600                	flw	fs0,40(a2)
     884:	7c00                	flw	fs0,56(s0)
     886:	1e00                	addi	s0,sp,816
     888:	209f 0003 2200      	0x22000003209f
     88e:	01000003          	lb	zero,16(zero) # 10 <_tbss_end+0x10>
     892:	5600                	lw	s0,40(a2)
     894:	0322                	slli	t1,t1,0x8
     896:	0000                	unimp
     898:	0328                	addi	a0,sp,392
     89a:	0000                	unimp
     89c:	0009                	c.nop	2
     89e:	7f8d                	lui	t6,0xfffe3
     8a0:	007e                	c.slli	zero,0x1f
     8a2:	7c1a                	flw	fs8,164(sp)
     8a4:	1e00                	addi	s0,sp,816
     8a6:	289f 0003 4200      	0x42000003289f
     8ac:	01000003          	lb	zero,16(zero) # 10 <_tbss_end+0x10>
     8b0:	5d00                	lw	s0,56(a0)
     8b2:	0342                	slli	t1,t1,0x10
     8b4:	0000                	unimp
     8b6:	0348                	addi	a0,sp,388
     8b8:	0000                	unimp
     8ba:	0008                	0x8
     8bc:	008c                	addi	a1,sp,64
     8be:	2540                	fld	fs0,136(a0)
     8c0:	0076                	c.slli	zero,0x1d
     8c2:	9f22                	add	t5,t5,s0
	...
     8cc:	0318                	addi	a4,sp,384
     8ce:	0000                	unimp
     8d0:	0358                	addi	a4,sp,388
     8d2:	0000                	unimp
     8d4:	0001                	nop
     8d6:	0060                	addi	s0,sp,12
     8d8:	0000                	unimp
     8da:	0000                	unimp
     8dc:	0000                	unimp
     8de:	2800                	fld	fs0,16(s0)
     8e0:	34000003          	lb	zero,832(zero) # 340 <_tbss_end+0x340>
     8e4:	01000003          	lb	zero,16(zero) # 10 <_tbss_end+0x10>
     8e8:	6100                	flw	fs0,0(a0)
	...
     8f2:	0306                	slli	t1,t1,0x1
     8f4:	0000                	unimp
     8f6:	0320                	addi	s0,sp,392
     8f8:	0000                	unimp
     8fa:	0001                	nop
     8fc:	2056                	fld	ft0,336(sp)
     8fe:	40000003          	lb	zero,1024(zero) # 400 <_tbss_end+0x400>
     902:	06000003          	lb	zero,96(zero) # 60 <_tbss_end+0x60>
     906:	8d00                	0x8d00
     908:	7e7f                	0x7e7f
     90a:	1a00                	addi	s0,sp,304
     90c:	409f 0003 5400      	0x54000003409f
     912:	06000003          	lb	zero,96(zero) # 60 <_tbss_end+0x60>
     916:	7e00                	flw	fs0,56(a2)
     918:	7f00                	flw	fs0,56(a4)
     91a:	1a00                	addi	s0,sp,304
     91c:	549f 0003 5600      	0x56000003549f
     922:	06000003          	lb	zero,96(zero) # 60 <_tbss_end+0x60>
     926:	8d00                	0x8d00
     928:	7e7f                	0x7e7f
     92a:	1a00                	addi	s0,sp,304
     92c:	569f 0003 5800      	0x58000003569f
     932:	06000003          	lb	zero,96(zero) # 60 <_tbss_end+0x60>
     936:	7e00                	flw	fs0,56(a2)
     938:	8d01                	sub	a0,a0,s0
     93a:	1a7f                	0x1a7f
     93c:	009f 0000 0000      	0x9f
     942:	0000                	unimp
     944:	0e00                	addi	s0,sp,784
     946:	18000003          	lb	zero,384(zero) # 180 <_tbss_end+0x180>
     94a:	01000003          	lb	zero,16(zero) # 10 <_tbss_end+0x10>
     94e:	6000                	flw	fs0,0(s0)
	...
     958:	030a                	slli	t1,t1,0x2
     95a:	0000                	unimp
     95c:	0328                	addi	a0,sp,392
     95e:	0000                	unimp
     960:	0001                	nop
     962:	2861                	jal	9fa <_tbss_end+0x9fa>
     964:	56000003          	lb	zero,1376(zero) # 560 <_tbss_end+0x560>
     968:	05000003          	lb	zero,80(zero) # 50 <_tbss_end+0x50>
     96c:	7e00                	flw	fs0,56(a2)
     96e:	4000                	lw	s0,0(s0)
     970:	9f25                	0x9f25
     972:	0356                	slli	t1,t1,0x15
     974:	0000                	unimp
     976:	0358                	addi	a4,sp,388
     978:	0000                	unimp
     97a:	0005                	c.nop	1
     97c:	017e                	slli	sp,sp,0x1f
     97e:	2540                	fld	fs0,136(a0)
     980:	009f 0000 0000      	0x9f
     986:	0000                	unimp
     988:	1000                	addi	s0,sp,32
     98a:	32000003          	lb	zero,800(zero) # 320 <_tbss_end+0x320>
     98e:	01000003          	lb	zero,16(zero) # 10 <_tbss_end+0x10>
     992:	5c00                	lw	s0,56(s0)
	...
     99c:	00d8                	addi	a4,sp,68
     99e:	0000                	unimp
     9a0:	0172                	slli	sp,sp,0x1c
     9a2:	0000                	unimp
     9a4:	0001                	nop
     9a6:	7660                	flw	fs0,108(a2)
     9a8:	0001                	nop
     9aa:	8400                	0x8400
     9ac:	0001                	nop
     9ae:	0100                	addi	s0,sp,128
     9b0:	6000                	flw	fs0,0(s0)
     9b2:	0184                	addi	s1,sp,192
     9b4:	0000                	unimp
     9b6:	0188                	addi	a0,sp,192
     9b8:	0000                	unimp
     9ba:	0009                	c.nop	2
     9bc:	0080                	addi	s0,sp,64
     9be:	007e                	c.slli	zero,0x1f
     9c0:	ff08                	fsw	fa0,56(a4)
     9c2:	241a                	fld	fs0,384(sp)
     9c4:	889f 0001 1400      	0x14000001889f
     9ca:	0002                	c.slli64	zero
     9cc:	0100                	addi	s0,sp,128
     9ce:	6000                	flw	fs0,0(s0)
	...
     9d8:	00e8                	addi	a0,sp,76
     9da:	0000                	unimp
     9dc:	0102                	c.slli64	sp
     9de:	0000                	unimp
     9e0:	0001                	nop
     9e2:	8461                	srai	s0,s0,0x18
     9e4:	0001                	nop
     9e6:	a400                	fsd	fs0,8(s0)
     9e8:	0001                	nop
     9ea:	0100                	addi	s0,sp,128
     9ec:	6100                	flw	fs0,0(a0)
	...
     9f6:	0106                	slli	sp,sp,0x1
     9f8:	0000                	unimp
     9fa:	0172                	slli	sp,sp,0x1c
     9fc:	0000                	unimp
     9fe:	0001                	nop
     a00:	005c                	addi	a5,sp,4
     a02:	0000                	unimp
     a04:	0000                	unimp
     a06:	0000                	unimp
     a08:	0e00                	addi	s0,sp,784
     a0a:	0001                	nop
     a0c:	5600                	lw	s0,40(a2)
     a0e:	0001                	nop
     a10:	0100                	addi	s0,sp,128
     a12:	6100                	flw	fs0,0(a0)
     a14:	0156                	slli	sp,sp,0x15
     a16:	0000                	unimp
     a18:	0172                	slli	sp,sp,0x1c
     a1a:	0000                	unimp
     a1c:	00800007          	0x800007
     a20:	2440                	fld	fs0,136(s0)
     a22:	2540                	fld	fs0,136(a0)
     a24:	009f 0000 0000      	0x9f
     a2a:	0000                	unimp
     a2c:	1a00                	addi	s0,sp,304
     a2e:	0001                	nop
     a30:	2e00                	fld	fs0,24(a2)
     a32:	0001                	nop
     a34:	0100                	addi	s0,sp,128
     a36:	5f00                	lw	s0,56(a4)
     a38:	012e                	slli	sp,sp,0xb
     a3a:	0000                	unimp
     a3c:	0170                	addi	a2,sp,140
     a3e:	0000                	unimp
     a40:	0001                	nop
     a42:	005e                	c.slli	zero,0x17
     a44:	0000                	unimp
     a46:	0000                	unimp
     a48:	0000                	unimp
     a4a:	4c00                	lw	s0,24(s0)
     a4c:	0001                	nop
     a4e:	6200                	flw	fs0,0(a2)
     a50:	0001                	nop
     a52:	0100                	addi	s0,sp,128
     a54:	5d00                	lw	s0,56(a0)
     a56:	0162                	slli	sp,sp,0x18
     a58:	0000                	unimp
     a5a:	0172                	slli	sp,sp,0x1c
     a5c:	0000                	unimp
     a5e:	0001                	nop
     a60:	005a                	c.slli	zero,0x16
     a62:	0000                	unimp
     a64:	0000                	unimp
     a66:	0000                	unimp
     a68:	1600                	addi	s0,sp,800
     a6a:	0001                	nop
     a6c:	1c00                	addi	s0,sp,560
     a6e:	0001                	nop
     a70:	0100                	addi	s0,sp,128
     a72:	5e00                	lw	s0,56(a2)
     a74:	0122                	slli	sp,sp,0x8
     a76:	0000                	unimp
     a78:	012a                	slli	sp,sp,0xa
     a7a:	0000                	unimp
     a7c:	0001                	nop
     a7e:	2e5d                	jal	e34 <_tbss_end+0xe34>
     a80:	0001                	nop
     a82:	4c00                	lw	s0,24(s0)
     a84:	0001                	nop
     a86:	0100                	addi	s0,sp,128
     a88:	5d00                	lw	s0,56(a0)
	...
     a92:	0142                	slli	sp,sp,0x10
     a94:	0000                	unimp
     a96:	014e                	slli	sp,sp,0x13
     a98:	0000                	unimp
     a9a:	0001                	nop
     a9c:	565f 0001 5e00      	0x5e000001565f
     aa2:	0001                	nop
     aa4:	0100                	addi	s0,sp,128
     aa6:	5600                	lw	s0,40(a2)
	...
     ab0:	0122                	slli	sp,sp,0x8
     ab2:	0000                	unimp
     ab4:	0156                	slli	sp,sp,0x15
     ab6:	0000                	unimp
     ab8:	0001                	nop
     aba:	565a                	lw	a2,180(sp)
     abc:	0001                	nop
     abe:	7200                	flw	fs0,32(a2)
     ac0:	0001                	nop
     ac2:	0100                	addi	s0,sp,128
     ac4:	6100                	flw	fs0,0(a0)
	...
     ace:	01a4                	addi	s1,sp,200
     ad0:	0000                	unimp
     ad2:	0214                	addi	a3,sp,256
     ad4:	0000                	unimp
     ad6:	0001                	nop
     ad8:	005a                	c.slli	zero,0x16
     ada:	0000                	unimp
     adc:	0000                	unimp
     ade:	0000                	unimp
     ae0:	aa00                	fsd	fs0,16(a2)
     ae2:	0001                	nop
     ae4:	f000                	fsw	fs0,32(s0)
     ae6:	0001                	nop
     ae8:	0100                	addi	s0,sp,128
     aea:	5f00                	lw	s0,56(a4)
     aec:	01f0                	addi	a2,sp,204
     aee:	0000                	unimp
     af0:	0214                	addi	a3,sp,256
     af2:	0000                	unimp
     af4:	00800007          	0x800007
     af8:	2440                	fld	fs0,136(s0)
     afa:	2540                	fld	fs0,136(a0)
     afc:	009f 0000 0000      	0x9f
     b02:	0000                	unimp
     b04:	b200                	fsd	fs0,32(a2)
     b06:	0001                	nop
     b08:	c600                	sw	s0,8(a2)
     b0a:	0001                	nop
     b0c:	0100                	addi	s0,sp,128
     b0e:	5b00                	lw	s0,48(a4)
     b10:	01c6                	slli	gp,gp,0x11
     b12:	0000                	unimp
     b14:	0214                	addi	a3,sp,256
     b16:	0000                	unimp
     b18:	0001                	nop
     b1a:	005c                	addi	a5,sp,4
     b1c:	0000                	unimp
     b1e:	0000                	unimp
     b20:	0000                	unimp
     b22:	e600                	fsw	fs0,8(a2)
     b24:	0001                	nop
     b26:	fc00                	fsw	fs0,56(s0)
     b28:	0001                	nop
     b2a:	0100                	addi	s0,sp,128
     b2c:	5d00                	lw	s0,56(a0)
     b2e:	01fc                	addi	a5,sp,204
     b30:	0000                	unimp
     b32:	0214                	addi	a3,sp,256
     b34:	0000                	unimp
     b36:	0001                	nop
     b38:	005e                	c.slli	zero,0x17
     b3a:	0000                	unimp
     b3c:	0000                	unimp
     b3e:	0000                	unimp
     b40:	aa00                	fsd	fs0,16(a2)
     b42:	0001                	nop
     b44:	b400                	fsd	fs0,40(s0)
     b46:	0001                	nop
     b48:	0100                	addi	s0,sp,128
     b4a:	5e00                	lw	s0,56(a2)
     b4c:	01ba                	slli	gp,gp,0xe
     b4e:	0000                	unimp
     b50:	01c2                	slli	gp,gp,0x10
     b52:	0000                	unimp
     b54:	0001                	nop
     b56:	c65e                	sw	s7,12(sp)
     b58:	0001                	nop
     b5a:	d800                	sw	s0,48(s0)
     b5c:	0001                	nop
     b5e:	0100                	addi	s0,sp,128
     b60:	5e00                	lw	s0,56(a2)
     b62:	01d8                	addi	a4,sp,196
     b64:	0000                	unimp
     b66:	01e6                	slli	gp,gp,0x19
     b68:	0000                	unimp
     b6a:	0001                	nop
     b6c:	005d                	c.nop	23
     b6e:	0000                	unimp
     b70:	0000                	unimp
     b72:	0000                	unimp
     b74:	dc00                	sw	s0,56(s0)
     b76:	0001                	nop
     b78:	e800                	fsw	fs0,16(s0)
     b7a:	0001                	nop
     b7c:	0100                	addi	s0,sp,128
     b7e:	5e00                	lw	s0,56(a2)
     b80:	01f0                	addi	a2,sp,204
     b82:	0000                	unimp
     b84:	01f8                	addi	a4,sp,204
     b86:	0000                	unimp
     b88:	0001                	nop
     b8a:	fc5f 0001 1400      	0x14000001fc5f
     b90:	0002                	c.slli64	zero
     b92:	0100                	addi	s0,sp,128
     b94:	5f00                	lw	s0,56(a4)
	...
     b9e:	01ba                	slli	gp,gp,0xe
     ba0:	0000                	unimp
     ba2:	01d8                	addi	a4,sp,196
     ba4:	0000                	unimp
     ba6:	0001                	nop
     ba8:	d85d                	beqz	s0,b5e <_tbss_end+0xb5e>
     baa:	0001                	nop
     bac:	ec00                	fsw	fs0,24(s0)
     bae:	0001                	nop
     bb0:	0600                	addi	s0,sp,768
     bb2:	7f00                	flw	fs0,56(a4)
     bb4:	7b00                	flw	fs0,48(a4)
     bb6:	1e00                	addi	s0,sp,816
     bb8:	ec9f 0001 1000      	0x10000001ec9f
     bbe:	0002                	c.slli64	zero
     bc0:	0100                	addi	s0,sp,128
     bc2:	5b00                	lw	s0,48(a4)
     bc4:	0210                	addi	a2,sp,256
     bc6:	0000                	unimp
     bc8:	0214                	addi	a3,sp,256
     bca:	0000                	unimp
     bcc:	000a                	c.slli	zero,0x2
     bce:	0080                	addi	s0,sp,64
     bd0:	2440                	fld	fs0,136(s0)
     bd2:	2540                	fld	fs0,136(a0)
     bd4:	007d                	c.nop	31
     bd6:	9f1e                	add	t5,t5,t2
	...
     be0:	0218                	addi	a4,sp,256
     be2:	0000                	unimp
     be4:	026c                	addi	a1,sp,268
     be6:	0000                	unimp
     be8:	0001                	nop
     bea:	6c5d                	lui	s8,0x17
     bec:	0002                	c.slli64	zero
     bee:	7a00                	flw	fs0,48(a2)
     bf0:	0002                	c.slli64	zero
     bf2:	0100                	addi	s0,sp,128
     bf4:	6100                	flw	fs0,0(a0)
	...
     bfe:	0228                	addi	a0,sp,264
     c00:	0000                	unimp
     c02:	0248                	addi	a0,sp,260
     c04:	0000                	unimp
     c06:	0001                	nop
     c08:	645e                	flw	fs0,212(sp)
     c0a:	0002                	c.slli64	zero
     c0c:	6800                	flw	fs0,16(s0)
     c0e:	0002                	c.slli64	zero
     c10:	0100                	addi	s0,sp,128
     c12:	5e00                	lw	s0,56(a2)
	...
     c20:	0060                	addi	s0,sp,12
     c22:	0000                	unimp
     c24:	0006                	c.slli	zero,0x1
     c26:	935a                	add	t1,t1,s6
     c28:	5b04                	lw	s1,48(a4)
     c2a:	00600493          	li	s1,6
     c2e:	0000                	unimp
     c30:	00b6                	slli	ra,ra,0xd
     c32:	0000                	unimp
     c34:	0006                	c.slli	zero,0x1
     c36:	0af503f3          	0xaf503f3
     c3a:	9f25                	0x9f25
     c3c:	00b6                	slli	ra,ra,0xd
     c3e:	0000                	unimp
     c40:	00f8                	addi	a4,sp,76
     c42:	0000                	unimp
     c44:	0006                	c.slli	zero,0x1
     c46:	935a                	add	t1,t1,s6
     c48:	5b04                	lw	s1,48(a4)
     c4a:	00f80493          	addi	s1,a6,15
     c4e:	0000                	unimp
     c50:	0154                	addi	a3,sp,132
     c52:	0000                	unimp
     c54:	0006                	c.slli	zero,0x1
     c56:	0af503f3          	0xaf503f3
     c5a:	9f25                	0x9f25
     c5c:	0154                	addi	a3,sp,132
     c5e:	0000                	unimp
     c60:	0176                	slli	sp,sp,0x1d
     c62:	0000                	unimp
     c64:	0006                	c.slli	zero,0x1
     c66:	935a                	add	t1,t1,s6
     c68:	5b04                	lw	s1,48(a4)
     c6a:	01760493          	addi	s1,a2,23 # fffe9017 <__global_pointer$+0x7ffe5c73>
     c6e:	0000                	unimp
     c70:	01d8                	addi	a4,sp,196
     c72:	0000                	unimp
     c74:	0006                	c.slli	zero,0x1
     c76:	0af503f3          	0xaf503f3
     c7a:	9f25                	0x9f25
     c7c:	01d8                	addi	a4,sp,196
     c7e:	0000                	unimp
     c80:	021e                	slli	tp,tp,0x7
     c82:	0000                	unimp
     c84:	0006                	c.slli	zero,0x1
     c86:	935a                	add	t1,t1,s6
     c88:	5b04                	lw	s1,48(a4)
     c8a:	021e0493          	addi	s1,t3,33 # 18021 <_tbss_end+0x18021>
     c8e:	0000                	unimp
     c90:	0228                	addi	a0,sp,264
     c92:	0000                	unimp
     c94:	0006                	c.slli	zero,0x1
     c96:	0af503f3          	0xaf503f3
     c9a:	9f25                	0x9f25
     c9c:	0228                	addi	a0,sp,264
     c9e:	0000                	unimp
     ca0:	0268                	addi	a0,sp,268
     ca2:	0000                	unimp
     ca4:	0006                	c.slli	zero,0x1
     ca6:	935a                	add	t1,t1,s6
     ca8:	5b04                	lw	s1,48(a4)
     caa:	02680493          	addi	s1,a6,38
     cae:	0000                	unimp
     cb0:	0352                	slli	t1,t1,0x14
     cb2:	0000                	unimp
     cb4:	0006                	c.slli	zero,0x1
     cb6:	0af503f3          	0xaf503f3
     cba:	9f25                	0x9f25
	...
     cc8:	0058                	addi	a4,sp,4
     cca:	0000                	unimp
     ccc:	0006                	c.slli	zero,0x1
     cce:	935c                	0x935c
     cd0:	5d04                	lw	s1,56(a0)
     cd2:	00580493          	addi	s1,a6,5
     cd6:	0000                	unimp
     cd8:	00b6                	slli	ra,ra,0xd
     cda:	0000                	unimp
     cdc:	0006                	c.slli	zero,0x1
     cde:	0cf503f3          	0xcf503f3
     ce2:	9f25                	0x9f25
     ce4:	00b6                	slli	ra,ra,0xd
     ce6:	0000                	unimp
     ce8:	00c8                	addi	a0,sp,68
     cea:	0000                	unimp
     cec:	0006                	c.slli	zero,0x1
     cee:	935c                	0x935c
     cf0:	5d04                	lw	s1,56(a0)
     cf2:	00c80493          	addi	s1,a6,12
     cf6:	0000                	unimp
     cf8:	01d8                	addi	a4,sp,196
     cfa:	0000                	unimp
     cfc:	0006                	c.slli	zero,0x1
     cfe:	0cf503f3          	0xcf503f3
     d02:	9f25                	0x9f25
     d04:	01d8                	addi	a4,sp,196
     d06:	0000                	unimp
     d08:	0264                	addi	s1,sp,268
     d0a:	0000                	unimp
     d0c:	0006                	c.slli	zero,0x1
     d0e:	935c                	0x935c
     d10:	5d04                	lw	s1,56(a0)
     d12:	02640493          	addi	s1,s0,38 # 17026 <_tbss_end+0x17026>
     d16:	0000                	unimp
     d18:	0352                	slli	t1,t1,0x14
     d1a:	0000                	unimp
     d1c:	0006                	c.slli	zero,0x1
     d1e:	0cf503f3          	0xcf503f3
     d22:	9f25                	0x9f25
	...
     d2c:	0226                	slli	tp,tp,0x9
     d2e:	0000                	unimp
     d30:	0228                	addi	a0,sp,264
     d32:	0000                	unimp
     d34:	0006                	c.slli	zero,0x1
     d36:	935f 6004 0493      	0x4936004935f
	...
     d48:	00b4                	addi	a3,sp,72
     d4a:	0000                	unimp
     d4c:	0006                	c.slli	zero,0x1
     d4e:	19f2                	slli	s3,s3,0x3c
     d50:	001e                	c.slli	zero,0x7
     d52:	0000                	unimp
     d54:	00b6                	slli	ra,ra,0xd
     d56:	0000                	unimp
     d58:	0350                	addi	a2,sp,388
     d5a:	0000                	unimp
     d5c:	0006                	c.slli	zero,0x1
     d5e:	19f2                	slli	s3,s3,0x3c
     d60:	001e                	c.slli	zero,0x7
	...
     d6e:	0000                	unimp
     d70:	0010                	0x10
     d72:	0000                	unimp
     d74:	0006                	c.slli	zero,0x1
     d76:	935c                	0x935c
     d78:	5d04                	lw	s1,56(a0)
     d7a:	00100493          	li	s1,1
     d7e:	0000                	unimp
     d80:	0028                	addi	a0,sp,8
     d82:	0000                	unimp
     d84:	0006                	c.slli	zero,0x1
     d86:	935c                	0x935c
     d88:	5e04                	lw	s1,56(a2)
     d8a:	00b60493          	addi	s1,a2,11
     d8e:	0000                	unimp
     d90:	00bc                	addi	a5,sp,72
     d92:	0000                	unimp
     d94:	0006                	c.slli	zero,0x1
     d96:	935c                	0x935c
     d98:	5e04                	lw	s1,56(a2)
     d9a:	00c40493          	addi	s1,s0,12
     d9e:	0000                	unimp
     da0:	00c8                	addi	a0,sp,68
     da2:	0000                	unimp
     da4:	0006                	c.slli	zero,0x1
     da6:	935c                	0x935c
     da8:	5e04                	lw	s1,56(a2)
     daa:	00c80493          	addi	s1,a6,12
     dae:	0000                	unimp
     db0:	00cc                	addi	a1,sp,68
     db2:	0000                	unimp
     db4:	0006                	c.slli	zero,0x1
     db6:	9361                	srli	a4,a4,0x38
     db8:	5e04                	lw	s1,56(a2)
     dba:	01d80493          	addi	s1,a6,29
     dbe:	0000                	unimp
     dc0:	023e                	slli	tp,tp,0xf
     dc2:	0000                	unimp
     dc4:	0006                	c.slli	zero,0x1
     dc6:	935c                	0x935c
     dc8:	5d04                	lw	s1,56(a0)
     dca:	00000493          	li	s1,0
	...
     dd6:	0000                	unimp
     dd8:	0044                	addi	s1,sp,4
     dda:	0000                	unimp
     ddc:	0006                	c.slli	zero,0x1
     dde:	935a                	add	t1,t1,s6
     de0:	5b04                	lw	s1,48(a4)
     de2:	00440493          	addi	s1,s0,4
     de6:	0000                	unimp
     de8:	0050                	addi	a2,sp,4
     dea:	0000                	unimp
     dec:	0006                	c.slli	zero,0x1
     dee:	935a                	add	t1,t1,s6
     df0:	6004                	flw	fs1,0(s0)
     df2:	00b60493          	addi	s1,a2,11
     df6:	0000                	unimp
     df8:	00f8                	addi	a4,sp,76
     dfa:	0000                	unimp
     dfc:	0006                	c.slli	zero,0x1
     dfe:	935a                	add	t1,t1,s6
     e00:	5b04                	lw	s1,48(a4)
     e02:	01540493          	addi	s1,s0,21
     e06:	0000                	unimp
     e08:	0176                	slli	sp,sp,0x1d
     e0a:	0000                	unimp
     e0c:	0006                	c.slli	zero,0x1
     e0e:	935a                	add	t1,t1,s6
     e10:	5b04                	lw	s1,48(a4)
     e12:	01d80493          	addi	s1,a6,29
     e16:	0000                	unimp
     e18:	021a                	slli	tp,tp,0x6
     e1a:	0000                	unimp
     e1c:	0006                	c.slli	zero,0x1
     e1e:	935a                	add	t1,t1,s6
     e20:	5b04                	lw	s1,48(a4)
     e22:	021a0493          	addi	s1,s4,33 # ffff7021 <__global_pointer$+0x7fff3c7d>
     e26:	0000                	unimp
     e28:	021e                	slli	tp,tp,0x7
     e2a:	0000                	unimp
     e2c:	0006                	c.slli	zero,0x1
     e2e:	935a                	add	t1,t1,s6
     e30:	6004                	flw	fs1,0(s0)
     e32:	02280493          	addi	s1,a6,34
     e36:	0000                	unimp
     e38:	0250                	addi	a2,sp,260
     e3a:	0000                	unimp
     e3c:	0006                	c.slli	zero,0x1
     e3e:	935a                	add	t1,t1,s6
     e40:	5b04                	lw	s1,48(a4)
     e42:	00000493          	li	s1,0
     e46:	0000                	unimp
     e48:	0000                	unimp
     e4a:	0000                	unimp
     e4c:	0002                	c.slli64	zero
     e4e:	0000                	unimp
     e50:	004c                	addi	a1,sp,4
     e52:	0000                	unimp
     e54:	0001                	nop
     e56:	4c5c                	lw	a5,28(s0)
     e58:	0000                	unimp
     e5a:	b400                	fsd	fs0,40(s0)
     e5c:	0000                	unimp
     e5e:	0100                	addi	s0,sp,128
     e60:	6100                	flw	fs0,0(a0)
     e62:	00b6                	slli	ra,ra,0xd
     e64:	0000                	unimp
     e66:	00c8                	addi	a0,sp,68
     e68:	0000                	unimp
     e6a:	0001                	nop
     e6c:	c85c                	sw	a5,20(s0)
     e6e:	0000                	unimp
     e70:	d800                	sw	s0,48(s0)
     e72:	0001                	nop
     e74:	0100                	addi	s0,sp,128
     e76:	6100                	flw	fs0,0(a0)
     e78:	01d8                	addi	a4,sp,196
     e7a:	0000                	unimp
     e7c:	0326                	slli	t1,t1,0x9
     e7e:	0000                	unimp
     e80:	0001                	nop
     e82:	005c                	addi	a5,sp,4
     e84:	0000                	unimp
     e86:	0000                	unimp
     e88:	0000                	unimp
     e8a:	0400                	addi	s0,sp,512
     e8c:	0000                	unimp
     e8e:	1000                	addi	s0,sp,32
     e90:	0000                	unimp
     e92:	0100                	addi	s0,sp,128
     e94:	5d00                	lw	s0,56(a0)
     e96:	0010                	0x10
     e98:	0000                	unimp
     e9a:	0028                	addi	a0,sp,8
     e9c:	0000                	unimp
     e9e:	0001                	nop
     ea0:	b65e                	fsd	fs7,296(sp)
     ea2:	0000                	unimp
     ea4:	bc00                	fsd	fs0,56(s0)
     ea6:	0000                	unimp
     ea8:	0100                	addi	s0,sp,128
     eaa:	5e00                	lw	s0,56(a2)
     eac:	00c4                	addi	s1,sp,68
     eae:	0000                	unimp
     eb0:	00dc                	addi	a5,sp,68
     eb2:	0000                	unimp
     eb4:	0001                	nop
     eb6:	545e                	lw	s0,244(sp)
     eb8:	0001                	nop
     eba:	5a00                	lw	s0,48(a2)
     ebc:	0001                	nop
     ebe:	0100                	addi	s0,sp,128
     ec0:	5e00                	lw	s0,56(a2)
     ec2:	01d8                	addi	a4,sp,196
     ec4:	0000                	unimp
     ec6:	023e                	slli	tp,tp,0xf
     ec8:	0000                	unimp
     eca:	0001                	nop
     ecc:	405d                	c.li	zero,23
     ece:	0002                	c.slli64	zero
     ed0:	5000                	lw	s0,32(s0)
     ed2:	01000003          	lb	zero,16(zero) # 10 <_tbss_end+0x10>
     ed6:	5d00                	lw	s0,56(a0)
	...
     ee0:	0006                	c.slli	zero,0x1
     ee2:	0000                	unimp
     ee4:	0054                	addi	a3,sp,4
     ee6:	0000                	unimp
     ee8:	0001                	nop
     eea:	545a                	lw	s0,180(sp)
     eec:	0000                	unimp
     eee:	8c00                	0x8c00
     ef0:	0000                	unimp
     ef2:	0100                	addi	s0,sp,128
     ef4:	5f00                	lw	s0,56(a4)
     ef6:	00ae                	slli	ra,ra,0xb
     ef8:	0000                	unimp
     efa:	00b4                	addi	a3,sp,72
     efc:	0000                	unimp
     efe:	0001                	nop
     f00:	b65f 0000 f800      	0xf8000000b65f
     f06:	0000                	unimp
     f08:	0100                	addi	s0,sp,128
     f0a:	5a00                	lw	s0,48(a2)
     f0c:	0152                	slli	sp,sp,0x14
     f0e:	0000                	unimp
     f10:	0154                	addi	a3,sp,132
     f12:	0000                	unimp
     f14:	0001                	nop
     f16:	545f 0001 7600      	0x76000001545f
     f1c:	0001                	nop
     f1e:	0100                	addi	s0,sp,128
     f20:	5a00                	lw	s0,48(a2)
     f22:	01d8                	addi	a4,sp,196
     f24:	0000                	unimp
     f26:	021e                	slli	tp,tp,0x7
     f28:	0000                	unimp
     f2a:	0001                	nop
     f2c:	225a                	fld	ft4,400(sp)
     f2e:	0002                	c.slli64	zero
     f30:	2800                	fld	fs0,16(s0)
     f32:	0002                	c.slli64	zero
     f34:	0100                	addi	s0,sp,128
     f36:	5f00                	lw	s0,56(a4)
     f38:	0228                	addi	a0,sp,264
     f3a:	0000                	unimp
     f3c:	033a                	slli	t1,t1,0xe
     f3e:	0000                	unimp
     f40:	0001                	nop
     f42:	405a                	0x405a
     f44:	48000003          	lb	zero,1152(zero) # 480 <_tbss_end+0x480>
     f48:	01000003          	lb	zero,16(zero) # 10 <_tbss_end+0x10>
     f4c:	5e00                	lw	s0,56(a2)
	...
     f56:	0008                	0x8
     f58:	0000                	unimp
     f5a:	0044                	addi	s1,sp,4
     f5c:	0000                	unimp
     f5e:	0001                	nop
     f60:	0000445b          	0x445b
     f64:	6a00                	flw	fs0,16(a2)
     f66:	0000                	unimp
     f68:	0100                	addi	s0,sp,128
     f6a:	6000                	flw	fs0,0(s0)
     f6c:	00b6                	slli	ra,ra,0xd
     f6e:	0000                	unimp
     f70:	010e                	slli	sp,sp,0x3
     f72:	0000                	unimp
     f74:	0001                	nop
     f76:	0001545b          	0x1545b
     f7a:	7e00                	flw	fs0,56(a2)
     f7c:	0001                	nop
     f7e:	0100                	addi	s0,sp,128
     f80:	5b00                	lw	s0,48(a4)
     f82:	017e                	slli	sp,sp,0x1f
     f84:	0000                	unimp
     f86:	0182                	c.slli64	gp
     f88:	0000                	unimp
     f8a:	0001                	nop
     f8c:	8260                	0x8260
     f8e:	0001                	nop
     f90:	b200                	fsd	fs0,32(a2)
     f92:	0001                	nop
     f94:	0100                	addi	s0,sp,128
     f96:	6c00                	flw	fs0,24(s0)
     f98:	01d6                	slli	gp,gp,0x15
     f9a:	0000                	unimp
     f9c:	021a                	slli	tp,tp,0x6
     f9e:	0000                	unimp
     fa0:	0001                	nop
     fa2:	00021a5b          	0x21a5b
     fa6:	2800                	fld	fs0,16(s0)
     fa8:	0002                	c.slli64	zero
     faa:	0100                	addi	s0,sp,128
     fac:	6000                	flw	fs0,0(s0)
     fae:	0228                	addi	a0,sp,264
     fb0:	0000                	unimp
     fb2:	0250                	addi	a2,sp,260
     fb4:	0000                	unimp
     fb6:	0001                	nop
     fb8:	0002645b          	0x2645b
     fbc:	ae00                	fsd	fs0,24(a2)
     fbe:	0002                	c.slli64	zero
     fc0:	0100                	addi	s0,sp,128
     fc2:	5f00                	lw	s0,56(a4)
     fc4:	02da                	slli	t0,t0,0x16
     fc6:	0000                	unimp
     fc8:	033e                	slli	t1,t1,0xf
     fca:	0000                	unimp
     fcc:	0001                	nop
     fce:	0003405b          	0x3405b
     fd2:	5000                	lw	s0,32(s0)
     fd4:	01000003          	lb	zero,16(zero) # 10 <_tbss_end+0x10>
     fd8:	5b00                	lw	s0,48(a4)
	...
     fe2:	016a                	slli	sp,sp,0x1a
     fe4:	0000                	unimp
     fe6:	0190                	addi	a2,sp,192
     fe8:	0000                	unimp
     fea:	0001                	nop
     fec:	645e                	flw	fs0,212(sp)
     fee:	0002                	c.slli64	zero
     ff0:	6c00                	flw	fs0,24(s0)
     ff2:	0002                	c.slli64	zero
     ff4:	0100                	addi	s0,sp,128
     ff6:	5e00                	lw	s0,56(a2)
	...
    1000:	0214                	addi	a3,sp,256
    1002:	0000                	unimp
    1004:	0222                	slli	tp,tp,0x8
    1006:	0000                	unimp
    1008:	0002                	c.slli64	zero
    100a:	9f31                	0x9f31
	...
    1014:	0222                	slli	tp,tp,0x8
    1016:	0000                	unimp
    1018:	0228                	addi	a0,sp,264
    101a:	0000                	unimp
    101c:	0002                	c.slli64	zero
    101e:	9f30                	0x9f30
    1020:	0332                	slli	t1,t1,0xc
    1022:	0000                	unimp
    1024:	0350                	addi	a2,sp,388
    1026:	0000                	unimp
    1028:	0002                	c.slli64	zero
    102a:	9f30                	0x9f30
	...
    1034:	0162                	slli	sp,sp,0x18
    1036:	0000                	unimp
    1038:	0172                	slli	sp,sp,0x1c
    103a:	0000                	unimp
    103c:	0001                	nop
    103e:	366c                	fld	fa1,232(a2)
    1040:	0002                	c.slli64	zero
    1042:	5200                	lw	s0,32(a2)
    1044:	01000003          	lb	zero,16(zero) # 10 <_tbss_end+0x10>
    1048:	6d00                	flw	fs0,24(a0)
	...
    1052:	003c                	addi	a5,sp,8
    1054:	0000                	unimp
    1056:	00b4                	addi	a3,sp,72
    1058:	0000                	unimp
    105a:	0001                	nop
    105c:	f056                	fsw	fs5,32(sp)
    105e:	0000                	unimp
    1060:	5400                	lw	s0,40(s0)
    1062:	0001                	nop
    1064:	0100                	addi	s0,sp,128
    1066:	5600                	lw	s0,40(a2)
    1068:	0162                	slli	sp,sp,0x18
    106a:	0000                	unimp
    106c:	01d8                	addi	a4,sp,196
    106e:	0000                	unimp
    1070:	0001                	nop
    1072:	0856                	slli	a6,a6,0x15
    1074:	0002                	c.slli64	zero
    1076:	2800                	fld	fs0,16(s0)
    1078:	0002                	c.slli64	zero
    107a:	0100                	addi	s0,sp,128
    107c:	6c00                	flw	fs0,24(s0)
    107e:	0236                	slli	tp,tp,0xd
    1080:	0000                	unimp
    1082:	0350                	addi	a2,sp,388
    1084:	0000                	unimp
    1086:	0001                	nop
    1088:	006c                	addi	a1,sp,12
    108a:	0000                	unimp
    108c:	0000                	unimp
    108e:	0000                	unimp
    1090:	1800                	addi	s0,sp,48
    1092:	0000                	unimp
    1094:	5800                	lw	s0,48(s0)
    1096:	0000                	unimp
    1098:	0100                	addi	s0,sp,128
    109a:	5c00                	lw	s0,56(s0)
    109c:	00b6                	slli	ra,ra,0xd
    109e:	0000                	unimp
    10a0:	00c4                	addi	s1,sp,68
    10a2:	0000                	unimp
    10a4:	0001                	nop
    10a6:	005c                	addi	a5,sp,4
    10a8:	0000                	unimp
    10aa:	0000                	unimp
    10ac:	0000                	unimp
    10ae:	2800                	fld	fs0,16(s0)
    10b0:	0000                	unimp
    10b2:	5c00                	lw	s0,56(s0)
    10b4:	0000                	unimp
    10b6:	0100                	addi	s0,sp,128
    10b8:	5e00                	lw	s0,56(a2)
	...
    10c2:	0058                	addi	a4,sp,4
    10c4:	0000                	unimp
    10c6:	00ae                	slli	ra,ra,0xb
    10c8:	0000                	unimp
    10ca:	0001                	nop
    10cc:	005c                	addi	a5,sp,4
    10ce:	0000                	unimp
    10d0:	0000                	unimp
    10d2:	0000                	unimp
    10d4:	6200                	flw	fs0,0(a2)
    10d6:	0000                	unimp
    10d8:	9a00                	0x9a00
    10da:	0000                	unimp
    10dc:	0100                	addi	s0,sp,128
    10de:	5a00                	lw	s0,48(a2)
    10e0:	009a                	slli	ra,ra,0x6
    10e2:	0000                	unimp
    10e4:	00ae                	slli	ra,ra,0xb
    10e6:	0000                	unimp
    10e8:	00810007          	0x810007
    10ec:	2440                	fld	fs0,136(s0)
    10ee:	2540                	fld	fs0,136(a0)
    10f0:	009f 0000 0000      	0x9f
    10f6:	0000                	unimp
    10f8:	9200                	0x9200
    10fa:	0000                	unimp
    10fc:	9600                	0x9600
    10fe:	0000                	unimp
    1100:	0100                	addi	s0,sp,128
    1102:	5d00                	lw	s0,56(a0)
	...
    110c:	0062                	c.slli	zero,0x18
    110e:	0000                	unimp
    1110:	006c                	addi	a1,sp,12
    1112:	0000                	unimp
    1114:	0001                	nop
    1116:	725e                	flw	ft4,244(sp)
    1118:	0000                	unimp
    111a:	9200                	0x9200
    111c:	0000                	unimp
    111e:	0100                	addi	s0,sp,128
    1120:	5d00                	lw	s0,56(a0)
	...
    112a:	008a                	slli	ra,ra,0x2
    112c:	0000                	unimp
    112e:	009c                	addi	a5,sp,64
    1130:	0000                	unimp
    1132:	0001                	nop
    1134:	9c5e                	add	s8,s8,s7
    1136:	0000                	unimp
    1138:	ae00                	fsd	fs0,24(a2)
    113a:	0000                	unimp
    113c:	0100                	addi	s0,sp,128
    113e:	5f00                	lw	s0,56(a4)
	...
    1148:	0072                	c.slli	zero,0x1c
    114a:	0000                	unimp
    114c:	0096                	slli	ra,ra,0x5
    114e:	0000                	unimp
    1150:	0001                	nop
    1152:	9660                	0x9660
    1154:	0000                	unimp
    1156:	ae00                	fsd	fs0,24(a2)
    1158:	0000                	unimp
    115a:	0100                	addi	s0,sp,128
    115c:	5d00                	lw	s0,56(a0)
	...
    1166:	00cc                	addi	a1,sp,68
    1168:	0000                	unimp
    116a:	00f8                	addi	a4,sp,76
    116c:	0000                	unimp
    116e:	0001                	nop
    1170:	5461                	li	s0,-8
    1172:	0001                	nop
    1174:	6600                	flw	fs0,8(a2)
    1176:	0001                	nop
    1178:	0100                	addi	s0,sp,128
    117a:	6100                	flw	fs0,0(a0)
	...
    1184:	00dc                	addi	a5,sp,68
    1186:	0000                	unimp
    1188:	00f8                	addi	a4,sp,76
    118a:	0000                	unimp
    118c:	0001                	nop
    118e:	625e                	flw	ft4,212(sp)
    1190:	0001                	nop
    1192:	6a00                	flw	fs0,16(a2)
    1194:	0001                	nop
    1196:	0100                	addi	s0,sp,128
    1198:	5e00                	lw	s0,56(a2)
	...
    11a2:	00fc                	addi	a5,sp,76
    11a4:	0000                	unimp
    11a6:	0154                	addi	a3,sp,132
    11a8:	0000                	unimp
    11aa:	0001                	nop
    11ac:	005e                	c.slli	zero,0x17
    11ae:	0000                	unimp
    11b0:	0000                	unimp
    11b2:	0000                	unimp
    11b4:	0200                	addi	s0,sp,256
    11b6:	0001                	nop
    11b8:	3e00                	fld	fs0,56(a2)
    11ba:	0001                	nop
    11bc:	0100                	addi	s0,sp,128
    11be:	5a00                	lw	s0,48(a2)
    11c0:	013e                	slli	sp,sp,0xf
    11c2:	0000                	unimp
    11c4:	0154                	addi	a3,sp,132
    11c6:	0000                	unimp
    11c8:	00810007          	0x810007
    11cc:	2440                	fld	fs0,136(s0)
    11ce:	2540                	fld	fs0,136(a0)
    11d0:	009f 0000 0000      	0x9f
    11d6:	0000                	unimp
    11d8:	0e00                	addi	s0,sp,784
    11da:	0001                	nop
    11dc:	1600                	addi	s0,sp,800
    11de:	0001                	nop
    11e0:	0100                	addi	s0,sp,128
    11e2:	5b00                	lw	s0,48(a4)
	...
    11ec:	0136                	slli	sp,sp,0xd
    11ee:	0000                	unimp
    11f0:	013a                	slli	sp,sp,0xe
    11f2:	0000                	unimp
    11f4:	0001                	nop
    11f6:	0000005b          	0x5b
    11fa:	0000                	unimp
    11fc:	0000                	unimp
    11fe:	0a00                	addi	s0,sp,272
    1200:	0001                	nop
    1202:	1000                	addi	s0,sp,32
    1204:	0001                	nop
    1206:	0100                	addi	s0,sp,128
    1208:	5d00                	lw	s0,56(a0)
    120a:	0116                	slli	sp,sp,0x5
    120c:	0000                	unimp
    120e:	012a                	slli	sp,sp,0xa
    1210:	0000                	unimp
    1212:	0001                	nop
    1214:	2a5d                	jal	13ca <_tbss_end+0x13ca>
    1216:	0001                	nop
    1218:	3600                	fld	fs0,40(a2)
    121a:	0001                	nop
    121c:	0100                	addi	s0,sp,128
    121e:	5b00                	lw	s0,48(a4)
	...
    1228:	012e                	slli	sp,sp,0xb
    122a:	0000                	unimp
    122c:	0140                	addi	s0,sp,132
    122e:	0000                	unimp
    1230:	0001                	nop
    1232:	405d                	c.li	zero,23
    1234:	0001                	nop
    1236:	5400                	lw	s0,40(s0)
    1238:	0001                	nop
    123a:	0100                	addi	s0,sp,128
    123c:	5f00                	lw	s0,56(a4)
	...
    1246:	0116                	slli	sp,sp,0x5
    1248:	0000                	unimp
    124a:	012a                	slli	sp,sp,0xa
    124c:	0000                	unimp
    124e:	0001                	nop
    1250:	00013a5b          	0x13a5b
    1254:	5400                	lw	s0,40(s0)
    1256:	0001                	nop
    1258:	0100                	addi	s0,sp,128
    125a:	5b00                	lw	s0,48(a4)
	...
    1264:	0182                	c.slli64	gp
    1266:	0000                	unimp
    1268:	01d8                	addi	a4,sp,196
    126a:	0000                	unimp
    126c:	0001                	nop
    126e:	005a                	c.slli	zero,0x16
    1270:	0000                	unimp
    1272:	0000                	unimp
    1274:	0000                	unimp
    1276:	8800                	0x8800
    1278:	0001                	nop
    127a:	c400                	sw	s0,8(s0)
    127c:	0001                	nop
    127e:	0100                	addi	s0,sp,128
    1280:	5b00                	lw	s0,48(a4)
    1282:	01c4                	addi	s1,sp,196
    1284:	0000                	unimp
    1286:	01d8                	addi	a4,sp,196
    1288:	0000                	unimp
    128a:	00810007          	0x810007
    128e:	2440                	fld	fs0,136(s0)
    1290:	2540                	fld	fs0,136(a0)
    1292:	009f 0000 0000      	0x9f
    1298:	0000                	unimp
    129a:	9000                	0x9000
    129c:	0001                	nop
    129e:	9800                	0x9800
    12a0:	0001                	nop
    12a2:	0100                	addi	s0,sp,128
    12a4:	5e00                	lw	s0,56(a2)
	...
    12ae:	01ba                	slli	gp,gp,0xe
    12b0:	0000                	unimp
    12b2:	01c0                	addi	s0,sp,196
    12b4:	0000                	unimp
    12b6:	0001                	nop
    12b8:	005c                	addi	a5,sp,4
    12ba:	0000                	unimp
    12bc:	0000                	unimp
    12be:	0000                	unimp
    12c0:	8800                	0x8800
    12c2:	0001                	nop
    12c4:	9200                	0x9200
    12c6:	0001                	nop
    12c8:	0100                	addi	s0,sp,128
    12ca:	5d00                	lw	s0,56(a0)
    12cc:	0198                	addi	a4,sp,192
    12ce:	0000                	unimp
    12d0:	01ac                	addi	a1,sp,200
    12d2:	0000                	unimp
    12d4:	0001                	nop
    12d6:	ac5d                	j	158c <_tbss_end+0x158c>
    12d8:	0001                	nop
    12da:	ba00                	fsd	fs0,48(a2)
    12dc:	0001                	nop
    12de:	0100                	addi	s0,sp,128
    12e0:	5c00                	lw	s0,56(s0)
	...
    12ea:	01b0                	addi	a2,sp,200
    12ec:	0000                	unimp
    12ee:	01bc                	addi	a5,sp,200
    12f0:	0000                	unimp
    12f2:	0001                	nop
    12f4:	c45d                	beqz	s0,13a2 <_tbss_end+0x13a2>
    12f6:	0001                	nop
    12f8:	d800                	sw	s0,48(s0)
    12fa:	0001                	nop
    12fc:	0100                	addi	s0,sp,128
    12fe:	5b00                	lw	s0,48(a4)
	...
    1308:	0198                	addi	a4,sp,192
    130a:	0000                	unimp
    130c:	01c0                	addi	s0,sp,196
    130e:	0000                	unimp
    1310:	0001                	nop
    1312:	c05e                	sw	s7,0(sp)
    1314:	0001                	nop
    1316:	d800                	sw	s0,48(s0)
    1318:	0001                	nop
    131a:	0100                	addi	s0,sp,128
    131c:	5c00                	lw	s0,56(s0)
	...
    1326:	01dc                	addi	a5,sp,196
    1328:	0000                	unimp
    132a:	023e                	slli	tp,tp,0xf
    132c:	0000                	unimp
    132e:	0001                	nop
    1330:	005d                	c.nop	23
    1332:	0000                	unimp
    1334:	0000                	unimp
    1336:	0000                	unimp
    1338:	ec00                	fsw	fs0,24(s0)
    133a:	0001                	nop
    133c:	2800                	fld	fs0,16(s0)
    133e:	0002                	c.slli64	zero
    1340:	0100                	addi	s0,sp,128
    1342:	5e00                	lw	s0,56(a2)
    1344:	0236                	slli	tp,tp,0xd
    1346:	0000                	unimp
    1348:	023a                	slli	tp,tp,0xe
    134a:	0000                	unimp
    134c:	0001                	nop
    134e:	005e                	c.slli	zero,0x17
    1350:	0000                	unimp
    1352:	0000                	unimp
    1354:	0000                	unimp
    1356:	1800                	addi	s0,sp,48
    1358:	0002                	c.slli64	zero
    135a:	2200                	fld	fs0,0(a2)
    135c:	0002                	c.slli64	zero
    135e:	0100                	addi	s0,sp,128
    1360:	5f00                	lw	s0,56(a4)
	...
    136a:	0308                	addi	a0,sp,384
    136c:	0000                	unimp
    136e:	0350                	addi	a2,sp,388
    1370:	0000                	unimp
    1372:	0001                	nop
    1374:	0056                	c.slli	zero,0x15
    1376:	0000                	unimp
    1378:	0000                	unimp
    137a:	0000                	unimp
    137c:	1600                	addi	s0,sp,800
    137e:	2a000003          	lb	zero,672(zero) # 2a0 <_tbss_end+0x2a0>
    1382:	01000003          	lb	zero,16(zero) # 10 <_tbss_end+0x10>
    1386:	5e00                	lw	s0,56(a2)
    1388:	0330                	addi	a2,sp,392
    138a:	0000                	unimp
    138c:	0332                	slli	t1,t1,0xc
    138e:	0000                	unimp
    1390:	0001                	nop
    1392:	325c                	fld	fa5,160(a2)
    1394:	36000003          	lb	zero,864(zero) # 360 <_tbss_end+0x360>
    1398:	01000003          	lb	zero,16(zero) # 10 <_tbss_end+0x10>
    139c:	5e00                	lw	s0,56(a2)
	...
    13a6:	0268                	addi	a0,sp,268
    13a8:	0000                	unimp
    13aa:	02a2                	slli	t0,t0,0x8
    13ac:	0000                	unimp
    13ae:	0001                	nop
    13b0:	a260                	fsd	fs0,192(a2)
    13b2:	0002                	c.slli64	zero
    13b4:	5000                	lw	s0,32(s0)
    13b6:	05000003          	lb	zero,80(zero) # 50 <_tbss_end+0x50>
    13ba:	7d00                	flw	fs0,56(a0)
    13bc:	4000                	lw	s0,0(s0)
    13be:	9f25                	0x9f25
	...
    13c8:	0268                	addi	a0,sp,268
    13ca:	0000                	unimp
    13cc:	02a6                	slli	t0,t0,0x9
    13ce:	0000                	unimp
    13d0:	0001                	nop
    13d2:	0002a65b          	0x2a65b
    13d6:	5000                	lw	s0,32(s0)
    13d8:	07000003          	lb	zero,112(zero) # 70 <_tbss_end+0x70>
    13dc:	7d00                	flw	fs0,56(a0)
    13de:	4000                	lw	s0,0(s0)
    13e0:	4024                	lw	s1,64(s0)
    13e2:	9f25                	0x9f25
	...
    13ec:	026c                	addi	a1,sp,268
    13ee:	0000                	unimp
    13f0:	0282                	c.slli64	t0
    13f2:	0000                	unimp
    13f4:	0001                	nop
    13f6:	825e                	mv	tp,s7
    13f8:	0002                	c.slli64	zero
    13fa:	c800                	sw	s0,16(s0)
    13fc:	0002                	c.slli64	zero
    13fe:	0100                	addi	s0,sp,128
    1400:	5600                	lw	s0,40(a2)
	...
    140a:	029c                	addi	a5,sp,320
    140c:	0000                	unimp
    140e:	02b8                	addi	a4,sp,328
    1410:	0000                	unimp
    1412:	0001                	nop
    1414:	b861                	j	cac <_tbss_end+0xcac>
    1416:	0002                	c.slli64	zero
    1418:	d200                	sw	s0,32(a2)
    141a:	0002                	c.slli64	zero
    141c:	0100                	addi	s0,sp,128
    141e:	5f00                	lw	s0,56(a4)
	...
    1428:	0268                	addi	a0,sp,268
    142a:	0000                	unimp
    142c:	026e                	slli	tp,tp,0x1b
    142e:	0000                	unimp
    1430:	0001                	nop
    1432:	7656                	flw	fa2,116(sp)
    1434:	0002                	c.slli64	zero
    1436:	7e00                	flw	fs0,56(a2)
    1438:	0002                	c.slli64	zero
    143a:	0100                	addi	s0,sp,128
    143c:	6100                	flw	fs0,0(a0)
    143e:	0282                	c.slli64	t0
    1440:	0000                	unimp
    1442:	029c                	addi	a5,sp,320
    1444:	0000                	unimp
    1446:	0001                	nop
    1448:	0061                	c.nop	24
    144a:	0000                	unimp
    144c:	0000                	unimp
    144e:	0000                	unimp
    1450:	9800                	0x9800
    1452:	0002                	c.slli64	zero
    1454:	9e00                	0x9e00
    1456:	0002                	c.slli64	zero
    1458:	0100                	addi	s0,sp,128
    145a:	6e00                	flw	fs0,24(a2)
    145c:	02ac                	addi	a1,sp,328
    145e:	0000                	unimp
    1460:	02b4                	addi	a3,sp,328
    1462:	0000                	unimp
    1464:	0001                	nop
    1466:	0002b85b          	0x2b85b
    146a:	3e00                	fld	fs0,56(a2)
    146c:	01000003          	lb	zero,16(zero) # 10 <_tbss_end+0x10>
    1470:	5b00                	lw	s0,48(a4)
	...
    147a:	0276                	slli	tp,tp,0x1d
    147c:	0000                	unimp
    147e:	0298                	addi	a4,sp,320
    1480:	0000                	unimp
    1482:	0001                	nop
    1484:	986e                	add	a6,a6,s11
    1486:	0002                	c.slli64	zero
    1488:	a200                	fsd	fs0,0(a2)
    148a:	0002                	c.slli64	zero
    148c:	0600                	addi	s0,sp,768
    148e:	7b00                	flw	fs0,48(a4)
    1490:	7e00                	flw	fs0,56(a2)
    1492:	1e00                	addi	s0,sp,816
    1494:	a29f 0002 e200      	0xe2000002a29f
    149a:	0002                	c.slli64	zero
    149c:	0100                	addi	s0,sp,128
    149e:	6000                	flw	fs0,0(s0)
	...
    14a8:	02e8                	addi	a0,sp,332
    14aa:	0000                	unimp
    14ac:	0314                	addi	a3,sp,384
    14ae:	0000                	unimp
    14b0:	0001                	nop
    14b2:	005e                	c.slli	zero,0x17
    14b4:	0000                	unimp
    14b6:	0000                	unimp
    14b8:	0000                	unimp
    14ba:	fc00                	fsw	fs0,56(s0)
    14bc:	0002                	c.slli64	zero
    14be:	1000                	addi	s0,sp,32
    14c0:	01000003          	lb	zero,16(zero) # 10 <_tbss_end+0x10>
    14c4:	6000                	flw	fs0,0(s0)
    14c6:	0310                	addi	a2,sp,384
    14c8:	0000                	unimp
    14ca:	0314                	addi	a3,sp,384
    14cc:	0000                	unimp
    14ce:	0008                	0x8
    14d0:	007e                	c.slli	zero,0x1f
    14d2:	2540                	fld	fs0,136(a0)
    14d4:	0081                	addi	ra,ra,0
    14d6:	9f22                	add	t5,t5,s0
	...
    14e0:	02ec                	addi	a1,sp,332
    14e2:	0000                	unimp
    14e4:	0306                	slli	t1,t1,0x1
    14e6:	0000                	unimp
    14e8:	0001                	nop
    14ea:	005f 0000 0000      	0x5f
    14f0:	0000                	unimp
    14f2:	f400                	fsw	fs0,40(s0)
    14f4:	0002                	c.slli64	zero
    14f6:	0800                	addi	s0,sp,16
    14f8:	01000003          	lb	zero,16(zero) # 10 <_tbss_end+0x10>
    14fc:	5600                	lw	s0,40(a2)
	...
    1506:	02da                	slli	t0,t0,0x16
    1508:	0000                	unimp
    150a:	02f0                	addi	a2,sp,332
    150c:	0000                	unimp
    150e:	0001                	nop
    1510:	0061                	c.nop	24
    1512:	0000                	unimp
    1514:	0000                	unimp
    1516:	0000                	unimp
    1518:	e400                	fsw	fs0,8(s0)
    151a:	0002                	c.slli64	zero
    151c:	ec00                	fsw	fs0,24(s0)
    151e:	0002                	c.slli64	zero
    1520:	0100                	addi	s0,sp,128
    1522:	5f00                	lw	s0,56(a4)
    1524:	02ec                	addi	a1,sp,332
    1526:	0000                	unimp
    1528:	030c                	addi	a1,sp,384
    152a:	0000                	unimp
    152c:	0006                	c.slli	zero,0x1
    152e:	7f8e                	flw	ft11,224(sp)
    1530:	007c                	addi	a5,sp,12
    1532:	9f1a                	add	t5,t5,t1
    1534:	030c                	addi	a1,sp,384
    1536:	0000                	unimp
    1538:	0326                	slli	t1,t1,0x9
    153a:	0000                	unimp
    153c:	0006                	c.slli	zero,0x1
    153e:	007c                	addi	a5,sp,12
    1540:	007f                	0x7f
    1542:	9f1a                	add	t5,t5,t1
	...
    154c:	02de                	slli	t0,t0,0x17
    154e:	0000                	unimp
    1550:	02f4                	addi	a3,sp,332
    1552:	0000                	unimp
    1554:	0001                	nop
    1556:	0056                	c.slli	zero,0x15
    1558:	0000                	unimp
    155a:	0000                	unimp
    155c:	0000                	unimp
    155e:	2600                	fld	fs0,8(a2)
    1560:	32000003          	lb	zero,800(zero) # 320 <_tbss_end+0x320>
    1564:	01000003          	lb	zero,16(zero) # 10 <_tbss_end+0x10>
    1568:	5c00                	lw	s0,56(s0)
	...
    1572:	0336                	slli	t1,t1,0xd
    1574:	0000                	unimp
    1576:	0348                	addi	a0,sp,388
    1578:	0000                	unimp
    157a:	0001                	nop
    157c:	005e                	c.slli	zero,0x17
    157e:	0000                	unimp
    1580:	0000                	unimp
    1582:	0000                	unimp
	...

Disassembly of section .debug_aranges:

00000000 <.debug_aranges>:
   0:	001c                	0x1c
   2:	0000                	unimp
   4:	0002                	c.slli64	zero
   6:	0000                	unimp
   8:	0000                	unimp
   a:	0004                	0x4
   c:	0000                	unimp
   e:	0000                	unimp
  10:	219c                	fld	fa5,0(a1)
  12:	8000                	0x8000
  14:	035e                	slli	t1,t1,0x17
	...
  1e:	0000                	unimp
  20:	001c                	0x1c
  22:	0000                	unimp
  24:	0002                	c.slli64	zero
  26:	121a                	slli	tp,tp,0x26
  28:	0000                	unimp
  2a:	0004                	0x4
  2c:	0000                	unimp
  2e:	0000                	unimp
  30:	24fa                	fld	fs1,408(sp)
  32:	8000                	0x8000
  34:	0352                	slli	t1,t1,0x14
	...
  3e:	0000                	unimp
  40:	0014                	0x14
  42:	0000                	unimp
  44:	0002                	c.slli64	zero
  46:	2492                	fld	fs1,256(sp)
  48:	0000                	unimp
  4a:	0004                	0x4
	...

Disassembly of section .debug_ranges:

00000000 <.debug_ranges>:
	...
   8:	0002                	c.slli64	zero
   a:	0000                	unimp
   c:	0172                	slli	sp,sp,0x1c
   e:	0000                	unimp
  10:	0176                	slli	sp,sp,0x1d
  12:	0000                	unimp
  14:	0356                	slli	t1,t1,0x15
  16:	0000                	unimp
  18:	0358                	addi	a4,sp,388
  1a:	0000                	unimp
  1c:	035e                	slli	t1,t1,0x17
	...
  26:	0000                	unimp
  28:	0018                	0x18
  2a:	0000                	unimp
  2c:	003a                	c.slli	zero,0xe
  2e:	0000                	unimp
  30:	00c2                	slli	ra,ra,0x10
  32:	0000                	unimp
  34:	00d0                	addi	a2,sp,68
	...
  3e:	0000                	unimp
  40:	00be                	slli	ra,ra,0xf
  42:	0000                	unimp
  44:	00c2                	slli	ra,ra,0x10
  46:	0000                	unimp
  48:	0264                	addi	s1,sp,268
  4a:	0000                	unimp
  4c:	0356                	slli	t1,t1,0x15
	...
  56:	0000                	unimp
  58:	026e                	slli	tp,tp,0x1b
  5a:	0000                	unimp
  5c:	0272                	slli	tp,tp,0x1c
  5e:	0000                	unimp
  60:	0276                	slli	tp,tp,0x1d
  62:	0000                	unimp
  64:	027a                	slli	tp,tp,0x1e
  66:	0000                	unimp
  68:	0286                	slli	t0,t0,0x1
  6a:	0000                	unimp
  6c:	0290                	addi	a2,sp,320
  6e:	0000                	unimp
  70:	0294                	addi	a3,sp,320
  72:	0000                	unimp
  74:	02f8                	addi	a4,sp,332
  76:	0000                	unimp
  78:	02fa                	slli	t0,t0,0x1e
  7a:	0000                	unimp
  7c:	02fe                	slli	t0,t0,0x1f
	...
  86:	0000                	unimp
  88:	02f8                	addi	a4,sp,332
  8a:	0000                	unimp
  8c:	02fa                	slli	t0,t0,0x1e
  8e:	0000                	unimp
  90:	02fe                	slli	t0,t0,0x1f
  92:	0000                	unimp
  94:	0334                	addi	a3,sp,392
  96:	0000                	unimp
  98:	033c                	addi	a5,sp,392
  9a:	0000                	unimp
  9c:	0348                	addi	a0,sp,388
  9e:	0000                	unimp
  a0:	034c                	addi	a1,sp,388
  a2:	0000                	unimp
  a4:	034e                	slli	t1,t1,0x13
	...
  ae:	0000                	unimp
  b0:	00d8                	addi	a4,sp,68
  b2:	0000                	unimp
  b4:	00fa                	slli	ra,ra,0x1e
  b6:	0000                	unimp
  b8:	0176                	slli	sp,sp,0x1d
  ba:	0000                	unimp
  bc:	0184                	addi	s1,sp,192
	...
  c6:	0000                	unimp
  c8:	0194                	addi	a3,sp,192
  ca:	0000                	unimp
  cc:	0198                	addi	a4,sp,192
  ce:	0000                	unimp
  d0:	019c                	addi	a5,sp,192
  d2:	0000                	unimp
  d4:	01a0                	addi	s0,sp,200
  d6:	0000                	unimp
  d8:	01a4                	addi	s1,sp,200
  da:	0000                	unimp
  dc:	0214                	addi	a3,sp,256
	...
  e6:	0000                	unimp
  e8:	0218                	addi	a4,sp,256
  ea:	0000                	unimp
  ec:	0244                	addi	s1,sp,260
  ee:	0000                	unimp
  f0:	0256                	slli	tp,tp,0x15
  f2:	0000                	unimp
  f4:	0264                	addi	s1,sp,268
	...
 102:	0000                	unimp
 104:	00b4                	addi	a3,sp,72
 106:	0000                	unimp
 108:	00b6                	slli	ra,ra,0xd
 10a:	0000                	unimp
 10c:	0350                	addi	a2,sp,388
	...
 116:	0000                	unimp
 118:	0018                	0x18
 11a:	0000                	unimp
 11c:	003c                	addi	a5,sp,8
 11e:	0000                	unimp
 120:	00b6                	slli	ra,ra,0xd
 122:	0000                	unimp
 124:	00c4                	addi	s1,sp,68
	...
 12e:	0000                	unimp
 130:	00cc                	addi	a1,sp,68
 132:	0000                	unimp
 134:	00f0                	addi	a2,sp,76
 136:	0000                	unimp
 138:	0154                	addi	a3,sp,132
 13a:	0000                	unimp
 13c:	0162                	slli	sp,sp,0x18
	...
 146:	0000                	unimp
 148:	0172                	slli	sp,sp,0x1c
 14a:	0000                	unimp
 14c:	017a                	slli	sp,sp,0x1e
 14e:	0000                	unimp
 150:	0182                	c.slli64	gp
 152:	0000                	unimp
 154:	01d8                	addi	a4,sp,196
	...
 15e:	0000                	unimp
 160:	01dc                	addi	a5,sp,196
 162:	0000                	unimp
 164:	0208                	addi	a0,sp,256
 166:	0000                	unimp
 168:	0228                	addi	a0,sp,264
 16a:	0000                	unimp
 16c:	0236                	slli	tp,tp,0xd
	...
 176:	0000                	unimp
 178:	0240                	addi	s0,sp,260
 17a:	0000                	unimp
 17c:	0244                	addi	s1,sp,260
 17e:	0000                	unimp
 180:	0248                	addi	a0,sp,260
 182:	0000                	unimp
 184:	024c                	addi	a1,sp,260
 186:	0000                	unimp
 188:	0256                	slli	tp,tp,0x15
 18a:	0000                	unimp
 18c:	0260                	addi	s0,sp,268
 18e:	0000                	unimp
 190:	0268                	addi	a0,sp,268
 192:	0000                	unimp
 194:	02c8                	addi	a0,sp,324
 196:	0000                	unimp
 198:	02ca                	slli	t0,t0,0x12
 19a:	0000                	unimp
 19c:	02ce                	slli	t0,t0,0x13
 19e:	0000                	unimp
 1a0:	02d6                	slli	t0,t0,0x15
 1a2:	0000                	unimp
 1a4:	02da                	slli	t0,t0,0x16
	...
 1ae:	0000                	unimp
 1b0:	02c8                	addi	a0,sp,324
 1b2:	0000                	unimp
 1b4:	02ca                	slli	t0,t0,0x12
 1b6:	0000                	unimp
 1b8:	02ce                	slli	t0,t0,0x13
 1ba:	0000                	unimp
 1bc:	02d6                	slli	t0,t0,0x15
 1be:	0000                	unimp
 1c0:	02da                	slli	t0,t0,0x16
 1c2:	0000                	unimp
 1c4:	0316                	slli	t1,t1,0x5
	...

Disassembly of section .debug_line:

00000000 <.debug_line>:
       0:	08f0                	addi	a2,sp,92
       2:	0000                	unimp
       4:	02260003          	lb	zero,34(a2)
       8:	0000                	unimp
       a:	0101                	addi	sp,sp,0
       c:	000d0efb          	0xd0efb
      10:	0101                	addi	sp,sp,0
      12:	0101                	addi	sp,sp,0
      14:	0000                	unimp
      16:	0100                	addi	s0,sp,128
      18:	0000                	unimp
      1a:	2e01                	jal	32a <_tbss_end+0x32a>
      1c:	2f2e                	fld	ft10,200(sp)
      1e:	2e2e                	fld	ft8,200(sp)
      20:	2f2e2e2f          	0x2f2e2e2f
      24:	2e2e                	fld	ft8,200(sp)
      26:	7369722f          	0x7369722f
      2a:	672d7663          	bgeu	s10,s2,696 <_tbss_end+0x696>
      2e:	6c2f6363          	bltu	t5,sp,6f4 <_tbss_end+0x6f4>
      32:	6269                	lui	tp,0x1a
      34:	00636367          	0x636367
      38:	64656d2f          	0x64656d2f
      3c:	6169                	addi	sp,sp,208
      3e:	7461732f          	0x7461732f
      42:	7968                	flw	fa0,116(a0)
      44:	2f61                	jal	7dc <_tbss_end+0x7dc>
      46:	6f636573          	csrrsi	a0,0x6f6,6
      4a:	646e                	flw	fs0,216(sp)
      4c:	7261                	lui	tp,0xffff8
      4e:	5f79                	li	t5,-2
      50:	7264                	flw	fs1,100(a2)
      52:	7669                	lui	a2,0xffffa
      54:	2f65                	jal	80c <_tbss_end+0x80c>
      56:	6f74                	flw	fa3,92(a4)
      58:	2f736c6f          	jal	s8,36b4e <_tbss_end+0x36b4e>
      5c:	6972                	flw	fs2,28(sp)
      5e:	33766373          	csrrsi	t1,mhpmevent23,12
      62:	2d32                	fld	fs10,264(sp)
      64:	6e75                	lui	t3,0x1d
      66:	776f6e6b          	0x776f6e6b
      6a:	2d6e                	fld	fs10,216(sp)
      6c:	6c65                	lui	s8,0x19
      6e:	2f66                	fld	ft10,88(sp)
      70:	6e69                	lui	t3,0x1a
      72:	64756c63          	bltu	a0,t2,6ca <_tbss_end+0x6ca>
      76:	2f65                	jal	82e <_tbss_end+0x82e>
      78:	00737973          	csrrci	s2,0x7,6
      7c:	64656d2f          	0x64656d2f
      80:	6169                	addi	sp,sp,208
      82:	7461732f          	0x7461732f
      86:	7968                	flw	fa0,116(a0)
      88:	2f61                	jal	820 <_tbss_end+0x820>
      8a:	6f636573          	csrrsi	a0,0x6f6,6
      8e:	646e                	flw	fs0,216(sp)
      90:	7261                	lui	tp,0xffff8
      92:	5f79                	li	t5,-2
      94:	7264                	flw	fs1,100(a2)
      96:	7669                	lui	a2,0xffffa
      98:	2f65                	jal	850 <_tbss_end+0x850>
      9a:	6972                	flw	fs2,28(sp)
      9c:	2d766373          	csrrsi	t1,0x2d7,12
      a0:	6f74                	flw	fa3,92(a4)
      a2:	2f736c6f          	jal	s8,36b98 <_tbss_end+0x36b98>
      a6:	6972                	flw	fs2,28(sp)
      a8:	2d766373          	csrrsi	t1,0x2d7,12
      ac:	2d756e67          	0x2d756e67
      b0:	6f74                	flw	fa3,92(a4)
      b2:	68636c6f          	jal	s8,36738 <_tbss_end+0x36738>
      b6:	6961                	lui	s2,0x18
      b8:	2f6e                	fld	ft10,216(sp)
      ba:	7562                	flw	fa0,56(sp)
      bc:	6c69                	lui	s8,0x1a
      be:	2f64                	fld	fs1,216(a4)
      c0:	7562                	flw	fa0,56(sp)
      c2:	6c69                	lui	s8,0x1a
      c4:	2d64                	fld	fs1,216(a0)
      c6:	2d636367          	0x2d636367
      ca:	656e                	flw	fa0,216(sp)
      cc:	62696c77          	0x62696c77
      d0:	732d                	lui	t1,0xfffeb
      d2:	6174                	flw	fa3,68(a0)
      d4:	2f326567          	0x2f326567
      d8:	2f636367          	0x2f636367
      dc:	6e69                	lui	t3,0x1a
      de:	64756c63          	bltu	a0,t2,736 <_tbss_end+0x736>
      e2:	0065                	c.nop	25
      e4:	64656d2f          	0x64656d2f
      e8:	6169                	addi	sp,sp,208
      ea:	7461732f          	0x7461732f
      ee:	7968                	flw	fa0,116(a0)
      f0:	2f61                	jal	888 <_tbss_end+0x888>
      f2:	6f636573          	csrrsi	a0,0x6f6,6
      f6:	646e                	flw	fs0,216(sp)
      f8:	7261                	lui	tp,0xffff8
      fa:	5f79                	li	t5,-2
      fc:	7264                	flw	fs1,100(a2)
      fe:	7669                	lui	a2,0xffffa
     100:	2f65                	jal	8b8 <_tbss_end+0x8b8>
     102:	6f74                	flw	fa3,92(a4)
     104:	2f736c6f          	jal	s8,36bfa <_tbss_end+0x36bfa>
     108:	6972                	flw	fs2,28(sp)
     10a:	33766373          	csrrsi	t1,mhpmevent23,12
     10e:	2d32                	fld	fs10,264(sp)
     110:	6e75                	lui	t3,0x1d
     112:	776f6e6b          	0x776f6e6b
     116:	2d6e                	fld	fs10,216(sp)
     118:	6c65                	lui	s8,0x19
     11a:	2f66                	fld	ft10,88(sp)
     11c:	6e69                	lui	t3,0x1a
     11e:	64756c63          	bltu	a0,t2,776 <_tbss_end+0x776>
     122:	0065                	c.nop	25
     124:	2e2e                	fld	ft8,200(sp)
     126:	2f2e2e2f          	0x2f2e2e2f
     12a:	2e2e                	fld	ft8,200(sp)
     12c:	2f2e2e2f          	0x2f2e2e2f
     130:	6972                	flw	fs2,28(sp)
     132:	2d766373          	csrrsi	t1,0x2d7,12
     136:	2f636367          	0x2f636367
     13a:	696c                	flw	fa1,84(a0)
     13c:	6762                	flw	fa4,24(sp)
     13e:	2e2f6363          	bltu	t5,sp,424 <_tbss_end+0x424>
     142:	2f2e                	fld	ft10,200(sp)
     144:	6e69                	lui	t3,0x1a
     146:	64756c63          	bltu	a0,t2,79e <_tbss_end+0x79e>
     14a:	0065                	c.nop	25
     14c:	2e2e                	fld	ft8,200(sp)
     14e:	2f2e2e2f          	0x2f2e2e2f
     152:	2e2e                	fld	ft8,200(sp)
     154:	2f2e2e2f          	0x2f2e2e2f
     158:	6972                	flw	fs2,28(sp)
     15a:	2d766373          	csrrsi	t1,0x2d7,12
     15e:	2f636367          	0x2f636367
     162:	696c                	flw	fa1,84(a0)
     164:	6762                	flw	fa4,24(sp)
     166:	2e2f6363          	bltu	t5,sp,44c <_tbss_end+0x44c>
     16a:	2f2e                	fld	ft10,200(sp)
     16c:	2f636367          	0x2f636367
     170:	666e6f63          	bltu	t3,t1,7ee <_tbss_end+0x7ee>
     174:	6769                	lui	a4,0x1a
     176:	7369722f          	0x7369722f
     17a:	2e007663          	bgeu	zero,zero,466 <_tbss_end+0x466>
     17e:	2f2e                	fld	ft10,200(sp)
     180:	2e2e                	fld	ft8,200(sp)
     182:	672f2e2f          	amoand.w.aqrl	t3,s2,(t5)
     186:	00006363          	bltu	zero,zero,18c <_tbss_end+0x18c>
     18a:	696c                	flw	fa1,84(a0)
     18c:	6762                	flw	fa4,24(sp)
     18e:	2e326363          	bltu	tp,gp,474 <_tbss_end+0x474>
     192:	00010063          	beqz	sp,192 <_tbss_end+0x192>
     196:	6c00                	flw	fs0,24(s0)
     198:	2e6b636f          	jal	t1,b647e <_tbss_end+0xb647e>
     19c:	0068                	addi	a0,sp,12
     19e:	0002                	c.slli64	zero
     1a0:	5f00                	lw	s0,56(a4)
     1a2:	7974                	flw	fa3,116(a0)
     1a4:	6570                	flw	fa2,76(a0)
     1a6:	00682e73          	csrrs	t3,0x6,a6
     1aa:	0002                	c.slli64	zero
     1ac:	7300                	flw	fs0,32(a4)
     1ae:	6474                	flw	fa3,76(s0)
     1b0:	6564                	flw	fs1,76(a0)
     1b2:	2e66                	fld	ft8,88(sp)
     1b4:	0068                	addi	a0,sp,12
     1b6:	72000003          	lb	zero,1824(zero) # 720 <_tbss_end+0x720>
     1ba:	6565                	lui	a0,0x19
     1bc:	746e                	flw	fs0,248(sp)
     1be:	682e                	flw	fa6,200(sp)
     1c0:	0200                	addi	s0,sp,256
     1c2:	0000                	unimp
     1c4:	7265                	lui	tp,0xffff9
     1c6:	6e72                	flw	ft8,28(sp)
     1c8:	00682e6f          	jal	t3,821ce <_tbss_end+0x821ce>
     1cc:	0002                	c.slli64	zero
     1ce:	7300                	flw	fs0,32(a4)
     1d0:	6474                	flw	fa3,76(s0)
     1d2:	696c                	flw	fa1,84(a0)
     1d4:	2e62                	fld	ft8,24(sp)
     1d6:	0068                	addi	a0,sp,12
     1d8:	0004                	0x4
     1da:	7500                	flw	fs0,40(a0)
     1dc:	696e                	flw	fs2,216(sp)
     1de:	2e647473          	csrrci	s0,0x2e6,8
     1e2:	0068                	addi	a0,sp,12
     1e4:	0002                	c.slli64	zero
     1e6:	7400                	flw	fs0,40(s0)
     1e8:	6d69                	lui	s10,0x1a
     1ea:	2e65                	jal	5a2 <_tbss_end+0x5a2>
     1ec:	0068                	addi	a0,sp,12
     1ee:	0004                	0x4
     1f0:	6800                	flw	fs0,16(s0)
     1f2:	7361                	lui	t1,0xffff8
     1f4:	7468                	flw	fa0,108(s0)
     1f6:	6261                	lui	tp,0x18
     1f8:	682e                	flw	fa6,200(sp)
     1fa:	0500                	addi	s0,sp,640
     1fc:	0000                	unimp
     1fe:	6972                	flw	fs2,28(sp)
     200:	2d766373          	csrrsi	t1,0x2d7,12
     204:	7374706f          	j	4813a <_tbss_end+0x4813a>
     208:	682e                	flw	fa6,200(sp)
     20a:	0600                	addi	s0,sp,768
     20c:	0000                	unimp
     20e:	6e69                	lui	t3,0x1a
     210:	632d6e73          	csrrsi	t3,0x632,26
     214:	74736e6f          	jal	t3,3715a <_tbss_end+0x3715a>
     218:	6e61                	lui	t3,0x18
     21a:	7374                	flw	fa3,100(a4)
     21c:	682e                	flw	fa6,200(sp)
     21e:	0700                	addi	s0,sp,896
     220:	0000                	unimp
     222:	696c                	flw	fa1,84(a0)
     224:	6762                	flw	fa4,24(sp)
     226:	2e326363          	bltu	tp,gp,50c <_tbss_end+0x50c>
     22a:	0068                	addi	a0,sp,12
     22c:	0001                	nop
     22e:	0000                	unimp
     230:	0105                	addi	sp,sp,1
     232:	0500                	addi	s0,sp,640
     234:	9c02                	jalr	s8
     236:	0021                	c.nop	8
     238:	0380                	addi	s0,sp,448
     23a:	0aa6                	slli	s5,s5,0x9
     23c:	0501                	addi	a0,a0,0
     23e:	09010303          	lb	t1,144(sp)
     242:	0000                	unimp
     244:	0301                	addi	t1,t1,0
     246:	7dd1                	lui	s11,0xffff4
     248:	0009                	c.nop	2
     24a:	0100                	addi	s0,sp,128
     24c:	00090103          	lb	sp,0(s2) # 18000 <_tbss_end+0x18000>
     250:	0100                	addi	s0,sp,128
     252:	00090103          	lb	sp,0(s2)
     256:	0100                	addi	s0,sp,128
     258:	00090103          	lb	sp,0(s2)
     25c:	0100                	addi	s0,sp,128
     25e:	00090103          	lb	sp,0(s2)
     262:	0100                	addi	s0,sp,128
     264:	00090103          	lb	sp,0(s2)
     268:	0100                	addi	s0,sp,128
     26a:	00090203          	lb	tp,0(s2)
     26e:	0100                	addi	s0,sp,128
     270:	0105                	addi	sp,sp,1
     272:	0306                	slli	t1,t1,0x1
     274:	000902a7          	0x902a7
     278:	0100                	addi	s0,sp,128
     27a:	0605                	addi	a2,a2,1
     27c:	097dd903          	lhu	s2,151(s11) # ffff4097 <__global_pointer$+0x7fff0cf3>
     280:	0002                	c.slli64	zero
     282:	0501                	addi	a0,a0,0
     284:	01030603          	lb	a2,16(t1) # ffff8010 <__global_pointer$+0x7fff4c6c>
     288:	0209                	addi	tp,tp,2
     28a:	0100                	addi	s0,sp,128
     28c:	0605                	addi	a2,a2,1
     28e:	0306                	slli	t1,t1,0x1
     290:	0900                	addi	s0,sp,144
     292:	0000                	unimp
     294:	0501                	addi	a0,a0,0
     296:	01030603          	lb	a2,16(t1)
     29a:	0209                	addi	tp,tp,2
     29c:	0100                	addi	s0,sp,128
     29e:	0605                	addi	a2,a2,1
     2a0:	0306                	slli	t1,t1,0x1
     2a2:	0900                	addi	s0,sp,144
     2a4:	0000                	unimp
     2a6:	0501                	addi	a0,a0,0
     2a8:	01030603          	lb	a2,16(t1)
     2ac:	0209                	addi	tp,tp,2
     2ae:	0100                	addi	s0,sp,128
     2b0:	00092503          	lw	a0,0(s2)
     2b4:	0100                	addi	s0,sp,128
     2b6:	0605                	addi	a2,a2,1
     2b8:	0306                	slli	t1,t1,0x1
     2ba:	0900                	addi	s0,sp,144
     2bc:	0000                	unimp
     2be:	0501                	addi	a0,a0,0
     2c0:	02030607          	0x2030607
     2c4:	0409                	addi	s0,s0,2
     2c6:	0100                	addi	s0,sp,128
     2c8:	0a05                	addi	s4,s4,1
     2ca:	0306                	slli	t1,t1,0x1
     2cc:	0900                	addi	s0,sp,144
     2ce:	0008                	0x8
     2d0:	0501                	addi	a0,a0,0
     2d2:	0604                	addi	s1,sp,768
     2d4:	04090403          	lb	s0,64(s2)
     2d8:	0100                	addi	s0,sp,128
     2da:	00090003          	lb	zero,0(s2)
     2de:	0100                	addi	s0,sp,128
     2e0:	00090003          	lb	zero,0(s2)
     2e4:	0100                	addi	s0,sp,128
     2e6:	00090003          	lb	zero,0(s2)
     2ea:	0100                	addi	s0,sp,128
     2ec:	00090003          	lb	zero,0(s2)
     2f0:	0100                	addi	s0,sp,128
     2f2:	10090003          	lb	zero,256(s2)
     2f6:	0100                	addi	s0,sp,128
     2f8:	12090203          	lb	tp,288(s2)
     2fc:	0100                	addi	s0,sp,128
     2fe:	0705                	addi	a4,a4,1
     300:	0306                	slli	t1,t1,0x1
     302:	0900                	addi	s0,sp,144
     304:	0000                	unimp
     306:	0501                	addi	a0,a0,0
     308:	0608                	addi	a0,sp,768
     30a:	02090503          	lb	a0,32(s2)
     30e:	0100                	addi	s0,sp,128
     310:	1105                	addi	sp,sp,-31
     312:	0306                	slli	t1,t1,0x1
     314:	0901                	addi	s2,s2,0
     316:	0000                	unimp
     318:	0501                	addi	a0,a0,0
     31a:	031e                	slli	t1,t1,0x7
     31c:	0900                	addi	s0,sp,144
     31e:	0004                	0x4
     320:	0501                	addi	a0,a0,0
     322:	097f030b          	0x97f030b
     326:	0004                	0x4
     328:	0501                	addi	a0,a0,0
     32a:	0608                	addi	a0,sp,768
     32c:	04090103          	lb	sp,64(s2)
     330:	0100                	addi	s0,sp,128
     332:	0b05                	addi	s6,s6,1
     334:	0306                	slli	t1,t1,0x1
     336:	0900                	addi	s0,sp,144
     338:	0000                	unimp
     33a:	0501                	addi	a0,a0,0
     33c:	0608                	addi	a0,sp,768
     33e:	04090103          	lb	sp,64(s2)
     342:	0100                	addi	s0,sp,128
     344:	0b05                	addi	s6,s6,1
     346:	0306                	slli	t1,t1,0x1
     348:	0900                	addi	s0,sp,144
     34a:	0000                	unimp
     34c:	0501                	addi	a0,a0,0
     34e:	0604                	addi	s1,sp,768
     350:	04090303          	lb	t1,64(s2)
     354:	0100                	addi	s0,sp,128
     356:	00090003          	lb	zero,0(s2)
     35a:	0100                	addi	s0,sp,128
     35c:	00090003          	lb	zero,0(s2)
     360:	0100                	addi	s0,sp,128
     362:	00090003          	lb	zero,0(s2)
     366:	0100                	addi	s0,sp,128
     368:	04090003          	lb	zero,64(s2)
     36c:	0100                	addi	s0,sp,128
     36e:	0a090003          	lb	zero,160(s2)
     372:	0100                	addi	s0,sp,128
     374:	00090003          	lb	zero,0(s2)
     378:	0100                	addi	s0,sp,128
     37a:	08090003          	lb	zero,128(s2)
     37e:	0100                	addi	s0,sp,128
     380:	08090003          	lb	zero,128(s2)
     384:	0100                	addi	s0,sp,128
     386:	00090003          	lb	zero,0(s2)
     38a:	0100                	addi	s0,sp,128
     38c:	06090003          	lb	zero,96(s2)
     390:	0100                	addi	s0,sp,128
     392:	06090003          	lb	zero,96(s2)
     396:	0100                	addi	s0,sp,128
     398:	04090003          	lb	zero,64(s2)
     39c:	0100                	addi	s0,sp,128
     39e:	04090003          	lb	zero,64(s2)
     3a2:	0100                	addi	s0,sp,128
     3a4:	06090003          	lb	zero,96(s2)
     3a8:	0100                	addi	s0,sp,128
     3aa:	02090003          	lb	zero,32(s2)
     3ae:	0100                	addi	s0,sp,128
     3b0:	04090003          	lb	zero,64(s2)
     3b4:	0100                	addi	s0,sp,128
     3b6:	0a090003          	lb	zero,160(s2)
     3ba:	0100                	addi	s0,sp,128
     3bc:	0a090003          	lb	zero,160(s2)
     3c0:	0100                	addi	s0,sp,128
     3c2:	00090003          	lb	zero,0(s2)
     3c6:	0100                	addi	s0,sp,128
     3c8:	06090003          	lb	zero,96(s2)
     3cc:	0100                	addi	s0,sp,128
     3ce:	06090003          	lb	zero,96(s2)
     3d2:	0100                	addi	s0,sp,128
     3d4:	04090003          	lb	zero,64(s2)
     3d8:	0100                	addi	s0,sp,128
     3da:	04090003          	lb	zero,64(s2)
     3de:	0100                	addi	s0,sp,128
     3e0:	04090003          	lb	zero,64(s2)
     3e4:	0100                	addi	s0,sp,128
     3e6:	00090003          	lb	zero,0(s2)
     3ea:	0100                	addi	s0,sp,128
     3ec:	04090003          	lb	zero,64(s2)
     3f0:	0100                	addi	s0,sp,128
     3f2:	00090103          	lb	sp,0(s2)
     3f6:	0100                	addi	s0,sp,128
     3f8:	0b05                	addi	s6,s6,1
     3fa:	0306                	slli	t1,t1,0x1
     3fc:	00fe                	slli	ra,ra,0x1f
     3fe:	0009                	c.nop	2
     400:	0100                	addi	s0,sp,128
     402:	0405                	addi	s0,s0,1
     404:	097ef503          	0x97ef503
     408:	0004                	0x4
     40a:	0601                	addi	a2,a2,0
     40c:	0e091503          	lh	a0,224(s2)
     410:	0100                	addi	s0,sp,128
     412:	0705                	addi	a4,a4,1
     414:	0306                	slli	t1,t1,0x1
     416:	0900                	addi	s0,sp,144
     418:	0000                	unimp
     41a:	0501                	addi	a0,a0,0
     41c:	0606                	slli	a2,a2,0x1
     41e:	02090103          	lb	sp,32(s2)
     422:	0100                	addi	s0,sp,128
     424:	0905                	addi	s2,s2,1
     426:	0306                	slli	t1,t1,0x1
     428:	0900                	addi	s0,sp,144
     42a:	0000                	unimp
     42c:	0501                	addi	a0,a0,0
     42e:	0604                	addi	s1,sp,768
     430:	06090203          	lb	tp,96(s2)
     434:	0100                	addi	s0,sp,128
     436:	00090003          	lb	zero,0(s2)
     43a:	0100                	addi	s0,sp,128
     43c:	00090003          	lb	zero,0(s2)
     440:	0100                	addi	s0,sp,128
     442:	00090003          	lb	zero,0(s2)
     446:	0100                	addi	s0,sp,128
     448:	00090003          	lb	zero,0(s2)
     44c:	0100                	addi	s0,sp,128
     44e:	10090003          	lb	zero,256(s2)
     452:	0100                	addi	s0,sp,128
     454:	12090203          	lb	tp,288(s2)
     458:	0100                	addi	s0,sp,128
     45a:	0705                	addi	a4,a4,1
     45c:	0306                	slli	t1,t1,0x1
     45e:	0900                	addi	s0,sp,144
     460:	0000                	unimp
     462:	0501                	addi	a0,a0,0
     464:	0608                	addi	a0,sp,768
     466:	02090903          	lb	s2,32(s2)
     46a:	0100                	addi	s0,sp,128
     46c:	0b05                	addi	s6,s6,1
     46e:	0306                	slli	t1,t1,0x1
     470:	0900                	addi	s0,sp,144
     472:	0000                	unimp
     474:	0501                	addi	a0,a0,0
     476:	0608                	addi	a0,sp,768
     478:	04090103          	lb	sp,64(s2)
     47c:	0100                	addi	s0,sp,128
     47e:	0b05                	addi	s6,s6,1
     480:	0306                	slli	t1,t1,0x1
     482:	0900                	addi	s0,sp,144
     484:	0000                	unimp
     486:	0501                	addi	a0,a0,0
     488:	0604                	addi	s1,sp,768
     48a:	02091203          	lh	tp,32(s2)
     48e:	0100                	addi	s0,sp,128
     490:	00090003          	lb	zero,0(s2)
     494:	0100                	addi	s0,sp,128
     496:	00090003          	lb	zero,0(s2)
     49a:	0100                	addi	s0,sp,128
     49c:	00090003          	lb	zero,0(s2)
     4a0:	0100                	addi	s0,sp,128
     4a2:	04090003          	lb	zero,64(s2)
     4a6:	0100                	addi	s0,sp,128
     4a8:	08090003          	lb	zero,128(s2)
     4ac:	0100                	addi	s0,sp,128
     4ae:	08090003          	lb	zero,128(s2)
     4b2:	0100                	addi	s0,sp,128
     4b4:	04090003          	lb	zero,64(s2)
     4b8:	0100                	addi	s0,sp,128
     4ba:	08090003          	lb	zero,128(s2)
     4be:	0100                	addi	s0,sp,128
     4c0:	00090003          	lb	zero,0(s2)
     4c4:	0100                	addi	s0,sp,128
     4c6:	06090003          	lb	zero,96(s2)
     4ca:	0100                	addi	s0,sp,128
     4cc:	06090003          	lb	zero,96(s2)
     4d0:	0100                	addi	s0,sp,128
     4d2:	04090003          	lb	zero,64(s2)
     4d6:	0100                	addi	s0,sp,128
     4d8:	04090003          	lb	zero,64(s2)
     4dc:	0100                	addi	s0,sp,128
     4de:	06090003          	lb	zero,96(s2)
     4e2:	0100                	addi	s0,sp,128
     4e4:	02090003          	lb	zero,32(s2)
     4e8:	0100                	addi	s0,sp,128
     4ea:	04090003          	lb	zero,64(s2)
     4ee:	0100                	addi	s0,sp,128
     4f0:	0a090003          	lb	zero,160(s2)
     4f4:	0100                	addi	s0,sp,128
     4f6:	0a090003          	lb	zero,160(s2)
     4fa:	0100                	addi	s0,sp,128
     4fc:	00090003          	lb	zero,0(s2)
     500:	0100                	addi	s0,sp,128
     502:	06090003          	lb	zero,96(s2)
     506:	0100                	addi	s0,sp,128
     508:	06090003          	lb	zero,96(s2)
     50c:	0100                	addi	s0,sp,128
     50e:	04090003          	lb	zero,64(s2)
     512:	0100                	addi	s0,sp,128
     514:	04090003          	lb	zero,64(s2)
     518:	0100                	addi	s0,sp,128
     51a:	04090003          	lb	zero,64(s2)
     51e:	0100                	addi	s0,sp,128
     520:	00090003          	lb	zero,0(s2)
     524:	0100                	addi	s0,sp,128
     526:	04090003          	lb	zero,64(s2)
     52a:	0100                	addi	s0,sp,128
     52c:	0305                	addi	t1,t1,1
     52e:	0900e303          	0x900e303
     532:	0000                	unimp
     534:	0301                	addi	t1,t1,0
     536:	0901                	addi	s2,s2,0
     538:	0000                	unimp
     53a:	0501                	addi	a0,a0,0
     53c:	0601                	addi	a2,a2,0
     53e:	0900e103          	0x900e103
     542:	0000                	unimp
     544:	0501                	addi	a0,a0,0
     546:	0304                	addi	s1,sp,384
     548:	7e9d                	lui	t4,0xfffe7
     54a:	0409                	addi	s0,s0,2
     54c:	0100                	addi	s0,sp,128
     54e:	0805                	addi	a6,a6,1
     550:	0306                	slli	t1,t1,0x1
     552:	0912                	slli	s2,s2,0x4
     554:	000e                	c.slli	zero,0x3
     556:	0301                	addi	t1,t1,0
     558:	0902                	c.slli64	s2
     55a:	0000                	unimp
     55c:	0501                	addi	a0,a0,0
     55e:	0003060b          	0x3060b
     562:	0009                	c.nop	2
     564:	0100                	addi	s0,sp,128
     566:	0805                	addi	a6,a6,1
     568:	0306                	slli	t1,t1,0x1
     56a:	0901                	addi	s2,s2,0
     56c:	0004                	0x4
     56e:	0501                	addi	a0,a0,0
     570:	0003060b          	0x3060b
     574:	0009                	c.nop	2
     576:	0100                	addi	s0,sp,128
     578:	0805                	addi	a6,a6,1
     57a:	0306                	slli	t1,t1,0x1
     57c:	0901                	addi	s2,s2,0
     57e:	0004                	0x4
     580:	0501                	addi	a0,a0,0
     582:	0103060b          	0x103060b
     586:	0009                	c.nop	2
     588:	0100                	addi	s0,sp,128
     58a:	1e05                	addi	t3,t3,-31
     58c:	04097f03          	0x4097f03
     590:	0100                	addi	s0,sp,128
     592:	0805                	addi	a6,a6,1
     594:	04090303          	lb	t1,64(s2)
     598:	0100                	addi	s0,sp,128
     59a:	1105                	addi	sp,sp,-31
     59c:	04097d03          	0x4097d03
     5a0:	0100                	addi	s0,sp,128
     5a2:	0805                	addi	a6,a6,1
     5a4:	04090303          	lb	t1,64(s2)
     5a8:	0100                	addi	s0,sp,128
     5aa:	0b05                	addi	s6,s6,1
     5ac:	04097d03          	0x4097d03
     5b0:	0100                	addi	s0,sp,128
     5b2:	0805                	addi	a6,a6,1
     5b4:	0306                	slli	t1,t1,0x1
     5b6:	0901                	addi	s2,s2,0
     5b8:	0004                	0x4
     5ba:	0301                	addi	t1,t1,0
     5bc:	0902                	c.slli64	s2
     5be:	0000                	unimp
     5c0:	0301                	addi	t1,t1,0
     5c2:	0900                	addi	s0,sp,144
     5c4:	0000                	unimp
     5c6:	0301                	addi	t1,t1,0
     5c8:	0900                	addi	s0,sp,144
     5ca:	0000                	unimp
     5cc:	0301                	addi	t1,t1,0
     5ce:	0900                	addi	s0,sp,144
     5d0:	0000                	unimp
     5d2:	0301                	addi	t1,t1,0
     5d4:	0900                	addi	s0,sp,144
     5d6:	0000                	unimp
     5d8:	0301                	addi	t1,t1,0
     5da:	0900                	addi	s0,sp,144
     5dc:	0006                	c.slli	zero,0x1
     5de:	0301                	addi	t1,t1,0
     5e0:	0900                	addi	s0,sp,144
     5e2:	0000                	unimp
     5e4:	0301                	addi	t1,t1,0
     5e6:	0900                	addi	s0,sp,144
     5e8:	0008                	0x8
     5ea:	0301                	addi	t1,t1,0
     5ec:	0900                	addi	s0,sp,144
     5ee:	0008                	0x8
     5f0:	0301                	addi	t1,t1,0
     5f2:	0900                	addi	s0,sp,144
     5f4:	0000                	unimp
     5f6:	0301                	addi	t1,t1,0
     5f8:	0900                	addi	s0,sp,144
     5fa:	0006                	c.slli	zero,0x1
     5fc:	0301                	addi	t1,t1,0
     5fe:	0900                	addi	s0,sp,144
     600:	0006                	c.slli	zero,0x1
     602:	0301                	addi	t1,t1,0
     604:	0900                	addi	s0,sp,144
     606:	0004                	0x4
     608:	0301                	addi	t1,t1,0
     60a:	0900                	addi	s0,sp,144
     60c:	0004                	0x4
     60e:	0301                	addi	t1,t1,0
     610:	0900                	addi	s0,sp,144
     612:	0006                	c.slli	zero,0x1
     614:	0301                	addi	t1,t1,0
     616:	0900                	addi	s0,sp,144
     618:	0004                	0x4
     61a:	0301                	addi	t1,t1,0
     61c:	0900                	addi	s0,sp,144
     61e:	0004                	0x4
     620:	0301                	addi	t1,t1,0
     622:	0900                	addi	s0,sp,144
     624:	000a                	c.slli	zero,0x2
     626:	0301                	addi	t1,t1,0
     628:	0900                	addi	s0,sp,144
     62a:	0006                	c.slli	zero,0x1
     62c:	0301                	addi	t1,t1,0
     62e:	0900                	addi	s0,sp,144
     630:	0004                	0x4
     632:	0301                	addi	t1,t1,0
     634:	0900                	addi	s0,sp,144
     636:	0006                	c.slli	zero,0x1
     638:	0301                	addi	t1,t1,0
     63a:	0900                	addi	s0,sp,144
     63c:	0006                	c.slli	zero,0x1
     63e:	0301                	addi	t1,t1,0
     640:	0900                	addi	s0,sp,144
     642:	0004                	0x4
     644:	0301                	addi	t1,t1,0
     646:	0900                	addi	s0,sp,144
     648:	0004                	0x4
     64a:	0301                	addi	t1,t1,0
     64c:	0900                	addi	s0,sp,144
     64e:	0006                	c.slli	zero,0x1
     650:	0301                	addi	t1,t1,0
     652:	0900                	addi	s0,sp,144
     654:	0002                	c.slli64	zero
     656:	0301                	addi	t1,t1,0
     658:	0900                	addi	s0,sp,144
     65a:	0006                	c.slli	zero,0x1
     65c:	0501                	addi	a0,a0,0
     65e:	09150307          	0x9150307
     662:	0002                	c.slli64	zero
     664:	0501                	addi	a0,a0,0
     666:	060a                	slli	a2,a2,0x2
     668:	00090003          	lb	zero,0(s2)
     66c:	0100                	addi	s0,sp,128
     66e:	0405                	addi	s0,s0,1
     670:	0306                	slli	t1,t1,0x1
     672:	00040913          	mv	s2,s0
     676:	0301                	addi	t1,t1,0
     678:	0900                	addi	s0,sp,144
     67a:	0000                	unimp
     67c:	0301                	addi	t1,t1,0
     67e:	0900                	addi	s0,sp,144
     680:	0000                	unimp
     682:	0301                	addi	t1,t1,0
     684:	0900                	addi	s0,sp,144
     686:	0000                	unimp
     688:	0301                	addi	t1,t1,0
     68a:	0900                	addi	s0,sp,144
     68c:	0000                	unimp
     68e:	0301                	addi	t1,t1,0
     690:	0900                	addi	s0,sp,144
     692:	0010                	0x10
     694:	0301                	addi	t1,t1,0
     696:	0901                	addi	s2,s2,0
     698:	001c                	0x1c
     69a:	0501                	addi	a0,a0,0
     69c:	00030607          	0x30607
     6a0:	0009                	c.nop	2
     6a2:	0100                	addi	s0,sp,128
     6a4:	0805                	addi	a6,a6,1
     6a6:	0306                	slli	t1,t1,0x1
     6a8:	090a                	slli	s2,s2,0x2
     6aa:	0002                	c.slli64	zero
     6ac:	0601                	addi	a2,a2,0
     6ae:	00090203          	lb	tp,0(s2)
     6b2:	0100                	addi	s0,sp,128
     6b4:	0b05                	addi	s6,s6,1
     6b6:	02097e03          	0x2097e03
     6ba:	0100                	addi	s0,sp,128
     6bc:	1405                	addi	s0,s0,-31
     6be:	04090003          	lb	zero,64(s2)
     6c2:	0100                	addi	s0,sp,128
     6c4:	0405                	addi	s0,s0,1
     6c6:	0a097503          	0xa097503
     6ca:	0100                	addi	s0,sp,128
     6cc:	0805                	addi	a6,a6,1
     6ce:	0306                	slli	t1,t1,0x1
     6d0:	091e                	slli	s2,s2,0x7
     6d2:	000e                	c.slli	zero,0x3
     6d4:	0301                	addi	t1,t1,0
     6d6:	00000903          	lb	s2,0(zero) # 0 <_tbss_end>
     6da:	0301                	addi	t1,t1,0
     6dc:	0902                	c.slli64	s2
     6de:	0000                	unimp
     6e0:	0501                	addi	a0,a0,0
     6e2:	061e                	slli	a2,a2,0x7
     6e4:	00090003          	lb	zero,0(s2)
     6e8:	0100                	addi	s0,sp,128
     6ea:	1105                	addi	sp,sp,-31
     6ec:	04090003          	lb	zero,64(s2)
     6f0:	0100                	addi	s0,sp,128
     6f2:	0b05                	addi	s6,s6,1
     6f4:	04090003          	lb	zero,64(s2)
     6f8:	0100                	addi	s0,sp,128
     6fa:	0805                	addi	a6,a6,1
     6fc:	0306                	slli	t1,t1,0x1
     6fe:	0901                	addi	s2,s2,0
     700:	0002                	c.slli64	zero
     702:	0601                	addi	a2,a2,0
     704:	00090503          	lb	a0,0(s2)
     708:	0100                	addi	s0,sp,128
     70a:	0b05                	addi	s6,s6,1
     70c:	04097c03          	0x4097c03
     710:	0100                	addi	s0,sp,128
     712:	0805                	addi	a6,a6,1
     714:	04090403          	lb	s0,64(s2)
     718:	0100                	addi	s0,sp,128
     71a:	1105                	addi	sp,sp,-31
     71c:	04097d03          	0x4097d03
     720:	0100                	addi	s0,sp,128
     722:	1e05                	addi	t3,t3,-31
     724:	04090003          	lb	zero,64(s2)
     728:	0100                	addi	s0,sp,128
     72a:	0b05                	addi	s6,s6,1
     72c:	04090003          	lb	zero,64(s2)
     730:	0100                	addi	s0,sp,128
     732:	0805                	addi	a6,a6,1
     734:	04090303          	lb	t1,64(s2)
     738:	0100                	addi	s0,sp,128
     73a:	0b05                	addi	s6,s6,1
     73c:	0a097b03          	0xa097b03
     740:	0100                	addi	s0,sp,128
     742:	0805                	addi	a6,a6,1
     744:	0306                	slli	t1,t1,0x1
     746:	0901                	addi	s2,s2,0
     748:	0004                	0x4
     74a:	0301                	addi	t1,t1,0
     74c:	0901                	addi	s2,s2,0
     74e:	0000                	unimp
     750:	0301                	addi	t1,t1,0
     752:	0901                	addi	s2,s2,0
     754:	0000                	unimp
     756:	0301                	addi	t1,t1,0
     758:	0902                	c.slli64	s2
     75a:	0000                	unimp
     75c:	0301                	addi	t1,t1,0
     75e:	0900                	addi	s0,sp,144
     760:	0000                	unimp
     762:	0301                	addi	t1,t1,0
     764:	0900                	addi	s0,sp,144
     766:	0000                	unimp
     768:	0301                	addi	t1,t1,0
     76a:	0900                	addi	s0,sp,144
     76c:	0000                	unimp
     76e:	0301                	addi	t1,t1,0
     770:	0900                	addi	s0,sp,144
     772:	0000                	unimp
     774:	0301                	addi	t1,t1,0
     776:	0900                	addi	s0,sp,144
     778:	0000                	unimp
     77a:	0301                	addi	t1,t1,0
     77c:	0900                	addi	s0,sp,144
     77e:	0000                	unimp
     780:	0301                	addi	t1,t1,0
     782:	0900                	addi	s0,sp,144
     784:	0004                	0x4
     786:	0301                	addi	t1,t1,0
     788:	0900                	addi	s0,sp,144
     78a:	000a                	c.slli	zero,0x2
     78c:	0301                	addi	t1,t1,0
     78e:	0900                	addi	s0,sp,144
     790:	0000                	unimp
     792:	0301                	addi	t1,t1,0
     794:	0900                	addi	s0,sp,144
     796:	0006                	c.slli	zero,0x1
     798:	0301                	addi	t1,t1,0
     79a:	0900                	addi	s0,sp,144
     79c:	0006                	c.slli	zero,0x1
     79e:	0301                	addi	t1,t1,0
     7a0:	0900                	addi	s0,sp,144
     7a2:	0004                	0x4
     7a4:	0301                	addi	t1,t1,0
     7a6:	0900                	addi	s0,sp,144
     7a8:	0004                	0x4
     7aa:	0301                	addi	t1,t1,0
     7ac:	0900                	addi	s0,sp,144
     7ae:	0006                	c.slli	zero,0x1
     7b0:	0301                	addi	t1,t1,0
     7b2:	0900                	addi	s0,sp,144
     7b4:	0004                	0x4
     7b6:	0301                	addi	t1,t1,0
     7b8:	0900                	addi	s0,sp,144
     7ba:	0004                	0x4
     7bc:	0301                	addi	t1,t1,0
     7be:	0900                	addi	s0,sp,144
     7c0:	0004                	0x4
     7c2:	0301                	addi	t1,t1,0
     7c4:	0900                	addi	s0,sp,144
     7c6:	0006                	c.slli	zero,0x1
     7c8:	0301                	addi	t1,t1,0
     7ca:	0900                	addi	s0,sp,144
     7cc:	000a                	c.slli	zero,0x2
     7ce:	0301                	addi	t1,t1,0
     7d0:	0900                	addi	s0,sp,144
     7d2:	0006                	c.slli	zero,0x1
     7d4:	0301                	addi	t1,t1,0
     7d6:	0900                	addi	s0,sp,144
     7d8:	0006                	c.slli	zero,0x1
     7da:	0301                	addi	t1,t1,0
     7dc:	0900                	addi	s0,sp,144
     7de:	0004                	0x4
     7e0:	0301                	addi	t1,t1,0
     7e2:	0900                	addi	s0,sp,144
     7e4:	0004                	0x4
     7e6:	0301                	addi	t1,t1,0
     7e8:	0900                	addi	s0,sp,144
     7ea:	0006                	c.slli	zero,0x1
     7ec:	0301                	addi	t1,t1,0
     7ee:	0900                	addi	s0,sp,144
     7f0:	0006                	c.slli	zero,0x1
     7f2:	0601                	addi	a2,a2,0
     7f4:	00090103          	lb	sp,0(s2)
     7f8:	0100                	addi	s0,sp,128
     7fa:	02097f03          	0x2097f03
     7fe:	0100                	addi	s0,sp,128
     800:	0306                	slli	t1,t1,0x1
     802:	0900                	addi	s0,sp,144
     804:	0004                	0x4
     806:	0301                	addi	t1,t1,0
     808:	0901                	addi	s2,s2,0
     80a:	0000                	unimp
     80c:	0301                	addi	t1,t1,0
     80e:	0900                	addi	s0,sp,144
     810:	0000                	unimp
     812:	0301                	addi	t1,t1,0
     814:	0900                	addi	s0,sp,144
     816:	0000                	unimp
     818:	0301                	addi	t1,t1,0
     81a:	0900                	addi	s0,sp,144
     81c:	0000                	unimp
     81e:	0301                	addi	t1,t1,0
     820:	0900                	addi	s0,sp,144
     822:	0008                	0x8
     824:	0301                	addi	t1,t1,0
     826:	0900                	addi	s0,sp,144
     828:	0004                	0x4
     82a:	0301                	addi	t1,t1,0
     82c:	0900                	addi	s0,sp,144
     82e:	0004                	0x4
     830:	0301                	addi	t1,t1,0
     832:	0900                	addi	s0,sp,144
     834:	0002                	c.slli64	zero
     836:	0301                	addi	t1,t1,0
     838:	0900                	addi	s0,sp,144
     83a:	0004                	0x4
     83c:	0301                	addi	t1,t1,0
     83e:	0900                	addi	s0,sp,144
     840:	0000                	unimp
     842:	0301                	addi	t1,t1,0
     844:	0900                	addi	s0,sp,144
     846:	0004                	0x4
     848:	0301                	addi	t1,t1,0
     84a:	0900                	addi	s0,sp,144
     84c:	0010                	0x10
     84e:	0301                	addi	t1,t1,0
     850:	0900                	addi	s0,sp,144
     852:	0000                	unimp
     854:	0301                	addi	t1,t1,0
     856:	0900                	addi	s0,sp,144
     858:	0000                	unimp
     85a:	0301                	addi	t1,t1,0
     85c:	0900                	addi	s0,sp,144
     85e:	0004                	0x4
     860:	0301                	addi	t1,t1,0
     862:	0900                	addi	s0,sp,144
     864:	0002                	c.slli64	zero
     866:	0301                	addi	t1,t1,0
     868:	0900                	addi	s0,sp,144
     86a:	0006                	c.slli	zero,0x1
     86c:	0301                	addi	t1,t1,0
     86e:	0902                	c.slli64	s2
     870:	0000                	unimp
     872:	0501                	addi	a0,a0,0
     874:	0003060b          	0x3060b
     878:	0009                	c.nop	2
     87a:	0100                	addi	s0,sp,128
     87c:	1405                	addi	s0,s0,-31
     87e:	04090003          	lb	zero,64(s2)
     882:	0100                	addi	s0,sp,128
     884:	0805                	addi	a6,a6,1
     886:	04097e03          	0x4097e03
     88a:	0100                	addi	s0,sp,128
     88c:	0b05                	addi	s6,s6,1
     88e:	0c097d03          	0xc097d03
     892:	0100                	addi	s0,sp,128
     894:	0805                	addi	a6,a6,1
     896:	04090303          	lb	t1,64(s2)
     89a:	0100                	addi	s0,sp,128
     89c:	0b05                	addi	s6,s6,1
     89e:	02090803          	lb	a6,32(s2)
     8a2:	0100                	addi	s0,sp,128
     8a4:	2105                	jal	cc4 <_tbss_end+0xcc4>
     8a6:	02097a03          	0x2097a03
     8aa:	0100                	addi	s0,sp,128
     8ac:	0505                	addi	a0,a0,1
     8ae:	0306                	slli	t1,t1,0x1
     8b0:	0902                	c.slli64	s2
     8b2:	0004                	0x4
     8b4:	0501                	addi	a0,a0,0
     8b6:	00030607          	0x30607
     8ba:	0009                	c.nop	2
     8bc:	0100                	addi	s0,sp,128
     8be:	0505                	addi	a0,a0,1
     8c0:	0306                	slli	t1,t1,0x1
     8c2:	0901                	addi	s2,s2,0
     8c4:	0002                	c.slli64	zero
     8c6:	0301                	addi	t1,t1,0
     8c8:	0900                	addi	s0,sp,144
     8ca:	0000                	unimp
     8cc:	0301                	addi	t1,t1,0
     8ce:	0900                	addi	s0,sp,144
     8d0:	0000                	unimp
     8d2:	0301                	addi	t1,t1,0
     8d4:	0900                	addi	s0,sp,144
     8d6:	0000                	unimp
     8d8:	0301                	addi	t1,t1,0
     8da:	0900                	addi	s0,sp,144
     8dc:	0000                	unimp
     8de:	0501                	addi	a0,a0,0
     8e0:	43030607          	0x43030607
     8e4:	0209                	addi	tp,tp,2
     8e6:	0100                	addi	s0,sp,128
     8e8:	02097f03          	0x2097f03
     8ec:	0100                	addi	s0,sp,128
     8ee:	0409                	addi	s0,s0,2
     8f0:	0000                	unimp
     8f2:	0101                	addi	sp,sp,0
     8f4:	09a0                	addi	s0,sp,216
     8f6:	0000                	unimp
     8f8:	02260003          	lb	zero,34(a2) # ffffa022 <__global_pointer$+0x7fff6c7e>
     8fc:	0000                	unimp
     8fe:	0101                	addi	sp,sp,0
     900:	000d0efb          	0xd0efb
     904:	0101                	addi	sp,sp,0
     906:	0101                	addi	sp,sp,0
     908:	0000                	unimp
     90a:	0100                	addi	s0,sp,128
     90c:	0000                	unimp
     90e:	2e01                	jal	c1e <_tbss_end+0xc1e>
     910:	2f2e                	fld	ft10,200(sp)
     912:	2e2e                	fld	ft8,200(sp)
     914:	2f2e2e2f          	0x2f2e2e2f
     918:	2e2e                	fld	ft8,200(sp)
     91a:	7369722f          	0x7369722f
     91e:	672d7663          	bgeu	s10,s2,f8a <_tbss_end+0xf8a>
     922:	6c2f6363          	bltu	t5,sp,fe8 <_tbss_end+0xfe8>
     926:	6269                	lui	tp,0x1a
     928:	00636367          	0x636367
     92c:	64656d2f          	0x64656d2f
     930:	6169                	addi	sp,sp,208
     932:	7461732f          	0x7461732f
     936:	7968                	flw	fa0,116(a0)
     938:	2f61                	jal	10d0 <_tbss_end+0x10d0>
     93a:	6f636573          	csrrsi	a0,0x6f6,6
     93e:	646e                	flw	fs0,216(sp)
     940:	7261                	lui	tp,0xffff8
     942:	5f79                	li	t5,-2
     944:	7264                	flw	fs1,100(a2)
     946:	7669                	lui	a2,0xffffa
     948:	2f65                	jal	1100 <_tbss_end+0x1100>
     94a:	6f74                	flw	fa3,92(a4)
     94c:	2f736c6f          	jal	s8,37442 <_tbss_end+0x37442>
     950:	6972                	flw	fs2,28(sp)
     952:	33766373          	csrrsi	t1,mhpmevent23,12
     956:	2d32                	fld	fs10,264(sp)
     958:	6e75                	lui	t3,0x1d
     95a:	776f6e6b          	0x776f6e6b
     95e:	2d6e                	fld	fs10,216(sp)
     960:	6c65                	lui	s8,0x19
     962:	2f66                	fld	ft10,88(sp)
     964:	6e69                	lui	t3,0x1a
     966:	64756c63          	bltu	a0,t2,fbe <_tbss_end+0xfbe>
     96a:	2f65                	jal	1122 <_tbss_end+0x1122>
     96c:	00737973          	csrrci	s2,0x7,6
     970:	64656d2f          	0x64656d2f
     974:	6169                	addi	sp,sp,208
     976:	7461732f          	0x7461732f
     97a:	7968                	flw	fa0,116(a0)
     97c:	2f61                	jal	1114 <_tbss_end+0x1114>
     97e:	6f636573          	csrrsi	a0,0x6f6,6
     982:	646e                	flw	fs0,216(sp)
     984:	7261                	lui	tp,0xffff8
     986:	5f79                	li	t5,-2
     988:	7264                	flw	fs1,100(a2)
     98a:	7669                	lui	a2,0xffffa
     98c:	2f65                	jal	1144 <_tbss_end+0x1144>
     98e:	6972                	flw	fs2,28(sp)
     990:	2d766373          	csrrsi	t1,0x2d7,12
     994:	6f74                	flw	fa3,92(a4)
     996:	2f736c6f          	jal	s8,3748c <_tbss_end+0x3748c>
     99a:	6972                	flw	fs2,28(sp)
     99c:	2d766373          	csrrsi	t1,0x2d7,12
     9a0:	2d756e67          	0x2d756e67
     9a4:	6f74                	flw	fa3,92(a4)
     9a6:	68636c6f          	jal	s8,3702c <_tbss_end+0x3702c>
     9aa:	6961                	lui	s2,0x18
     9ac:	2f6e                	fld	ft10,216(sp)
     9ae:	7562                	flw	fa0,56(sp)
     9b0:	6c69                	lui	s8,0x1a
     9b2:	2f64                	fld	fs1,216(a4)
     9b4:	7562                	flw	fa0,56(sp)
     9b6:	6c69                	lui	s8,0x1a
     9b8:	2d64                	fld	fs1,216(a0)
     9ba:	2d636367          	0x2d636367
     9be:	656e                	flw	fa0,216(sp)
     9c0:	62696c77          	0x62696c77
     9c4:	732d                	lui	t1,0xfffeb
     9c6:	6174                	flw	fa3,68(a0)
     9c8:	2f326567          	0x2f326567
     9cc:	2f636367          	0x2f636367
     9d0:	6e69                	lui	t3,0x1a
     9d2:	64756c63          	bltu	a0,t2,102a <_tbss_end+0x102a>
     9d6:	0065                	c.nop	25
     9d8:	64656d2f          	0x64656d2f
     9dc:	6169                	addi	sp,sp,208
     9de:	7461732f          	0x7461732f
     9e2:	7968                	flw	fa0,116(a0)
     9e4:	2f61                	jal	117c <_tbss_end+0x117c>
     9e6:	6f636573          	csrrsi	a0,0x6f6,6
     9ea:	646e                	flw	fs0,216(sp)
     9ec:	7261                	lui	tp,0xffff8
     9ee:	5f79                	li	t5,-2
     9f0:	7264                	flw	fs1,100(a2)
     9f2:	7669                	lui	a2,0xffffa
     9f4:	2f65                	jal	11ac <_tbss_end+0x11ac>
     9f6:	6f74                	flw	fa3,92(a4)
     9f8:	2f736c6f          	jal	s8,374ee <_tbss_end+0x374ee>
     9fc:	6972                	flw	fs2,28(sp)
     9fe:	33766373          	csrrsi	t1,mhpmevent23,12
     a02:	2d32                	fld	fs10,264(sp)
     a04:	6e75                	lui	t3,0x1d
     a06:	776f6e6b          	0x776f6e6b
     a0a:	2d6e                	fld	fs10,216(sp)
     a0c:	6c65                	lui	s8,0x19
     a0e:	2f66                	fld	ft10,88(sp)
     a10:	6e69                	lui	t3,0x1a
     a12:	64756c63          	bltu	a0,t2,106a <_tbss_end+0x106a>
     a16:	0065                	c.nop	25
     a18:	2e2e                	fld	ft8,200(sp)
     a1a:	2f2e2e2f          	0x2f2e2e2f
     a1e:	2e2e                	fld	ft8,200(sp)
     a20:	2f2e2e2f          	0x2f2e2e2f
     a24:	6972                	flw	fs2,28(sp)
     a26:	2d766373          	csrrsi	t1,0x2d7,12
     a2a:	2f636367          	0x2f636367
     a2e:	696c                	flw	fa1,84(a0)
     a30:	6762                	flw	fa4,24(sp)
     a32:	2e2f6363          	bltu	t5,sp,d18 <_tbss_end+0xd18>
     a36:	2f2e                	fld	ft10,200(sp)
     a38:	6e69                	lui	t3,0x1a
     a3a:	64756c63          	bltu	a0,t2,1092 <_tbss_end+0x1092>
     a3e:	0065                	c.nop	25
     a40:	2e2e                	fld	ft8,200(sp)
     a42:	2f2e2e2f          	0x2f2e2e2f
     a46:	2e2e                	fld	ft8,200(sp)
     a48:	2f2e2e2f          	0x2f2e2e2f
     a4c:	6972                	flw	fs2,28(sp)
     a4e:	2d766373          	csrrsi	t1,0x2d7,12
     a52:	2f636367          	0x2f636367
     a56:	696c                	flw	fa1,84(a0)
     a58:	6762                	flw	fa4,24(sp)
     a5a:	2e2f6363          	bltu	t5,sp,d40 <_tbss_end+0xd40>
     a5e:	2f2e                	fld	ft10,200(sp)
     a60:	2f636367          	0x2f636367
     a64:	666e6f63          	bltu	t3,t1,10e2 <_tbss_end+0x10e2>
     a68:	6769                	lui	a4,0x1a
     a6a:	7369722f          	0x7369722f
     a6e:	2e007663          	bgeu	zero,zero,d5a <_tbss_end+0xd5a>
     a72:	2f2e                	fld	ft10,200(sp)
     a74:	2e2e                	fld	ft8,200(sp)
     a76:	672f2e2f          	amoand.w.aqrl	t3,s2,(t5)
     a7a:	00006363          	bltu	zero,zero,a80 <_tbss_end+0xa80>
     a7e:	696c                	flw	fa1,84(a0)
     a80:	6762                	flw	fa4,24(sp)
     a82:	2e326363          	bltu	tp,gp,d68 <_tbss_end+0xd68>
     a86:	00010063          	beqz	sp,a86 <_tbss_end+0xa86>
     a8a:	6c00                	flw	fs0,24(s0)
     a8c:	2e6b636f          	jal	t1,b6d72 <_tbss_end+0xb6d72>
     a90:	0068                	addi	a0,sp,12
     a92:	0002                	c.slli64	zero
     a94:	5f00                	lw	s0,56(a4)
     a96:	7974                	flw	fa3,116(a0)
     a98:	6570                	flw	fa2,76(a0)
     a9a:	00682e73          	csrrs	t3,0x6,a6
     a9e:	0002                	c.slli64	zero
     aa0:	7300                	flw	fs0,32(a4)
     aa2:	6474                	flw	fa3,76(s0)
     aa4:	6564                	flw	fs1,76(a0)
     aa6:	2e66                	fld	ft8,88(sp)
     aa8:	0068                	addi	a0,sp,12
     aaa:	72000003          	lb	zero,1824(zero) # 720 <_tbss_end+0x720>
     aae:	6565                	lui	a0,0x19
     ab0:	746e                	flw	fs0,248(sp)
     ab2:	682e                	flw	fa6,200(sp)
     ab4:	0200                	addi	s0,sp,256
     ab6:	0000                	unimp
     ab8:	7265                	lui	tp,0xffff9
     aba:	6e72                	flw	ft8,28(sp)
     abc:	00682e6f          	jal	t3,82ac2 <_tbss_end+0x82ac2>
     ac0:	0002                	c.slli64	zero
     ac2:	7300                	flw	fs0,32(a4)
     ac4:	6474                	flw	fa3,76(s0)
     ac6:	696c                	flw	fa1,84(a0)
     ac8:	2e62                	fld	ft8,24(sp)
     aca:	0068                	addi	a0,sp,12
     acc:	0004                	0x4
     ace:	7500                	flw	fs0,40(a0)
     ad0:	696e                	flw	fs2,216(sp)
     ad2:	2e647473          	csrrci	s0,0x2e6,8
     ad6:	0068                	addi	a0,sp,12
     ad8:	0002                	c.slli64	zero
     ada:	7400                	flw	fs0,40(s0)
     adc:	6d69                	lui	s10,0x1a
     ade:	2e65                	jal	e96 <_tbss_end+0xe96>
     ae0:	0068                	addi	a0,sp,12
     ae2:	0004                	0x4
     ae4:	6800                	flw	fs0,16(s0)
     ae6:	7361                	lui	t1,0xffff8
     ae8:	7468                	flw	fa0,108(s0)
     aea:	6261                	lui	tp,0x18
     aec:	682e                	flw	fa6,200(sp)
     aee:	0500                	addi	s0,sp,640
     af0:	0000                	unimp
     af2:	6972                	flw	fs2,28(sp)
     af4:	2d766373          	csrrsi	t1,0x2d7,12
     af8:	7374706f          	j	48a2e <_tbss_end+0x48a2e>
     afc:	682e                	flw	fa6,200(sp)
     afe:	0600                	addi	s0,sp,768
     b00:	0000                	unimp
     b02:	6e69                	lui	t3,0x1a
     b04:	632d6e73          	csrrsi	t3,0x632,26
     b08:	74736e6f          	jal	t3,37a4e <_tbss_end+0x37a4e>
     b0c:	6e61                	lui	t3,0x18
     b0e:	7374                	flw	fa3,100(a4)
     b10:	682e                	flw	fa6,200(sp)
     b12:	0700                	addi	s0,sp,896
     b14:	0000                	unimp
     b16:	696c                	flw	fa1,84(a0)
     b18:	6762                	flw	fa4,24(sp)
     b1a:	2e326363          	bltu	tp,gp,e00 <_tbss_end+0xe00>
     b1e:	0068                	addi	a0,sp,12
     b20:	0001                	nop
     b22:	0000                	unimp
     b24:	0105                	addi	sp,sp,1
     b26:	0500                	addi	s0,sp,640
     b28:	fa02                	fsw	ft0,52(sp)
     b2a:	0024                	addi	s1,sp,8
     b2c:	0380                	addi	s0,sp,448
     b2e:	0a9a                	slli	s5,s5,0x6
     b30:	0501                	addi	a0,a0,0
     b32:	09010303          	lb	t1,144(sp)
     b36:	0000                	unimp
     b38:	0301                	addi	t1,t1,0
     b3a:	0902                	c.slli64	s2
     b3c:	0000                	unimp
     b3e:	0301                	addi	t1,t1,0
     b40:	00097ddb          	0x97ddb
     b44:	0100                	addi	s0,sp,128
     b46:	00090103          	lb	sp,0(s2) # 18000 <_tbss_end+0x18000>
     b4a:	0100                	addi	s0,sp,128
     b4c:	00090103          	lb	sp,0(s2)
     b50:	0100                	addi	s0,sp,128
     b52:	00090103          	lb	sp,0(s2)
     b56:	0100                	addi	s0,sp,128
     b58:	00090103          	lb	sp,0(s2)
     b5c:	0100                	addi	s0,sp,128
     b5e:	00090103          	lb	sp,0(s2)
     b62:	0100                	addi	s0,sp,128
     b64:	00090203          	lb	tp,0(s2)
     b68:	0100                	addi	s0,sp,128
     b6a:	0605                	addi	a2,a2,1
     b6c:	0306                	slli	t1,t1,0x1
     b6e:	0900                	addi	s0,sp,144
     b70:	0000                	unimp
     b72:	0501                	addi	a0,a0,0
     b74:	01030603          	lb	a2,16(t1) # ffff8010 <__global_pointer$+0x7fff4c6c>
     b78:	0209                	addi	tp,tp,2
     b7a:	0100                	addi	s0,sp,128
     b7c:	0605                	addi	a2,a2,1
     b7e:	0306                	slli	t1,t1,0x1
     b80:	0900                	addi	s0,sp,144
     b82:	0000                	unimp
     b84:	0501                	addi	a0,a0,0
     b86:	01030603          	lb	a2,16(t1)
     b8a:	0209                	addi	tp,tp,2
     b8c:	0100                	addi	s0,sp,128
     b8e:	0605                	addi	a2,a2,1
     b90:	0306                	slli	t1,t1,0x1
     b92:	0900                	addi	s0,sp,144
     b94:	0000                	unimp
     b96:	0501                	addi	a0,a0,0
     b98:	01030603          	lb	a2,16(t1)
     b9c:	0209                	addi	tp,tp,2
     b9e:	0100                	addi	s0,sp,128
     ba0:	0605                	addi	a2,a2,1
     ba2:	0306                	slli	t1,t1,0x1
     ba4:	0900                	addi	s0,sp,144
     ba6:	0000                	unimp
     ba8:	0501                	addi	a0,a0,0
     baa:	25030603          	lb	a2,592(t1)
     bae:	0209                	addi	tp,tp,2
     bb0:	0100                	addi	s0,sp,128
     bb2:	0605                	addi	a2,a2,1
     bb4:	0306                	slli	t1,t1,0x1
     bb6:	0900                	addi	s0,sp,144
     bb8:	0000                	unimp
     bba:	0501                	addi	a0,a0,0
     bbc:	02030607          	0x2030607
     bc0:	0409                	addi	s0,s0,2
     bc2:	0100                	addi	s0,sp,128
     bc4:	0a05                	addi	s4,s4,1
     bc6:	0306                	slli	t1,t1,0x1
     bc8:	0900                	addi	s0,sp,144
     bca:	0008                	0x8
     bcc:	0501                	addi	a0,a0,0
     bce:	0604                	addi	s1,sp,768
     bd0:	04090403          	lb	s0,64(s2)
     bd4:	0100                	addi	s0,sp,128
     bd6:	00090003          	lb	zero,0(s2)
     bda:	0100                	addi	s0,sp,128
     bdc:	00090003          	lb	zero,0(s2)
     be0:	0100                	addi	s0,sp,128
     be2:	00090003          	lb	zero,0(s2)
     be6:	0100                	addi	s0,sp,128
     be8:	00090003          	lb	zero,0(s2)
     bec:	0100                	addi	s0,sp,128
     bee:	10090003          	lb	zero,256(s2)
     bf2:	0100                	addi	s0,sp,128
     bf4:	14090203          	lb	tp,320(s2)
     bf8:	0100                	addi	s0,sp,128
     bfa:	0705                	addi	a4,a4,1
     bfc:	0306                	slli	t1,t1,0x1
     bfe:	0900                	addi	s0,sp,144
     c00:	0000                	unimp
     c02:	0501                	addi	a0,a0,0
     c04:	0608                	addi	a0,sp,768
     c06:	04090503          	lb	a0,64(s2)
     c0a:	0100                	addi	s0,sp,128
     c0c:	1105                	addi	sp,sp,-31
     c0e:	0306                	slli	t1,t1,0x1
     c10:	0901                	addi	s2,s2,0
     c12:	0000                	unimp
     c14:	0501                	addi	a0,a0,0
     c16:	031e                	slli	t1,t1,0x7
     c18:	0900                	addi	s0,sp,144
     c1a:	0004                	0x4
     c1c:	0501                	addi	a0,a0,0
     c1e:	097f030b          	0x97f030b
     c22:	0004                	0x4
     c24:	0501                	addi	a0,a0,0
     c26:	0608                	addi	a0,sp,768
     c28:	04090103          	lb	sp,64(s2)
     c2c:	0100                	addi	s0,sp,128
     c2e:	0b05                	addi	s6,s6,1
     c30:	0306                	slli	t1,t1,0x1
     c32:	0900                	addi	s0,sp,144
     c34:	0000                	unimp
     c36:	0501                	addi	a0,a0,0
     c38:	0608                	addi	a0,sp,768
     c3a:	04090103          	lb	sp,64(s2)
     c3e:	0100                	addi	s0,sp,128
     c40:	0b05                	addi	s6,s6,1
     c42:	0306                	slli	t1,t1,0x1
     c44:	0900                	addi	s0,sp,144
     c46:	0000                	unimp
     c48:	0501                	addi	a0,a0,0
     c4a:	0604                	addi	s1,sp,768
     c4c:	04090303          	lb	t1,64(s2)
     c50:	0100                	addi	s0,sp,128
     c52:	00090003          	lb	zero,0(s2)
     c56:	0100                	addi	s0,sp,128
     c58:	00090003          	lb	zero,0(s2)
     c5c:	0100                	addi	s0,sp,128
     c5e:	00090003          	lb	zero,0(s2)
     c62:	0100                	addi	s0,sp,128
     c64:	04090003          	lb	zero,64(s2)
     c68:	0100                	addi	s0,sp,128
     c6a:	0a090003          	lb	zero,160(s2)
     c6e:	0100                	addi	s0,sp,128
     c70:	00090003          	lb	zero,0(s2)
     c74:	0100                	addi	s0,sp,128
     c76:	08090003          	lb	zero,128(s2)
     c7a:	0100                	addi	s0,sp,128
     c7c:	08090003          	lb	zero,128(s2)
     c80:	0100                	addi	s0,sp,128
     c82:	00090003          	lb	zero,0(s2)
     c86:	0100                	addi	s0,sp,128
     c88:	04090003          	lb	zero,64(s2)
     c8c:	0100                	addi	s0,sp,128
     c8e:	02090003          	lb	zero,32(s2)
     c92:	0100                	addi	s0,sp,128
     c94:	04090003          	lb	zero,64(s2)
     c98:	0100                	addi	s0,sp,128
     c9a:	04090003          	lb	zero,64(s2)
     c9e:	0100                	addi	s0,sp,128
     ca0:	02090003          	lb	zero,32(s2)
     ca4:	0100                	addi	s0,sp,128
     ca6:	04090003          	lb	zero,64(s2)
     caa:	0100                	addi	s0,sp,128
     cac:	04090003          	lb	zero,64(s2)
     cb0:	0100                	addi	s0,sp,128
     cb2:	08090003          	lb	zero,128(s2)
     cb6:	0100                	addi	s0,sp,128
     cb8:	04090003          	lb	zero,64(s2)
     cbc:	0100                	addi	s0,sp,128
     cbe:	06090003          	lb	zero,96(s2)
     cc2:	0100                	addi	s0,sp,128
     cc4:	04090003          	lb	zero,64(s2)
     cc8:	0100                	addi	s0,sp,128
     cca:	02090003          	lb	zero,32(s2)
     cce:	0100                	addi	s0,sp,128
     cd0:	04090003          	lb	zero,64(s2)
     cd4:	0100                	addi	s0,sp,128
     cd6:	04090003          	lb	zero,64(s2)
     cda:	0100                	addi	s0,sp,128
     cdc:	02090003          	lb	zero,32(s2)
     ce0:	0100                	addi	s0,sp,128
     ce2:	02090003          	lb	zero,32(s2)
     ce6:	0100                	addi	s0,sp,128
     ce8:	00090003          	lb	zero,0(s2)
     cec:	0100                	addi	s0,sp,128
     cee:	00090103          	lb	sp,0(s2)
     cf2:	0100                	addi	s0,sp,128
     cf4:	0705                	addi	a4,a4,1
     cf6:	00092e03          	lw	t3,0(s2)
     cfa:	0100                	addi	s0,sp,128
     cfc:	0405                	addi	s0,s0,1
     cfe:	00090203          	lb	tp,0(s2)
     d02:	0100                	addi	s0,sp,128
     d04:	1205                	addi	tp,tp,-31
     d06:	0306                	slli	t1,t1,0x1
     d08:	0900                	addi	s0,sp,144
     d0a:	0000                	unimp
     d0c:	0501                	addi	a0,a0,0
     d0e:	0604                	addi	s1,sp,768
     d10:	04090103          	lb	sp,64(s2)
     d14:	0100                	addi	s0,sp,128
     d16:	00090103          	lb	sp,0(s2)
     d1a:	0100                	addi	s0,sp,128
     d1c:	0c05                	addi	s8,s8,1
     d1e:	0306                	slli	t1,t1,0x1
     d20:	0900                	addi	s0,sp,144
     d22:	0000                	unimp
     d24:	0501                	addi	a0,a0,0
     d26:	0301                	addi	t1,t1,0
     d28:	01b4                	addi	a3,sp,200
     d2a:	0209                	addi	tp,tp,2
     d2c:	0100                	addi	s0,sp,128
     d2e:	0405                	addi	s0,s0,1
     d30:	097e8d03          	lb	s10,151(t4) # fffe7097 <__global_pointer$+0x7ffe3cf3>
     d34:	0002                	c.slli64	zero
     d36:	0601                	addi	a2,a2,0
     d38:	0e091503          	lh	a0,224(s2)
     d3c:	0100                	addi	s0,sp,128
     d3e:	0705                	addi	a4,a4,1
     d40:	0306                	slli	t1,t1,0x1
     d42:	0900                	addi	s0,sp,144
     d44:	0000                	unimp
     d46:	0501                	addi	a0,a0,0
     d48:	0606                	slli	a2,a2,0x1
     d4a:	02090103          	lb	sp,32(s2)
     d4e:	0100                	addi	s0,sp,128
     d50:	0905                	addi	s2,s2,1
     d52:	0306                	slli	t1,t1,0x1
     d54:	0900                	addi	s0,sp,144
     d56:	0000                	unimp
     d58:	0501                	addi	a0,a0,0
     d5a:	0604                	addi	s1,sp,768
     d5c:	06090203          	lb	tp,96(s2)
     d60:	0100                	addi	s0,sp,128
     d62:	00090003          	lb	zero,0(s2)
     d66:	0100                	addi	s0,sp,128
     d68:	00090003          	lb	zero,0(s2)
     d6c:	0100                	addi	s0,sp,128
     d6e:	00090003          	lb	zero,0(s2)
     d72:	0100                	addi	s0,sp,128
     d74:	00090003          	lb	zero,0(s2)
     d78:	0100                	addi	s0,sp,128
     d7a:	10090003          	lb	zero,256(s2)
     d7e:	0100                	addi	s0,sp,128
     d80:	14090203          	lb	tp,320(s2)
     d84:	0100                	addi	s0,sp,128
     d86:	0705                	addi	a4,a4,1
     d88:	0306                	slli	t1,t1,0x1
     d8a:	0900                	addi	s0,sp,144
     d8c:	0000                	unimp
     d8e:	0501                	addi	a0,a0,0
     d90:	0608                	addi	a0,sp,768
     d92:	04090903          	lb	s2,64(s2)
     d96:	0100                	addi	s0,sp,128
     d98:	0b05                	addi	s6,s6,1
     d9a:	0306                	slli	t1,t1,0x1
     d9c:	0900                	addi	s0,sp,144
     d9e:	0000                	unimp
     da0:	0501                	addi	a0,a0,0
     da2:	0608                	addi	a0,sp,768
     da4:	04090103          	lb	sp,64(s2)
     da8:	0100                	addi	s0,sp,128
     daa:	0405                	addi	s0,s0,1
     dac:	00091203          	lh	tp,0(s2)
     db0:	0100                	addi	s0,sp,128
     db2:	00090003          	lb	zero,0(s2)
     db6:	0100                	addi	s0,sp,128
     db8:	00090003          	lb	zero,0(s2)
     dbc:	0100                	addi	s0,sp,128
     dbe:	00090003          	lb	zero,0(s2)
     dc2:	0100                	addi	s0,sp,128
     dc4:	04090003          	lb	zero,64(s2)
     dc8:	0100                	addi	s0,sp,128
     dca:	06090003          	lb	zero,96(s2)
     dce:	0100                	addi	s0,sp,128
     dd0:	08090003          	lb	zero,128(s2)
     dd4:	0100                	addi	s0,sp,128
     dd6:	04090003          	lb	zero,64(s2)
     dda:	0100                	addi	s0,sp,128
     ddc:	08090003          	lb	zero,128(s2)
     de0:	0100                	addi	s0,sp,128
     de2:	00090003          	lb	zero,0(s2)
     de6:	0100                	addi	s0,sp,128
     de8:	04090003          	lb	zero,64(s2)
     dec:	0100                	addi	s0,sp,128
     dee:	02090003          	lb	zero,32(s2)
     df2:	0100                	addi	s0,sp,128
     df4:	04090003          	lb	zero,64(s2)
     df8:	0100                	addi	s0,sp,128
     dfa:	04090003          	lb	zero,64(s2)
     dfe:	0100                	addi	s0,sp,128
     e00:	02090003          	lb	zero,32(s2)
     e04:	0100                	addi	s0,sp,128
     e06:	04090003          	lb	zero,64(s2)
     e0a:	0100                	addi	s0,sp,128
     e0c:	04090003          	lb	zero,64(s2)
     e10:	0100                	addi	s0,sp,128
     e12:	08090003          	lb	zero,128(s2)
     e16:	0100                	addi	s0,sp,128
     e18:	04090003          	lb	zero,64(s2)
     e1c:	0100                	addi	s0,sp,128
     e1e:	06090003          	lb	zero,96(s2)
     e22:	0100                	addi	s0,sp,128
     e24:	04090003          	lb	zero,64(s2)
     e28:	0100                	addi	s0,sp,128
     e2a:	02090003          	lb	zero,32(s2)
     e2e:	0100                	addi	s0,sp,128
     e30:	04090003          	lb	zero,64(s2)
     e34:	0100                	addi	s0,sp,128
     e36:	04090003          	lb	zero,64(s2)
     e3a:	0100                	addi	s0,sp,128
     e3c:	02090003          	lb	zero,32(s2)
     e40:	0100                	addi	s0,sp,128
     e42:	02090003          	lb	zero,32(s2)
     e46:	0100                	addi	s0,sp,128
     e48:	00090003          	lb	zero,0(s2)
     e4c:	0100                	addi	s0,sp,128
     e4e:	0306                	slli	t1,t1,0x1
     e50:	0962                	slli	s2,s2,0x18
     e52:	0002                	c.slli64	zero
     e54:	0501                	addi	a0,a0,0
     e56:	0608                	addi	a0,sp,768
     e58:	0e091203          	lh	tp,224(s2)
     e5c:	0100                	addi	s0,sp,128
     e5e:	00090203          	lb	tp,0(s2)
     e62:	0100                	addi	s0,sp,128
     e64:	0b05                	addi	s6,s6,1
     e66:	0306                	slli	t1,t1,0x1
     e68:	0900                	addi	s0,sp,144
     e6a:	0000                	unimp
     e6c:	0501                	addi	a0,a0,0
     e6e:	0608                	addi	a0,sp,768
     e70:	04090103          	lb	sp,64(s2)
     e74:	0100                	addi	s0,sp,128
     e76:	0b05                	addi	s6,s6,1
     e78:	0306                	slli	t1,t1,0x1
     e7a:	0900                	addi	s0,sp,144
     e7c:	0000                	unimp
     e7e:	0501                	addi	a0,a0,0
     e80:	0608                	addi	a0,sp,768
     e82:	04090103          	lb	sp,64(s2)
     e86:	0100                	addi	s0,sp,128
     e88:	0b05                	addi	s6,s6,1
     e8a:	0306                	slli	t1,t1,0x1
     e8c:	0901                	addi	s2,s2,0
     e8e:	0000                	unimp
     e90:	0501                	addi	a0,a0,0
     e92:	031e                	slli	t1,t1,0x7
     e94:	097f                	0x97f
     e96:	0004                	0x4
     e98:	0501                	addi	a0,a0,0
     e9a:	0308                	addi	a0,sp,384
     e9c:	00040903          	lb	s2,0(s0)
     ea0:	0501                	addi	a0,a0,0
     ea2:	0311                	addi	t1,t1,4
     ea4:	097d                	addi	s2,s2,31
     ea6:	0008                	0x8
     ea8:	0501                	addi	a0,a0,0
     eaa:	0900030b          	0x900030b
     eae:	0004                	0x4
     eb0:	0501                	addi	a0,a0,0
     eb2:	0608                	addi	a0,sp,768
     eb4:	04090103          	lb	sp,64(s2)
     eb8:	0100                	addi	s0,sp,128
     eba:	00090203          	lb	tp,0(s2)
     ebe:	0100                	addi	s0,sp,128
     ec0:	00090003          	lb	zero,0(s2)
     ec4:	0100                	addi	s0,sp,128
     ec6:	00090003          	lb	zero,0(s2)
     eca:	0100                	addi	s0,sp,128
     ecc:	00090003          	lb	zero,0(s2)
     ed0:	0100                	addi	s0,sp,128
     ed2:	00090003          	lb	zero,0(s2)
     ed6:	0100                	addi	s0,sp,128
     ed8:	06090003          	lb	zero,96(s2)
     edc:	0100                	addi	s0,sp,128
     ede:	00090003          	lb	zero,0(s2)
     ee2:	0100                	addi	s0,sp,128
     ee4:	08090003          	lb	zero,128(s2)
     ee8:	0100                	addi	s0,sp,128
     eea:	08090003          	lb	zero,128(s2)
     eee:	0100                	addi	s0,sp,128
     ef0:	00090003          	lb	zero,0(s2)
     ef4:	0100                	addi	s0,sp,128
     ef6:	04090003          	lb	zero,64(s2)
     efa:	0100                	addi	s0,sp,128
     efc:	02090003          	lb	zero,32(s2)
     f00:	0100                	addi	s0,sp,128
     f02:	04090003          	lb	zero,64(s2)
     f06:	0100                	addi	s0,sp,128
     f08:	04090003          	lb	zero,64(s2)
     f0c:	0100                	addi	s0,sp,128
     f0e:	02090003          	lb	zero,32(s2)
     f12:	0100                	addi	s0,sp,128
     f14:	04090003          	lb	zero,64(s2)
     f18:	0100                	addi	s0,sp,128
     f1a:	04090003          	lb	zero,64(s2)
     f1e:	0100                	addi	s0,sp,128
     f20:	0a090003          	lb	zero,160(s2)
     f24:	0100                	addi	s0,sp,128
     f26:	06090003          	lb	zero,96(s2)
     f2a:	0100                	addi	s0,sp,128
     f2c:	04090003          	lb	zero,64(s2)
     f30:	0100                	addi	s0,sp,128
     f32:	04090003          	lb	zero,64(s2)
     f36:	0100                	addi	s0,sp,128
     f38:	02090003          	lb	zero,32(s2)
     f3c:	0100                	addi	s0,sp,128
     f3e:	04090003          	lb	zero,64(s2)
     f42:	0100                	addi	s0,sp,128
     f44:	04090003          	lb	zero,64(s2)
     f48:	0100                	addi	s0,sp,128
     f4a:	02090003          	lb	zero,32(s2)
     f4e:	0100                	addi	s0,sp,128
     f50:	02090003          	lb	zero,32(s2)
     f54:	0100                	addi	s0,sp,128
     f56:	00090003          	lb	zero,0(s2)
     f5a:	0100                	addi	s0,sp,128
     f5c:	0705                	addi	a4,a4,1
     f5e:	02091503          	lh	a0,32(s2)
     f62:	0100                	addi	s0,sp,128
     f64:	0a05                	addi	s4,s4,1
     f66:	0306                	slli	t1,t1,0x1
     f68:	0900                	addi	s0,sp,144
     f6a:	0000                	unimp
     f6c:	0501                	addi	a0,a0,0
     f6e:	0604                	addi	s1,sp,768
     f70:	04091303          	lh	t1,64(s2)
     f74:	0100                	addi	s0,sp,128
     f76:	00090003          	lb	zero,0(s2)
     f7a:	0100                	addi	s0,sp,128
     f7c:	00090003          	lb	zero,0(s2)
     f80:	0100                	addi	s0,sp,128
     f82:	00090003          	lb	zero,0(s2)
     f86:	0100                	addi	s0,sp,128
     f88:	00090003          	lb	zero,0(s2)
     f8c:	0100                	addi	s0,sp,128
     f8e:	10090003          	lb	zero,256(s2)
     f92:	0100                	addi	s0,sp,128
     f94:	1c090103          	lb	sp,448(s2)
     f98:	0100                	addi	s0,sp,128
     f9a:	0705                	addi	a4,a4,1
     f9c:	0306                	slli	t1,t1,0x1
     f9e:	0900                	addi	s0,sp,144
     fa0:	0000                	unimp
     fa2:	0501                	addi	a0,a0,0
     fa4:	0608                	addi	a0,sp,768
     fa6:	04090a03          	lb	s4,64(s2)
     faa:	0100                	addi	s0,sp,128
     fac:	0b05                	addi	s6,s6,1
     fae:	0306                	slli	t1,t1,0x1
     fb0:	0900                	addi	s0,sp,144
     fb2:	0000                	unimp
     fb4:	0501                	addi	a0,a0,0
     fb6:	0314                	addi	a3,sp,384
     fb8:	0900                	addi	s0,sp,144
     fba:	0004                	0x4
     fbc:	0501                	addi	a0,a0,0
     fbe:	0605                	addi	a2,a2,1
     fc0:	04090203          	lb	tp,64(s2)
     fc4:	0100                	addi	s0,sp,128
     fc6:	00090103          	lb	sp,0(s2)
     fca:	0100                	addi	s0,sp,128
     fcc:	00090003          	lb	zero,0(s2)
     fd0:	0100                	addi	s0,sp,128
     fd2:	00090003          	lb	zero,0(s2)
     fd6:	0100                	addi	s0,sp,128
     fd8:	04090003          	lb	zero,64(s2)
     fdc:	0100                	addi	s0,sp,128
     fde:	0a090003          	lb	zero,160(s2)
     fe2:	0100                	addi	s0,sp,128
     fe4:	0805                	addi	a6,a6,1
     fe6:	00090503          	lb	a0,0(s2)
     fea:	0100                	addi	s0,sp,128
     fec:	00090203          	lb	tp,0(s2)
     ff0:	0100                	addi	s0,sp,128
     ff2:	0505                	addi	a0,a0,1
     ff4:	00090203          	lb	tp,0(s2)
     ff8:	0100                	addi	s0,sp,128
     ffa:	00090103          	lb	sp,0(s2)
     ffe:	0100                	addi	s0,sp,128
    1000:	00090103          	lb	sp,0(s2)
    1004:	0100                	addi	s0,sp,128
    1006:	0d05                	addi	s10,s10,1
    1008:	0306                	slli	t1,t1,0x1
    100a:	0900                	addi	s0,sp,144
    100c:	0000                	unimp
    100e:	0501                	addi	a0,a0,0
    1010:	0304                	addi	s1,sp,384
    1012:	00060967          	jalr	s2,a2 # ffffa000 <__global_pointer$+0x7fff6c5c>
    1016:	0501                	addi	a0,a0,0
    1018:	0608                	addi	a0,sp,768
    101a:	0e091e03          	lh	t3,224(s2)
    101e:	0100                	addi	s0,sp,128
    1020:	00090303          	lb	t1,0(s2)
    1024:	0100                	addi	s0,sp,128
    1026:	00090203          	lb	tp,0(s2)
    102a:	0100                	addi	s0,sp,128
    102c:	1e05                	addi	t3,t3,-31
    102e:	0306                	slli	t1,t1,0x1
    1030:	0900                	addi	s0,sp,144
    1032:	0000                	unimp
    1034:	0501                	addi	a0,a0,0
    1036:	0311                	addi	t1,t1,4
    1038:	0900                	addi	s0,sp,144
    103a:	0004                	0x4
    103c:	0501                	addi	a0,a0,0
    103e:	0900030b          	0x900030b
    1042:	0004                	0x4
    1044:	0501                	addi	a0,a0,0
    1046:	0608                	addi	a0,sp,768
    1048:	02090103          	lb	sp,32(s2)
    104c:	0100                	addi	s0,sp,128
    104e:	0306                	slli	t1,t1,0x1
    1050:	0905                	addi	s2,s2,1
    1052:	0000                	unimp
    1054:	0501                	addi	a0,a0,0
    1056:	097c030b          	0x97c030b
    105a:	0004                	0x4
    105c:	0501                	addi	a0,a0,0
    105e:	0308                	addi	a0,sp,384
    1060:	0904                	addi	s1,sp,144
    1062:	0004                	0x4
    1064:	0501                	addi	a0,a0,0
    1066:	0311                	addi	t1,t1,4
    1068:	097d                	addi	s2,s2,31
    106a:	0004                	0x4
    106c:	0501                	addi	a0,a0,0
    106e:	031e                	slli	t1,t1,0x7
    1070:	0900                	addi	s0,sp,144
    1072:	0004                	0x4
    1074:	0501                	addi	a0,a0,0
    1076:	0900030b          	0x900030b
    107a:	0004                	0x4
    107c:	0501                	addi	a0,a0,0
    107e:	0308                	addi	a0,sp,384
    1080:	00020903          	lb	s2,0(tp) # 18000 <_tbss_end+0x18000>
    1084:	0501                	addi	a0,a0,0
    1086:	097b030b          	0x97b030b
    108a:	000a                	c.slli	zero,0x2
    108c:	0501                	addi	a0,a0,0
    108e:	0608                	addi	a0,sp,768
    1090:	04090103          	lb	sp,64(s2)
    1094:	0100                	addi	s0,sp,128
    1096:	00090103          	lb	sp,0(s2)
    109a:	0100                	addi	s0,sp,128
    109c:	00090103          	lb	sp,0(s2)
    10a0:	0100                	addi	s0,sp,128
    10a2:	0b05                	addi	s6,s6,1
    10a4:	0306                	slli	t1,t1,0x1
    10a6:	0900                	addi	s0,sp,144
    10a8:	0000                	unimp
    10aa:	0501                	addi	a0,a0,0
    10ac:	0608                	addi	a0,sp,768
    10ae:	04090203          	lb	tp,64(s2)
    10b2:	0100                	addi	s0,sp,128
    10b4:	00090003          	lb	zero,0(s2)
    10b8:	0100                	addi	s0,sp,128
    10ba:	00090003          	lb	zero,0(s2)
    10be:	0100                	addi	s0,sp,128
    10c0:	00090003          	lb	zero,0(s2)
    10c4:	0100                	addi	s0,sp,128
    10c6:	00090003          	lb	zero,0(s2)
    10ca:	0100                	addi	s0,sp,128
    10cc:	00090003          	lb	zero,0(s2)
    10d0:	0100                	addi	s0,sp,128
    10d2:	00090003          	lb	zero,0(s2)
    10d6:	0100                	addi	s0,sp,128
    10d8:	04090003          	lb	zero,64(s2)
    10dc:	0100                	addi	s0,sp,128
    10de:	0a090003          	lb	zero,160(s2)
    10e2:	0100                	addi	s0,sp,128
    10e4:	00090003          	lb	zero,0(s2)
    10e8:	0100                	addi	s0,sp,128
    10ea:	06090003          	lb	zero,96(s2)
    10ee:	0100                	addi	s0,sp,128
    10f0:	06090003          	lb	zero,96(s2)
    10f4:	0100                	addi	s0,sp,128
    10f6:	04090003          	lb	zero,64(s2)
    10fa:	0100                	addi	s0,sp,128
    10fc:	04090003          	lb	zero,64(s2)
    1100:	0100                	addi	s0,sp,128
    1102:	06090003          	lb	zero,96(s2)
    1106:	0100                	addi	s0,sp,128
    1108:	04090003          	lb	zero,64(s2)
    110c:	0100                	addi	s0,sp,128
    110e:	04090003          	lb	zero,64(s2)
    1112:	0100                	addi	s0,sp,128
    1114:	04090003          	lb	zero,64(s2)
    1118:	0100                	addi	s0,sp,128
    111a:	06090003          	lb	zero,96(s2)
    111e:	0100                	addi	s0,sp,128
    1120:	0a090003          	lb	zero,160(s2)
    1124:	0100                	addi	s0,sp,128
    1126:	06090003          	lb	zero,96(s2)
    112a:	0100                	addi	s0,sp,128
    112c:	06090003          	lb	zero,96(s2)
    1130:	0100                	addi	s0,sp,128
    1132:	04090003          	lb	zero,64(s2)
    1136:	0100                	addi	s0,sp,128
    1138:	04090003          	lb	zero,64(s2)
    113c:	0100                	addi	s0,sp,128
    113e:	06090003          	lb	zero,96(s2)
    1142:	0100                	addi	s0,sp,128
    1144:	0306                	slli	t1,t1,0x1
    1146:	0901                	addi	s2,s2,0
    1148:	0002                	c.slli64	zero
    114a:	0301                	addi	t1,t1,0
    114c:	097f                	0x97f
    114e:	0002                	c.slli64	zero
    1150:	0301                	addi	t1,t1,0
    1152:	0901                	addi	s2,s2,0
    1154:	0004                	0x4
    1156:	0301                	addi	t1,t1,0
    1158:	097f                	0x97f
    115a:	0008                	0x8
    115c:	0601                	addi	a2,a2,0
    115e:	04090003          	lb	zero,64(s2)
    1162:	0100                	addi	s0,sp,128
    1164:	00090003          	lb	zero,0(s2)
    1168:	0100                	addi	s0,sp,128
    116a:	00090103          	lb	sp,0(s2)
    116e:	0100                	addi	s0,sp,128
    1170:	00090003          	lb	zero,0(s2)
    1174:	0100                	addi	s0,sp,128
    1176:	00090003          	lb	zero,0(s2)
    117a:	0100                	addi	s0,sp,128
    117c:	00090003          	lb	zero,0(s2)
    1180:	0100                	addi	s0,sp,128
    1182:	00090003          	lb	zero,0(s2)
    1186:	0100                	addi	s0,sp,128
    1188:	04090003          	lb	zero,64(s2)
    118c:	0100                	addi	s0,sp,128
    118e:	06090003          	lb	zero,96(s2)
    1192:	0100                	addi	s0,sp,128
    1194:	00090003          	lb	zero,0(s2)
    1198:	0100                	addi	s0,sp,128
    119a:	04090003          	lb	zero,64(s2)
    119e:	0100                	addi	s0,sp,128
    11a0:	00090003          	lb	zero,0(s2)
    11a4:	0100                	addi	s0,sp,128
    11a6:	04090003          	lb	zero,64(s2)
    11aa:	0100                	addi	s0,sp,128
    11ac:	08090003          	lb	zero,128(s2)
    11b0:	0100                	addi	s0,sp,128
    11b2:	02090003          	lb	zero,32(s2)
    11b6:	0100                	addi	s0,sp,128
    11b8:	06090003          	lb	zero,96(s2)
    11bc:	0100                	addi	s0,sp,128
    11be:	04090003          	lb	zero,64(s2)
    11c2:	0100                	addi	s0,sp,128
    11c4:	02090003          	lb	zero,32(s2)
    11c8:	0100                	addi	s0,sp,128
    11ca:	06090003          	lb	zero,96(s2)
    11ce:	0100                	addi	s0,sp,128
    11d0:	0e090203          	lb	tp,224(s2)
    11d4:	0100                	addi	s0,sp,128
    11d6:	0b05                	addi	s6,s6,1
    11d8:	0306                	slli	t1,t1,0x1
    11da:	0900                	addi	s0,sp,144
    11dc:	0000                	unimp
    11de:	0501                	addi	a0,a0,0
    11e0:	0314                	addi	a3,sp,384
    11e2:	0900                	addi	s0,sp,144
    11e4:	0004                	0x4
    11e6:	0501                	addi	a0,a0,0
    11e8:	0321                	addi	t1,t1,8
    11ea:	0900                	addi	s0,sp,144
    11ec:	0004                	0x4
    11ee:	0501                	addi	a0,a0,0
    11f0:	0605                	addi	a2,a2,1
    11f2:	04090203          	lb	tp,64(s2)
    11f6:	0100                	addi	s0,sp,128
    11f8:	00090103          	lb	sp,0(s2)
    11fc:	0100                	addi	s0,sp,128
    11fe:	00090003          	lb	zero,0(s2)
    1202:	0100                	addi	s0,sp,128
    1204:	00090003          	lb	zero,0(s2)
    1208:	0100                	addi	s0,sp,128
    120a:	04090003          	lb	zero,64(s2)
    120e:	0100                	addi	s0,sp,128
    1210:	0a090003          	lb	zero,160(s2)
    1214:	0100                	addi	s0,sp,128
    1216:	0805                	addi	a6,a6,1
    1218:	02090303          	lb	t1,32(s2)
    121c:	0100                	addi	s0,sp,128
    121e:	00090303          	lb	t1,0(s2)
    1222:	0100                	addi	s0,sp,128
    1224:	0505                	addi	a0,a0,1
    1226:	00090203          	lb	tp,0(s2)
    122a:	0100                	addi	s0,sp,128
    122c:	00090003          	lb	zero,0(s2)
    1230:	0100                	addi	s0,sp,128
    1232:	00090003          	lb	zero,0(s2)
    1236:	0100                	addi	s0,sp,128
    1238:	04090003          	lb	zero,64(s2)
    123c:	0100                	addi	s0,sp,128
    123e:	0a090003          	lb	zero,160(s2)
    1242:	0100                	addi	s0,sp,128
    1244:	00090103          	lb	sp,0(s2)
    1248:	0100                	addi	s0,sp,128
    124a:	1405                	addi	s0,s0,-31
    124c:	0306                	slli	t1,t1,0x1
    124e:	0900                	addi	s0,sp,144
    1250:	0000                	unimp
    1252:	0501                	addi	a0,a0,0
    1254:	0320                	addi	s0,sp,392
    1256:	0900                	addi	s0,sp,144
    1258:	0004                	0x4
    125a:	0501                	addi	a0,a0,0
    125c:	0605                	addi	a2,a2,1
    125e:	04090103          	lb	sp,64(s2)
    1262:	0100                	addi	s0,sp,128
    1264:	00090103          	lb	sp,0(s2)
    1268:	0100                	addi	s0,sp,128
    126a:	0d05                	addi	s10,s10,1
    126c:	0306                	slli	t1,t1,0x1
    126e:	0900                	addi	s0,sp,144
    1270:	0000                	unimp
    1272:	0501                	addi	a0,a0,0
    1274:	06030603          	lb	a2,96(t1)
    1278:	0809                	addi	a6,a6,2
    127a:	0100                	addi	s0,sp,128
    127c:	00090103          	lb	sp,0(s2)
    1280:	0100                	addi	s0,sp,128
    1282:	0900d803          	lhu	a6,144(ra)
    1286:	0000                	unimp
    1288:	0501                	addi	a0,a0,0
    128a:	060a                	slli	a2,a2,0x2
    128c:	00090003          	lb	zero,0(s2)
    1290:	0100                	addi	s0,sp,128
    1292:	0209                	addi	tp,tp,2
    1294:	0000                	unimp
    1296:	0101                	addi	sp,sp,0
    1298:	022c                	addi	a1,sp,264
    129a:	0000                	unimp
    129c:	02260003          	lb	zero,34(a2)
    12a0:	0000                	unimp
    12a2:	0101                	addi	sp,sp,0
    12a4:	000d0efb          	0xd0efb
    12a8:	0101                	addi	sp,sp,0
    12aa:	0101                	addi	sp,sp,0
    12ac:	0000                	unimp
    12ae:	0100                	addi	s0,sp,128
    12b0:	0000                	unimp
    12b2:	2f01                	jal	19c2 <_tbss_end+0x19c2>
    12b4:	656d                	lui	a0,0x1b
    12b6:	6964                	flw	fs1,84(a0)
    12b8:	2f61                	jal	1a50 <_tbss_end+0x1a50>
    12ba:	68746173          	csrrsi	sp,0x687,8
    12be:	6179                	addi	sp,sp,464
    12c0:	6365732f          	0x6365732f
    12c4:	61646e6f          	jal	t3,478da <_tbss_end+0x478da>
    12c8:	7972                	flw	fs2,60(sp)
    12ca:	645f 6972 6576      	0x65766972645f
    12d0:	6f6f742f          	0x6f6f742f
    12d4:	736c                	flw	fa1,100(a4)
    12d6:	7369722f          	0x7369722f
    12da:	32337663          	bgeu	t1,gp,1606 <_tbss_end+0x1606>
    12de:	752d                	lui	a0,0xfffeb
    12e0:	6b6e                	flw	fs6,216(sp)
    12e2:	6f6e                	flw	ft10,216(sp)
    12e4:	652d6e77          	0x652d6e77
    12e8:	666c                	flw	fa1,76(a2)
    12ea:	636e692f          	0x636e692f
    12ee:	756c                	flw	fa1,108(a0)
    12f0:	6564                	flw	fs1,76(a0)
    12f2:	7379732f          	0x7379732f
    12f6:	2f00                	fld	fs0,24(a4)
    12f8:	656d                	lui	a0,0x1b
    12fa:	6964                	flw	fs1,84(a0)
    12fc:	2f61                	jal	1a94 <_tbss_end+0x1a94>
    12fe:	68746173          	csrrsi	sp,0x687,8
    1302:	6179                	addi	sp,sp,464
    1304:	6365732f          	0x6365732f
    1308:	61646e6f          	jal	t3,4791e <_tbss_end+0x4791e>
    130c:	7972                	flw	fs2,60(sp)
    130e:	645f 6972 6576      	0x65766972645f
    1314:	7369722f          	0x7369722f
    1318:	742d7663          	bgeu	s10,sp,1a64 <_tbss_end+0x1a64>
    131c:	736c6f6f          	jal	t5,c7a52 <_tbss_end+0xc7a52>
    1320:	7369722f          	0x7369722f
    1324:	672d7663          	bgeu	s10,s2,1990 <_tbss_end+0x1990>
    1328:	756e                	flw	fa0,248(sp)
    132a:	742d                	lui	s0,0xfffeb
    132c:	636c6f6f          	jal	t5,c7962 <_tbss_end+0xc7962>
    1330:	6168                	flw	fa0,68(a0)
    1332:	6e69                	lui	t3,0x1a
    1334:	6975622f          	0x6975622f
    1338:	646c                	flw	fa1,76(s0)
    133a:	6975622f          	0x6975622f
    133e:	646c                	flw	fa1,76(s0)
    1340:	672d                	lui	a4,0xb
    1342:	6e2d6363          	bltu	s10,sp,1a28 <_tbss_end+0x1a28>
    1346:	7765                	lui	a4,0xffff9
    1348:	696c                	flw	fa1,84(a0)
    134a:	2d62                	fld	fs10,24(sp)
    134c:	67617473          	csrrci	s0,0x676,2
    1350:	3265                	jal	cf8 <_tbss_end+0xcf8>
    1352:	6363672f          	0x6363672f
    1356:	636e692f          	0x636e692f
    135a:	756c                	flw	fa1,108(a0)
    135c:	6564                	flw	fs1,76(a0)
    135e:	2f00                	fld	fs0,24(a4)
    1360:	656d                	lui	a0,0x1b
    1362:	6964                	flw	fs1,84(a0)
    1364:	2f61                	jal	1afc <_tbss_end+0x1afc>
    1366:	68746173          	csrrsi	sp,0x687,8
    136a:	6179                	addi	sp,sp,464
    136c:	6365732f          	0x6365732f
    1370:	61646e6f          	jal	t3,47986 <_tbss_end+0x47986>
    1374:	7972                	flw	fs2,60(sp)
    1376:	645f 6972 6576      	0x65766972645f
    137c:	6f6f742f          	0x6f6f742f
    1380:	736c                	flw	fa1,100(a4)
    1382:	7369722f          	0x7369722f
    1386:	32337663          	bgeu	t1,gp,16b2 <_tbss_end+0x16b2>
    138a:	752d                	lui	a0,0xfffeb
    138c:	6b6e                	flw	fs6,216(sp)
    138e:	6f6e                	flw	ft10,216(sp)
    1390:	652d6e77          	0x652d6e77
    1394:	666c                	flw	fa1,76(a2)
    1396:	636e692f          	0x636e692f
    139a:	756c                	flw	fa1,108(a0)
    139c:	6564                	flw	fs1,76(a0)
    139e:	2e00                	fld	fs0,24(a2)
    13a0:	2f2e                	fld	ft10,200(sp)
    13a2:	2e2e                	fld	ft8,200(sp)
    13a4:	2f2e2e2f          	0x2f2e2e2f
    13a8:	2e2e                	fld	ft8,200(sp)
    13aa:	7369722f          	0x7369722f
    13ae:	672d7663          	bgeu	s10,s2,1a1a <_tbss_end+0x1a1a>
    13b2:	6c2f6363          	bltu	t5,sp,1a78 <_tbss_end+0x1a78>
    13b6:	6269                	lui	tp,0x1a
    13b8:	2f636367          	0x2f636367
    13bc:	2e2e                	fld	ft8,200(sp)
    13be:	636e692f          	0x636e692f
    13c2:	756c                	flw	fa1,108(a0)
    13c4:	6564                	flw	fs1,76(a0)
    13c6:	2e00                	fld	fs0,24(a2)
    13c8:	2f2e                	fld	ft10,200(sp)
    13ca:	2e2e                	fld	ft8,200(sp)
    13cc:	2f2e2e2f          	0x2f2e2e2f
    13d0:	2e2e                	fld	ft8,200(sp)
    13d2:	7369722f          	0x7369722f
    13d6:	672d7663          	bgeu	s10,s2,1a42 <_tbss_end+0x1a42>
    13da:	6c2f6363          	bltu	t5,sp,1aa0 <_tbss_end+0x1aa0>
    13de:	6269                	lui	tp,0x1a
    13e0:	2f636367          	0x2f636367
    13e4:	2e2e                	fld	ft8,200(sp)
    13e6:	6363672f          	0x6363672f
    13ea:	6e6f632f          	0x6e6f632f
    13ee:	6966                	flw	fs2,88(sp)
    13f0:	69722f67          	0x69722f67
    13f4:	00766373          	csrrsi	t1,0x7,12
    13f8:	2e2e                	fld	ft8,200(sp)
    13fa:	2f2e2e2f          	0x2f2e2e2f
    13fe:	2f2e                	fld	ft10,200(sp)
    1400:	00636367          	0x636367
    1404:	2e2e                	fld	ft8,200(sp)
    1406:	2f2e2e2f          	0x2f2e2e2f
    140a:	2e2e                	fld	ft8,200(sp)
    140c:	2f2e2e2f          	0x2f2e2e2f
    1410:	6972                	flw	fs2,28(sp)
    1412:	2d766373          	csrrsi	t1,0x2d7,12
    1416:	2f636367          	0x2f636367
    141a:	696c                	flw	fa1,84(a0)
    141c:	6762                	flw	fa4,24(sp)
    141e:	00006363          	bltu	zero,zero,1424 <_tbss_end+0x1424>
    1422:	6f6c                	flw	fa1,92(a4)
    1424:	682e6b63          	bltu	t3,sp,1aba <_tbss_end+0x1aba>
    1428:	0100                	addi	s0,sp,128
    142a:	0000                	unimp
    142c:	745f 7079 7365      	0x73657079745f
    1432:	682e                	flw	fa6,200(sp)
    1434:	0100                	addi	s0,sp,128
    1436:	0000                	unimp
    1438:	64647473          	csrrci	s0,0x646,8
    143c:	6665                	lui	a2,0x19
    143e:	682e                	flw	fa6,200(sp)
    1440:	0200                	addi	s0,sp,256
    1442:	0000                	unimp
    1444:	6572                	flw	fa0,28(sp)
    1446:	6e65                	lui	t3,0x19
    1448:	2e74                	fld	fa3,216(a2)
    144a:	0068                	addi	a0,sp,12
    144c:	0001                	nop
    144e:	6500                	flw	fs0,8(a0)
    1450:	7272                	flw	ft4,60(sp)
    1452:	6f6e                	flw	ft10,216(sp)
    1454:	682e                	flw	fa6,200(sp)
    1456:	0100                	addi	s0,sp,128
    1458:	0000                	unimp
    145a:	6c647473          	csrrci	s0,0x6c6,8
    145e:	6269                	lui	tp,0x1a
    1460:	682e                	flw	fa6,200(sp)
    1462:	0300                	addi	s0,sp,384
    1464:	0000                	unimp
    1466:	6e75                	lui	t3,0x1d
    1468:	7369                	lui	t1,0xffffa
    146a:	6474                	flw	fa3,76(s0)
    146c:	682e                	flw	fa6,200(sp)
    146e:	0100                	addi	s0,sp,128
    1470:	0000                	unimp
    1472:	6974                	flw	fa3,84(a0)
    1474:	656d                	lui	a0,0x1b
    1476:	682e                	flw	fa6,200(sp)
    1478:	0300                	addi	s0,sp,384
    147a:	0000                	unimp
    147c:	6168                	flw	fa0,68(a0)
    147e:	61746873          	csrrsi	a6,0x617,8
    1482:	2e62                	fld	ft8,24(sp)
    1484:	0068                	addi	a0,sp,12
    1486:	0004                	0x4
    1488:	7200                	flw	fs0,32(a2)
    148a:	7369                	lui	t1,0xffffa
    148c:	6f2d7663          	bgeu	s10,s2,1b78 <_tbss_end+0x1b78>
    1490:	7470                	flw	fa2,108(s0)
    1492:	00682e73          	csrrs	t3,0x6,a6
    1496:	0005                	c.nop	1
    1498:	6900                	flw	fs0,16(a0)
    149a:	736e                	flw	ft6,248(sp)
    149c:	2d6e                	fld	fs10,216(sp)
    149e:	736e6f63          	bltu	t3,s6,1bdc <_tbss_end+0x1bdc>
    14a2:	6174                	flw	fa3,68(a0)
    14a4:	746e                	flw	fs0,248(sp)
    14a6:	00682e73          	csrrs	t3,0x6,a6
    14aa:	0006                	c.slli	zero,0x1
    14ac:	6c00                	flw	fs0,24(s0)
    14ae:	6269                	lui	tp,0x1a
    14b0:	32636367          	0x32636367
    14b4:	682e                	flw	fa6,200(sp)
    14b6:	0700                	addi	s0,sp,896
    14b8:	0000                	unimp
    14ba:	696c                	flw	fa1,84(a0)
    14bc:	6762                	flw	fa4,24(sp)
    14be:	2e326363          	bltu	tp,gp,17a4 <_tbss_end+0x17a4>
    14c2:	00070063          	beqz	a4,14c2 <_tbss_end+0x14c2>
	...

Disassembly of section .debug_str:

00000000 <.debug_str>:
   0:	726f6873          	csrrsi	a6,0x726,30
   4:	2074                	fld	fa3,192(s0)
   6:	6e69                	lui	t3,0x1a
   8:	0074                	addi	a3,sp,12
   a:	7468                	flw	fa0,108(s0)
   c:	6261                	lui	tp,0x18
   e:	685f 7361 5f68      	0x5f687361685f
  14:	6f70                	flw	fa2,92(a4)
  16:	6e69                	lui	t3,0x1a
  18:	6574                	flw	fa3,76(a0)
  1a:	0072                	c.slli	zero,0x1c
  1c:	725f 6e61 3464      	0x34646e61725f
  22:	0038                	addi	a4,sp,8
  24:	655f 656d 6772      	0x6772656d655f
  2a:	6e65                	lui	t3,0x19
  2c:	5f007963          	bgeu	zero,a6,61e <_tbss_end+0x61e>
  30:	6164                	flw	fs1,68(a0)
  32:	6c79                	lui	s8,0x1e
  34:	6769                	lui	a4,0x1a
  36:	7468                	flw	fa0,108(s0)
  38:	6300                	flw	fs0,0(a4)
  3a:	6c706d6f          	jal	s10,6f00 <_tbss_end+0x6f00>
  3e:	7865                	lui	a6,0xffff9
  40:	6420                	flw	fs0,72(s0)
  42:	6c62756f          	jal	a0,27708 <_tbss_end+0x27708>
  46:	0065                	c.nop	25
  48:	20554e47          	fmsub.s	ft8,fa0,ft5,ft4,rmm
  4c:	20373143          	fmadd.s	ft2,fa4,ft3,ft4,rup
  50:	2e38                	fld	fa4,88(a2)
  52:	2e32                	fld	ft8,264(sp)
  54:	2030                	fld	fa2,64(s0)
  56:	6d2d                	lui	s10,0xb
  58:	646f6d63          	bltu	t5,t1,6b2 <_tbss_end+0x6b2>
  5c:	6c65                	lui	s8,0x19
  5e:	6d3d                	lui	s10,0xf
  60:	6465                	lui	s0,0x19
  62:	6f6c                	flw	fa1,92(a4)
  64:	6d2d2077          	0x6d2d2077
  68:	646f6d63          	bltu	t5,t1,6c2 <_tbss_end+0x6c2>
  6c:	6c65                	lui	s8,0x19
  6e:	6d3d                	lui	s10,0xf
  70:	6465                	lui	s0,0x19
  72:	6f6c                	flw	fa1,92(a4)
  74:	6d2d2077          	0x6d2d2077
  78:	7574                	flw	fa3,108(a0)
  7a:	656e                	flw	fa0,216(sp)
  7c:	723d                	lui	tp,0xfffef
  7e:	656b636f          	jal	t1,b66d4 <_tbss_end+0xb66d4>
  82:	2074                	fld	fa3,192(s0)
  84:	6d2d                	lui	s10,0xb
  86:	7261                	lui	tp,0xffff8
  88:	723d6863          	bltu	s10,gp,7b8 <_tbss_end+0x7b8>
  8c:	3376                	fld	ft6,376(sp)
  8e:	6932                	flw	fs2,12(sp)
  90:	616d                	addi	sp,sp,240
  92:	6d2d2063          	0x6d2d2063
  96:	6261                	lui	tp,0x18
  98:	3d69                	jal	ffffff32 <__global_pointer$+0x7fffcb8e>
  9a:	6c69                	lui	s8,0x1a
  9c:	3370                	fld	fa2,224(a4)
  9e:	2032                	fld	ft0,264(sp)
  a0:	672d                	lui	a4,0xb
  a2:	2d20                	fld	fs0,88(a0)
  a4:	2d20734f          	0x2d20734f
  a8:	2d20324f          	0x2d20324f
  ac:	2d20734f          	0x2d20734f
  b0:	6266                	flw	ft4,88(sp)
  b2:	6975                	lui	s2,0x1d
  b4:	646c                	flw	fa1,76(s0)
  b6:	6e69                	lui	t3,0x1a
  b8:	696c2d67          	0x696c2d67
  bc:	6762                	flw	fa4,24(sp)
  be:	2d206363          	bltu	zero,s2,384 <_tbss_end+0x384>
  c2:	6e66                	flw	ft8,88(sp)
  c4:	74732d6f          	jal	s10,3300a <_tbss_end+0x3300a>
  c8:	6361                	lui	t1,0x18
  ca:	72702d6b          	0x72702d6b
  ce:	6365746f          	jal	s0,57704 <_tbss_end+0x57704>
  d2:	6f74                	flw	fa3,92(a4)
  d4:	2072                	fld	ft0,280(sp)
  d6:	662d                	lui	a2,0xb
  d8:	7865                	lui	a6,0xffff9
  da:	74706563          	bltu	zero,t2,824 <_tbss_end+0x824>
  de:	6f69                	lui	t5,0x1a
  e0:	736e                	flw	ft6,248(sp)
  e2:	2d20                	fld	fs0,88(a0)
  e4:	6e66                	flw	ft8,88(sp)
  e6:	632d6e6f          	jal	t3,d6718 <_tbss_end+0xd6718>
  ea:	6c61                	lui	s8,0x18
  ec:	2d6c                	fld	fa1,216(a0)
  ee:	7865                	lui	a6,0xffff9
  f0:	74706563          	bltu	zero,t2,83a <_tbss_end+0x83a>
  f4:	6f69                	lui	t5,0x1a
  f6:	736e                	flw	ft6,248(sp)
  f8:	2d20                	fld	fs0,88(a0)
  fa:	7666                	flw	fa2,120(sp)
  fc:	7369                	lui	t1,0xffffa
  fe:	6269                	lui	tp,0x1a
 100:	6c69                	lui	s8,0x1a
 102:	7469                	lui	s0,0xffffa
 104:	3d79                	jal	ffffffa2 <__global_pointer$+0x7fffcbfe>
 106:	6968                	flw	fa0,84(a0)
 108:	6464                	flw	fs1,76(s0)
 10a:	6e65                	lui	t3,0x19
 10c:	5f00                	lw	s0,56(a4)
 10e:	6164                	flw	fs1,68(a0)
 110:	6174                	flw	fa3,68(a0)
 112:	5f00                	lw	s0,56(a4)
 114:	74726377          	0x74726377
 118:	5f626d6f          	jal	s10,2670e <_tbss_end+0x2670e>
 11c:	74617473          	csrrci	s0,0x746,2
 120:	0065                	c.nop	25
 122:	775f 7363 7472      	0x74727363775f
 128:	73626d6f          	jal	s10,2685e <_tbss_end+0x2685e>
 12c:	735f 6174 6574      	0x65746174735f
 132:	5f00                	lw	s0,56(a4)
 134:	645f 0030 5f5f      	0x5f5f0030645f
 13a:	3164                	fld	fs1,224(a0)
 13c:	5f00                	lw	s0,56(a4)
 13e:	626c                	flw	fa1,68(a2)
 140:	7366                	flw	ft6,120(sp)
 142:	7a69                	lui	s4,0xffffa
 144:	0065                	c.nop	25
 146:	6974706f          	j	47fdc <_tbss_end+0x47fdc>
 14a:	646e                	flw	fs0,216(sp)
 14c:	6300                	flw	fs0,0(a4)
 14e:	6c706d6f          	jal	s10,7014 <_tbss_end+0x7014>
 152:	7865                	lui	a6,0xffff9
 154:	6c20                	flw	fs0,88(s0)
 156:	20676e6f          	jal	t3,7635c <_tbss_end+0x7635c>
 15a:	6f64                	flw	fs1,92(a4)
 15c:	6275                	lui	tp,0x1d
 15e:	656c                	flw	fa1,76(a0)
 160:	7200                	flw	fs0,32(a2)
 162:	7369                	lui	t1,0xffffa
 164:	615f7663          	bgeu	t5,s5,770 <_tbss_end+0x770>
 168:	6962                	flw	fs2,24(sp)
 16a:	5f00                	lw	s0,56(a4)
 16c:	6c5f 636f 6c61      	0x6c61636f6c5f
 172:	5f65                	li	t5,-7
 174:	0074                	addi	a3,sp,12
 176:	6d5f 7262 6f74      	0x6f7472626d5f
 17c:	735f6377          	0x735f6377
 180:	6174                	flw	fa3,68(a0)
 182:	6574                	flw	fa3,76(a0)
 184:	5f00                	lw	s0,56(a4)
 186:	7a74                	flw	fa3,116(a2)
 188:	616e                	flw	ft2,216(sp)
 18a:	656d                	lui	a0,0x1b
 18c:	5f00                	lw	s0,56(a4)
 18e:	745f 5f6d 6573      	0x65735f6d745f
 194:	635f0063          	beq	t5,s5,7b4 <_tbss_end+0x7b4>
 198:	6f6c                	flw	fa1,92(a4)
 19a:	5f006573          	csrrsi	a0,0x5f0,0
 19e:	6275                	lui	tp,0x1d
 1a0:	6675                	lui	a2,0x1d
 1a2:	5f00                	lw	s0,56(a4)
 1a4:	6162                	flw	ft2,24(sp)
 1a6:	5f006573          	csrrsi	a0,0x5f0,0
 1aa:	745f 5f6d 6f68      	0x6f685f6d745f
 1b0:	7275                	lui	tp,0xffffd
 1b2:	5f00                	lw	s0,56(a4)
 1b4:	6f746377          	0x6f746377
 1b8:	626d                	lui	tp,0x1b
 1ba:	735f 6174 6574      	0x65746174735f
 1c0:	5f00                	lw	s0,56(a4)
 1c2:	735f 0066 6f5f      	0x6f5f0066735f
 1c8:	5f6e                	lw	t5,248(sp)
 1ca:	7865                	lui	a6,0xffff9
 1cc:	7469                	lui	s0,0xffffa
 1ce:	615f 6772 0073      	0x736772615f
 1d4:	635f 6f6f 696b      	0x696b6f6f635f
 1da:	0065                	c.nop	25
 1dc:	5f5f 6773 756c      	0x756c67735f5f
 1e2:	0065                	c.nop	25
 1e4:	665f 616c 7367      	0x7367616c665f
 1ea:	5f00                	lw	s0,56(a4)
 1ec:	7369                	lui	t1,0xffffa
 1ee:	635f 6178 5f00      	0x5f006178635f
 1f4:	00736477          	0x736477
 1f8:	5f5f 4946 454c      	0x454c49465f5f
 1fe:	5f00                	lw	s0,56(a4)
 200:	6572                	flw	fa0,28(sp)
 202:	746c7573          	csrrci	a0,0x746,24
 206:	6b5f 5500 4953      	0x495355006b5f
 20c:	7974                	flw	fa3,116(a0)
 20e:	6570                	flw	fa2,76(a0)
 210:	6c00                	flw	fs0,24(s0)
 212:	20676e6f          	jal	t3,76418 <_tbss_end+0x76418>
 216:	6f6c                	flw	fa1,92(a4)
 218:	676e                	flw	fa4,216(sp)
 21a:	6920                	flw	fs0,80(a0)
 21c:	746e                	flw	fs0,248(sp)
 21e:	5f00                	lw	s0,56(a4)
 220:	5f737973          	csrrci	s2,0x5f7,6
 224:	7265                	lui	tp,0xffff9
 226:	6c72                	flw	fs8,28(sp)
 228:	7369                	lui	t1,0xffffa
 22a:	0074                	addi	a3,sp,12
 22c:	635f 7476 7562      	0x75627476635f
 232:	0066                	c.slli	zero,0x19
 234:	6d5f 7362 7472      	0x747273626d5f
 23a:	7363776f          	jal	a4,37970 <_tbss_end+0x37970>
 23e:	735f 6174 6574      	0x65746174735f
 244:	5f00                	lw	s0,56(a4)
 246:	626d                	lui	tp,0x1b
 248:	6c72                	flw	fs8,28(sp)
 24a:	6e65                	lui	t3,0x19
 24c:	735f 6174 6574      	0x65746174735f
 252:	7200                	flw	fs0,32(a2)
 254:	7369                	lui	t1,0xffffa
 256:	635f7663          	bgeu	t5,s5,882 <_tbss_end+0x882>
 25a:	6f6d                	lui	t5,0x1b
 25c:	6564                	flw	fs1,76(a0)
 25e:	006c                	addi	a1,sp,12
 260:	665f 616e 6772      	0x6772616e665f
 266:	665f0073          	0x665f0073
 26a:	736e                	flw	ft6,248(sp)
 26c:	5f00                	lw	s0,56(a4)
 26e:	6e676973          	csrrsi	s2,0x6e6,14
 272:	5f00                	lw	s0,56(a4)
 274:	64746567          	0x64746567
 278:	7461                	lui	s0,0xffff8
 27a:	5f65                	li	t5,-7
 27c:	7265                	lui	tp,0xffff9
 27e:	0072                	c.slli	zero,0x1c
 280:	735f 6474 7265      	0x72656474735f
 286:	0072                	c.slli	zero,0x1c
 288:	675f 6d61 616d      	0x616d6d61675f
 28e:	735f 6769 676e      	0x676e6769735f
 294:	6d61                	lui	s10,0x18
 296:	5f00                	lw	s0,56(a4)
 298:	6d6e                	flw	fs10,216(sp)
 29a:	6c61                	lui	s8,0x18
 29c:	6f6c                	flw	fa1,92(a4)
 29e:	755f0063          	beq	t5,s5,9de <_tbss_end+0x9de>
 2a2:	736e                	flw	ft6,248(sp)
 2a4:	6570                	flw	fa2,76(a0)
 2a6:	69666963          	bltu	a2,s6,938 <_tbss_end+0x938>
 2aa:	6465                	lui	s0,0x19
 2ac:	6c5f 636f 6c61      	0x6c61636f6c5f
 2b2:	5f65                	li	t5,-7
 2b4:	6e69                	lui	t3,0x1a
 2b6:	6f66                	flw	ft10,88(sp)
 2b8:	5f00                	lw	s0,56(a4)
 2ba:	745f 006d 6972      	0x6972006d745f
 2c0:	5f766373          	csrrsi	t1,0x5f7,12
 2c4:	6261                	lui	tp,0x18
 2c6:	5f69                	li	t5,-6
 2c8:	7974                	flw	fa3,116(a0)
 2ca:	6570                	flw	fa2,76(a0)
 2cc:	5f00                	lw	s0,56(a4)
 2ce:	626d                	lui	tp,0x1b
 2d0:	74617473          	csrrci	s0,0x746,2
 2d4:	0065                	c.nop	25
 2d6:	5f5f 6377 6268      	0x626863775f5f
 2dc:	5f00                	lw	s0,56(a4)
 2de:	6c747663          	bgeu	s0,t2,9aa <_tbss_end+0x9aa>
 2e2:	6e65                	lui	t3,0x19
 2e4:	5f00                	lw	s0,56(a4)
 2e6:	6966                	flw	fs2,88(sp)
 2e8:	656c                	flw	fa1,76(a0)
 2ea:	6800                	flw	fs0,16(s0)
 2ec:	7361                	lui	t1,0xffff8
 2ee:	7668                	flw	fa0,108(a2)
 2f0:	6c61                	lui	s8,0x18
 2f2:	745f 4400 7557      	0x75574400745f
 2f8:	696e                	flw	fs2,216(sp)
 2fa:	5f006e6f          	jal	t3,68ea <_tbss_end+0x68ea>
 2fe:	696e                	flw	fs2,216(sp)
 300:	0073626f          	jal	tp,36b06 <_tbss_end+0x36b06>
 304:	6f6c                	flw	fa1,92(a4)
 306:	676e                	flw	fa4,216(sp)
 308:	6c20                	flw	fs0,88(s0)
 30a:	20676e6f          	jal	t3,76510 <_tbss_end+0x76510>
 30e:	6e75                	lui	t3,0x1d
 310:	6e676973          	csrrsi	s2,0x6e6,14
 314:	6465                	lui	s0,0x19
 316:	6920                	flw	fs0,80(a0)
 318:	746e                	flw	fs0,248(sp)
 31a:	5f00                	lw	s0,56(a4)
 31c:	635f 7a6c 745f      	0x745f7a6c635f
 322:	6261                	lui	tp,0x18
 324:	4400                	lw	s0,8(s0)
 326:	72747357          	0x72747357
 32a:	6375                	lui	t1,0x1d
 32c:	0074                	addi	a3,sp,12
 32e:	726f6873          	csrrsi	a6,0x726,30
 332:	2074                	fld	fa3,192(s0)
 334:	6e75                	lui	t3,0x1d
 336:	6e676973          	csrrsi	s2,0x6e6,14
 33a:	6465                	lui	s0,0x19
 33c:	6920                	flw	fs0,80(a0)
 33e:	746e                	flw	fs0,248(sp)
 340:	2f00                	fld	fs0,24(a4)
 342:	656d                	lui	a0,0x1b
 344:	6964                	flw	fs1,84(a0)
 346:	2f61                	jal	ade <_tbss_end+0xade>
 348:	68746173          	csrrsi	sp,0x687,8
 34c:	6179                	addi	sp,sp,464
 34e:	6365732f          	0x6365732f
 352:	61646e6f          	jal	t3,46968 <_tbss_end+0x46968>
 356:	7972                	flw	fs2,60(sp)
 358:	645f 6972 6576      	0x65766972645f
 35e:	7369722f          	0x7369722f
 362:	742d7663          	bgeu	s10,sp,aae <_tbss_end+0xaae>
 366:	736c6f6f          	jal	t5,c6a9c <_tbss_end+0xc6a9c>
 36a:	7369722f          	0x7369722f
 36e:	672d7663          	bgeu	s10,s2,9da <_tbss_end+0x9da>
 372:	756e                	flw	fa0,248(sp)
 374:	742d                	lui	s0,0xfffeb
 376:	636c6f6f          	jal	t5,c69ac <_tbss_end+0xc69ac>
 37a:	6168                	flw	fa0,68(a0)
 37c:	6e69                	lui	t3,0x1a
 37e:	6975622f          	0x6975622f
 382:	646c                	flw	fa1,76(s0)
 384:	6975622f          	0x6975622f
 388:	646c                	flw	fa1,76(s0)
 38a:	672d                	lui	a4,0xb
 38c:	6e2d6363          	bltu	s10,sp,a72 <_tbss_end+0xa72>
 390:	7765                	lui	a4,0xffff9
 392:	696c                	flw	fa1,84(a0)
 394:	2d62                	fld	fs10,24(sp)
 396:	67617473          	csrrci	s0,0x676,2
 39a:	3265                	jal	fffffd42 <__global_pointer$+0x7fffc99e>
 39c:	7369722f          	0x7369722f
 3a0:	32337663          	bgeu	t1,gp,6cc <_tbss_end+0x6cc>
 3a4:	752d                	lui	a0,0xfffeb
 3a6:	6b6e                	flw	fs6,216(sp)
 3a8:	6f6e                	flw	ft10,216(sp)
 3aa:	652d6e77          	0x652d6e77
 3ae:	666c                	flw	fa1,76(a2)
 3b0:	62696c2f          	0x62696c2f
 3b4:	00636367          	0x636367
 3b8:	615f 6574 6978      	0x69786574615f
 3be:	3074                	fld	fa3,224(s0)
 3c0:	5f00                	lw	s0,56(a4)
 3c2:	6e676973          	csrrsi	s2,0x6e6,14
 3c6:	6c61                	lui	s8,0x18
 3c8:	625f 6675 5f00      	0x5f006675625f
 3ce:	7361                	lui	t1,0xffff8
 3d0:	6d697463          	bgeu	s2,s6,a98 <_tbss_end+0xa98>
 3d4:	5f65                	li	t5,-7
 3d6:	7562                	flw	fa0,56(sp)
 3d8:	0066                	c.slli	zero,0x19
 3da:	725f 7365 6c75      	0x6c757365725f
 3e0:	0074                	addi	a3,sp,12
 3e2:	5f5f 6377 0068      	0x6863775f5f
 3e8:	4241                	li	tp,16
 3ea:	5f49                	li	t5,-14
 3ec:	4c49                	li	s8,18
 3ee:	3350                	fld	fa2,160(a4)
 3f0:	4632                	lw	a2,12(sp)
 3f2:	6500                	flw	fs0,8(a0)
 3f4:	766e                	flw	fa2,248(sp)
 3f6:	7269                	lui	tp,0xffffa
 3f8:	77006e6f          	jal	t3,6b68 <_tbss_end+0x6b68>
 3fc:	6e69                	lui	t3,0x1a
 3fe:	5f74                	lw	a3,124(a4)
 400:	0074                	addi	a3,sp,12
 402:	6c5f 636f 006b      	0x6b636f6c5f
 408:	5f5f 6875 4100      	0x410068755f5f
 40e:	4942                	lw	s2,16(sp)
 410:	495f 504c 3233      	0x3233504c495f
 416:	0045                	c.nop	17
 418:	6d5f 6c75 0074      	0x746c756d5f
 41e:	5f5f 6c75 7500      	0x75006c755f5f
 424:	736e                	flw	ft6,248(sp)
 426:	6570                	flw	fa2,76(a0)
 428:	74735f63          	bge	t1,t2,b86 <_tbss_end+0xb86>
 42c:	6972                	flw	fs2,28(sp)
 42e:	676e                	flw	fa4,216(sp)
 430:	706f0073          	0x706f0073
 434:	7274                	flw	fa3,100(a2)
 436:	7365                	lui	t1,0xffff9
 438:	7465                	lui	s0,0xffff9
 43a:	5f00                	lw	s0,56(a4)
 43c:	74697277          	0x74697277
 440:	0065                	c.nop	25
 442:	5f5f 6d74 795f      	0x795f6d745f5f
 448:	6165                	addi	sp,sp,112
 44a:	0072                	c.slli	zero,0x1c
 44c:	5f5f 6f63 6e75      	0x6e756f635f5f
 452:	0074                	addi	a3,sp,12
 454:	755f 756e 6573      	0x6573756e755f
 45a:	5f64                	lw	s1,124(a4)
 45c:	6172                	flw	ft2,28(sp)
 45e:	646e                	flw	fs0,216(sp)
 460:	4100                	lw	s0,0(a0)
 462:	4942                	lw	s2,16(sp)
 464:	495f 504c 3233      	0x3233504c495f
 46a:	0044                	addi	s1,sp,4
 46c:	6972                	flw	fs2,28(sp)
 46e:	5f766373          	csrrsi	t1,0x5f7,12
 472:	65646f63          	bltu	s0,s6,ad0 <_tbss_end+0xad0>
 476:	6d5f 646f 6c65      	0x6c65646f6d5f
 47c:	5f00                	lw	s0,56(a4)
 47e:	7366666f          	jal	a2,66bb4 <_tbss_end+0x66bb4>
 482:	7465                	lui	s0,0xffff9
 484:	5f00                	lw	s0,56(a4)
 486:	6942                	flw	fs2,16(sp)
 488:	746e6967          	0x746e6967
 48c:	5f00                	lw	s0,56(a4)
 48e:	656e                	flw	fa0,216(sp)
 490:	7478                	flw	fa4,108(s0)
 492:	0066                	c.slli	zero,0x19
 494:	706d6f63          	bltu	s10,t1,bb2 <_tbss_end+0xbb2>
 498:	656c                	flw	fa1,76(a0)
 49a:	2078                	fld	fa4,192(s0)
 49c:	6c66                	flw	fs8,88(sp)
 49e:	0074616f          	jal	sp,46ca4 <_tbss_end+0x46ca4>
 4a2:	5f5f 6d74 6d5f      	0x6d5f6d745f5f
 4a8:	5f006e6f          	jal	t3,6a98 <_tbss_end+0x6a98>
 4ac:	7461                	lui	s0,0xffff8
 4ae:	7865                	lui	a6,0xffff9
 4b0:	7469                	lui	s0,0xffffa
 4b2:	7300                	flw	fs0,32(a4)
 4b4:	6275                	lui	tp,0x1d
 4b6:	6174706f          	j	482cc <_tbss_end+0x482cc>
 4ba:	6772                	flw	fa4,28(sp)
 4bc:	5f00                	lw	s0,56(a4)
 4be:	735f 6964 6964      	0x69646964735f
 4c4:	696e                	flw	fs2,216(sp)
 4c6:	0074                	addi	a3,sp,12
 4c8:	6f5f 6666 745f      	0x745f66666f5f
 4ce:	5f00                	lw	s0,56(a4)
 4d0:	765f 0068 5f5f      	0x5f5f0068765f
 4d6:	6c76                	flw	fs8,92(sp)
 4d8:	5f00                	lw	s0,56(a4)
 4da:	7266                	flw	ft4,120(sp)
 4dc:	6565                	lui	a0,0x19
 4de:	696c                	flw	fa1,84(a0)
 4e0:	5f007473          	csrrci	s0,0x5f0,0
 4e4:	6974                	flw	fa3,84(a0)
 4e6:	656d                	lui	a0,0x1b
 4e8:	6f7a                	flw	ft10,156(sp)
 4ea:	656e                	flw	fa0,216(sp)
 4ec:	5f00                	lw	s0,56(a4)
 4ee:	626d                	lui	tp,0x1b
 4f0:	74617473          	csrrci	s0,0x746,2
 4f4:	5f65                	li	t5,-7
 4f6:	0074                	addi	a3,sp,12
 4f8:	4c5f 434f 5f4b      	0x5f4b434f4c5f
 4fe:	4552                	lw	a0,20(sp)
 500:	53525543          	fmadd.d	fa0,ft4,fs5,fa0,unknown
 504:	5649                	li	a2,-14
 506:	5f45                	li	t5,-15
 508:	0054                	addi	a3,sp,4
 50a:	725f 6165 0064      	0x646165725f
 510:	2e2e                	fld	ft8,200(sp)
 512:	2f2e2e2f          	0x2f2e2e2f
 516:	2e2e                	fld	ft8,200(sp)
 518:	2f2e2e2f          	0x2f2e2e2f
 51c:	6972                	flw	fs2,28(sp)
 51e:	2d766373          	csrrsi	t1,0x2d7,12
 522:	2f636367          	0x2f636367
 526:	696c                	flw	fa1,84(a0)
 528:	6762                	flw	fa4,24(sp)
 52a:	6c2f6363          	bltu	t5,sp,bf0 <_tbss_end+0xbf0>
 52e:	6269                	lui	tp,0x1a
 530:	32636367          	0x32636367
 534:	632e                	flw	ft6,200(sp)
 536:	4100                	lw	s0,0(a0)
 538:	4942                	lw	s2,16(sp)
 53a:	4c5f 3650 0034      	0x3436504c5f
 540:	4241                	li	tp,16
 542:	5f49                	li	t5,-14
 544:	4c49                	li	s8,18
 546:	3350                	fld	fa2,160(a4)
 548:	0032                	c.slli	zero,0xc
 54a:	645f 6f73 685f      	0x685f6f73645f
 550:	6e61                	lui	t3,0x18
 552:	6c64                	flw	fs1,92(s0)
 554:	0065                	c.nop	25
 556:	4d5f4d43          	0x4d5f4d43
 55a:	4445                	li	s0,17
 55c:	4e41                	li	t3,16
 55e:	0059                	c.nop	22
 560:	6e5f 7765 5f00      	0x5f0077656e5f
 566:	5f68                	lw	a0,124(a4)
 568:	7265                	lui	tp,0xffff9
 56a:	6e72                	flw	ft8,28(sp)
 56c:	665f006f          	j	f13d0 <_tbss_end+0xf13d0>
 570:	6f6c                	flw	fa1,92(a4)
 572:	745f6b63          	bltu	t5,t0,cc8 <_tbss_end+0xcc8>
 576:	5f00                	lw	s0,56(a4)
 578:	745f 5f6d 6479      	0x64795f6d745f
 57e:	7961                	lui	s2,0xffff8
 580:	5f00                	lw	s0,56(a4)
 582:	6c66                	flw	fs8,88(sp)
 584:	6761                	lui	a4,0x18
 586:	5f003273          	csrrc	tp,0x5f0,zero
 58a:	6f69                	lui	t5,0x1a
 58c:	7362                	flw	ft6,56(sp)
 58e:	4300                	lw	s0,0(a4)
 590:	5f4d                	li	t5,-13
 592:	454d                	li	a0,19
 594:	4c44                	lw	s1,28(s0)
 596:	6800574f          	fnmadd.s	fa4,ft0,ft0,fa3,unknown
 59a:	6174                	flw	fa3,68(a0)
 59c:	5f62                	lw	t5,56(sp)
 59e:	6168                	flw	fa0,68(a0)
 5a0:	5f006873          	csrrsi	a6,0x5f0,0
 5a4:	735f 4946 454c      	0x454c4946735f
 5aa:	5f00                	lw	s0,56(a4)
 5ac:	5f737973          	csrrci	s2,0x5f7,6
 5b0:	656e                	flw	fa0,216(sp)
 5b2:	7272                	flw	ft4,60(sp)
 5b4:	5f00                	lw	s0,56(a4)
 5b6:	626d                	lui	tp,0x1b
 5b8:	656c                	flw	fa1,76(a0)
 5ba:	5f6e                	lw	t5,248(sp)
 5bc:	74617473          	csrrci	s0,0x746,2
 5c0:	0065                	c.nop	25
 5c2:	695f 636e 5f00      	0x5f00636e695f
 5c8:	6e69                	lui	t3,0x1a
 5ca:	0064                	addi	s1,sp,12
 5cc:	5f5f 6475 7669      	0x766964755f5f
 5d2:	6964                	flw	fs1,84(a0)
 5d4:	5f5f0033          	0x5f5f0033
 5d8:	61656c63          	bltu	a0,s6,bf0 <_tbss_end+0xbf0>
 5dc:	756e                	flw	fa0,248(sp)
 5de:	0070                	addi	a2,sp,12
 5e0:	6d5f 7861 6477      	0x647778616d5f
 5e6:	725f0073          	0x725f0073
 5ea:	6565                	lui	a0,0x19
 5ec:	746e                	flw	fs0,248(sp)
 5ee:	5f00                	lw	s0,56(a4)
 5f0:	785f 0030 5f5f      	0x5f5f0030785f
 5f6:	3178                	fld	fa4,224(a0)
 5f8:	5f00                	lw	s0,56(a4)
 5fa:	785f 0032 5f5f      	0x5f5f0032785f
 600:	3378                	fld	fa4,224(a4)
 602:	5f00                	lw	s0,56(a4)
 604:	765f 6c61 6575      	0x65756c61765f
 60a:	5f00                	lw	s0,56(a4)
 60c:	6b656573          	csrrsi	a0,0x6b6,10
 610:	5f00                	lw	s0,56(a4)
 612:	7066                	flw	ft0,120(sp)
 614:	745f736f          	jal	t1,f8558 <_tbss_end+0xf8558>
 618:	5f00                	lw	s0,56(a4)
 61a:	6c62                	flw	fs8,24(sp)
 61c:	7a69736b          	0x7a69736b
 620:	0065                	c.nop	25
 622:	735f 7a69 0065      	0x657a69735f
 628:	5f5f 6475 7669      	0x766964755f5f
 62e:	6f6d                	lui	t5,0x1b
 630:	6464                	flw	fs1,76(s0)
 632:	3469                	jal	bc <_tbss_end+0xbc>
 634:	7500                	flw	fs0,40(a0)
 636:	736e                	flw	ft6,248(sp)
 638:	6570                	flw	fa2,76(a0)
 63a:	735f7663          	bgeu	t5,s5,d66 <_tbss_end+0xd66>
 63e:	7274                	flw	fa3,100(a2)
 640:	6e69                	lui	t3,0x1a
 642:	5f007367          	0x5f007367
 646:	64656573          	csrrsi	a0,0x646,10
 64a:	6f00                	flw	fs0,24(a4)
 64c:	7470                	flw	fa2,108(s0)
 64e:	7265                	lui	tp,0xffff9
 650:	0072                	c.slli	zero,0x1c
 652:	6968                	flw	fa0,84(a0)
 654:	5f006867          	0x5f006867
 658:	715f 0030 5f5f      	0x5f5f0030715f
 65e:	3171                	jal	2ea <_tbss_end+0x2ea>
 660:	5f00                	lw	s0,56(a4)
 662:	74727473          	csrrci	s0,0x747,4
 666:	6c5f6b6f          	jal	s6,f752a <_tbss_end+0xf752a>
 66a:	7361                	lui	t1,0xffff8
 66c:	0074                	addi	a3,sp,12
 66e:	505f4d43          	fmadd.s	fs10,ft10,ft5,fa0,rmm
 672:	4349                	li	t1,18
 674:	5f00                	lw	s0,56(a4)
 676:	6e66                	flw	ft8,88(sp)
 678:	7974                	flw	fa3,116(a0)
 67a:	6570                	flw	fa2,76(a0)
 67c:	6e750073          	0x6e750073
 680:	6e676973          	csrrsi	s2,0x6e6,14
 684:	6465                	lui	s0,0x19
 686:	6320                	flw	fs0,64(a4)
 688:	6168                	flw	fa0,68(a0)
 68a:	0072                	c.slli	zero,0x1c
 68c:	615f 6464 5f00      	0x5f006464615f
 692:	555f 6f4c 676e      	0x676e6f4c555f
 698:	6800                	flw	fs0,16(s0)
 69a:	6174                	flw	fa3,68(a0)
 69c:	5f62                	lw	t5,56(sp)
 69e:	7165                	addi	sp,sp,-400
 6a0:	705f 696f 746e      	0x746e696f705f
 6a6:	7265                	lui	tp,0xffff9
 6a8:	5f00                	lw	s0,56(a4)
 6aa:	785f 0072 675f      	0x675f0072785f
 6b0:	6f6c                	flw	fa1,92(a4)
 6b2:	6162                	flw	ft2,24(sp)
 6b4:	5f6c                	lw	a1,124(a4)
 6b6:	6d69                	lui	s10,0x1a
 6b8:	7570                	flw	fa2,108(a0)
 6ba:	6572                	flw	fa0,28(sp)
 6bc:	705f 7274 5500      	0x55007274705f
 6c2:	4944                	lw	s1,20(a0)
 6c4:	7974                	flw	fa3,116(a0)
 6c6:	6570                	flw	fa2,76(a0)
 6c8:	5f00                	lw	s0,56(a4)
 6ca:	6f647473          	csrrci	s0,0x6f6,8
 6ce:	7475                	lui	s0,0xffffd
 6d0:	5f00                	lw	s0,56(a4)
 6d2:	745f 5f6d 6477      	0x64775f6d745f
 6d8:	7961                	lui	s2,0xffff8
 6da:	5f00                	lw	s0,56(a4)
 6dc:	65756c67          	0x65756c67
 6e0:	5f00                	lw	s0,56(a4)
 6e2:	69647473          	csrrci	s0,0x696,8
 6e6:	006e                	c.slli	zero,0x1b
 6e8:	735f 6973 657a      	0x657a6973735f
 6ee:	745f 5f00 366c      	0x366c5f00745f
 6f4:	6134                	flw	fa3,64(a0)
 6f6:	625f 6675 5f00      	0x5f006675625f
 6fc:	5f676973          	csrrsi	s2,0x5f6,14
 700:	7566                	flw	fa0,120(sp)
 702:	636e                	flw	ft6,216(sp)
 704:	5f00                	lw	s0,56(a4)
 706:	705f 706f 6f63      	0x6f63706f705f
 70c:	6e75                	lui	t3,0x1d
 70e:	5f74                	lw	a3,124(a4)
 710:	6174                	flw	fa3,68(a0)
 712:	0062                	c.slli	zero,0x18
 714:	6e5f 7562 0066      	0x6675626e5f
 71a:	755f 756e 6573      	0x6573756e755f
 720:	0064                	addi	s1,sp,12
 722:	5f5f 3072 5f00      	0x5f0030725f5f
 728:	725f 0031 5f5f      	0x5f5f0031725f
 72e:	6d74                	flw	fa3,92(a0)
 730:	695f 6473 7473      	0x74736473695f
 736:	5f00                	lw	s0,56(a4)
 738:	6f6c                	flw	fa1,92(a4)
 73a:	746c6163          	bltu	s8,t1,e7c <_tbss_end+0xe7c>
 73e:	6d69                	lui	s10,0x1a
 740:	5f65                	li	t5,-7
 742:	7562                	flw	fa0,56(sp)
 744:	0066                	c.slli	zero,0x19
 746:	5f5f 6d74 6d5f      	0x6d5f6d745f5f
 74c:	6e69                	lui	t3,0x1a
 74e:	5f00                	lw	s0,56(a4)
 750:	3472                	fld	fs0,312(sp)
 752:	0038                	addi	a4,sp,8
 754:	4241                	li	tp,16
 756:	5f49                	li	t5,-14
 758:	504c                	lw	a1,36(s0)
 75a:	3436                	fld	fs0,360(sp)
 75c:	0044                	addi	s1,sp,4
 75e:	6f74706f          	j	48654 <_tbss_end+0x48654>
 762:	7470                	flw	fa2,108(s0)
 764:	4100                	lw	s0,0(a0)
 766:	4942                	lw	s2,16(sp)
 768:	4c5f 3650 4634      	0x463436504c5f
 76e:	5f00                	lw	s0,56(a4)
 770:	626d                	lui	tp,0x1b
 772:	6f74                	flw	fa3,92(a4)
 774:	735f6377          	0x735f6377
 778:	6174                	flw	fa3,68(a0)
 77a:	6574                	flw	fa3,76(a0)
 77c:	5f00                	lw	s0,56(a4)
 77e:	3570                	fld	fa2,232(a0)
 780:	6c5f0073          	0x6c5f0073
 784:	6c61636f          	jal	t1,16e4a <_tbss_end+0x16e4a>
 788:	0065                	c.nop	25
 78a:	5155                	li	sp,-11
 78c:	7449                	lui	s0,0xffff2
 78e:	7079                	c.lui	zero,0xffffe
 790:	0065                	c.nop	25
 792:	5f5f 6273 6675      	0x667562735f5f
 798:	5f00                	lw	s0,56(a4)
 79a:	745f 5f6d 646d      	0x646d5f6d745f
 7a0:	7961                	lui	s2,0xffff8
 7a2:	5f00                	lw	s0,56(a4)
 7a4:	6172                	flw	ft2,28(sp)
 7a6:	646e                	flw	fs0,216(sp)
 7a8:	6e5f 7865 0074      	0x7478656e5f
 7ae:	7468                	flw	fa0,108(s0)
 7b0:	6261                	lui	tp,0x18
 7b2:	655f 0071 5f5f      	0x5f5f0071655f
 7b8:	6d75                	lui	s10,0x1d
 7ba:	6964646f          	jal	s0,46e50 <_tbss_end+0x46e50>
 7be:	4e470033          	0x4e470033
 7c2:	2055                	jal	866 <_tbss_end+0x866>
 7c4:	20373143          	fmadd.s	ft2,fa4,ft3,ft4,rup
 7c8:	2e38                	fld	fa4,88(a2)
 7ca:	2e32                	fld	ft8,264(sp)
 7cc:	2030                	fld	fa2,64(s0)
 7ce:	6d2d                	lui	s10,0xb
 7d0:	646f6d63          	bltu	t5,t1,e2a <_tbss_end+0xe2a>
 7d4:	6c65                	lui	s8,0x19
 7d6:	6d3d                	lui	s10,0xf
 7d8:	6465                	lui	s0,0x19
 7da:	6f6c                	flw	fa1,92(a4)
 7dc:	6d2d2077          	0x6d2d2077
 7e0:	646f6d63          	bltu	t5,t1,e3a <_tbss_end+0xe3a>
 7e4:	6c65                	lui	s8,0x19
 7e6:	6d3d                	lui	s10,0xf
 7e8:	6465                	lui	s0,0x19
 7ea:	6f6c                	flw	fa1,92(a4)
 7ec:	6d2d2077          	0x6d2d2077
 7f0:	7574                	flw	fa3,108(a0)
 7f2:	656e                	flw	fa0,216(sp)
 7f4:	723d                	lui	tp,0xfffef
 7f6:	656b636f          	jal	t1,b6e4c <_tbss_end+0xb6e4c>
 7fa:	2074                	fld	fa3,192(s0)
 7fc:	6d2d                	lui	s10,0xb
 7fe:	7261                	lui	tp,0xffff8
 800:	723d6863          	bltu	s10,gp,f30 <_tbss_end+0xf30>
 804:	3376                	fld	ft6,376(sp)
 806:	6932                	flw	fs2,12(sp)
 808:	616d                	addi	sp,sp,240
 80a:	6d2d2063          	0x6d2d2063
 80e:	6261                	lui	tp,0x18
 810:	3d69                	jal	6aa <_tbss_end+0x6aa>
 812:	6c69                	lui	s8,0x1a
 814:	3370                	fld	fa2,224(a4)
 816:	2032                	fld	ft0,264(sp)
 818:	672d                	lui	a4,0xb
 81a:	2d20                	fld	fs0,88(a0)
 81c:	2d20734f          	0x2d20734f
 820:	2d20324f          	0x2d20324f
 824:	2d20734f          	0x2d20734f
 828:	6266                	flw	ft4,88(sp)
 82a:	6975                	lui	s2,0x1d
 82c:	646c                	flw	fa1,76(s0)
 82e:	6e69                	lui	t3,0x1a
 830:	696c2d67          	0x696c2d67
 834:	6762                	flw	fa4,24(sp)
 836:	2d206363          	bltu	zero,s2,afc <_tbss_end+0xafc>
 83a:	6e66                	flw	ft8,88(sp)
 83c:	74732d6f          	jal	s10,33782 <_tbss_end+0x33782>
 840:	6361                	lui	t1,0x18
 842:	72702d6b          	0x72702d6b
 846:	6365746f          	jal	s0,57e7c <_tbss_end+0x57e7c>
 84a:	6f74                	flw	fa3,92(a4)
 84c:	2072                	fld	ft0,280(sp)
 84e:	662d                	lui	a2,0xb
 850:	6976                	flw	fs2,92(sp)
 852:	69626973          	csrrsi	s2,0x696,4
 856:	696c                	flw	fa1,84(a0)
 858:	7974                	flw	fa3,116(a0)
 85a:	683d                	lui	a6,0xf
 85c:	6469                	lui	s0,0x1a
 85e:	6564                	flw	fs1,76(a0)
 860:	006e                	c.slli	zero,0x1b
